---
triple:          'arm64-apple-darwin'
binary-path:     motex
relocations:
  - { offsetInCU: 0x15E01, offset: 0x15E01, size: 0x8, addend: 0x0, symName: __ZNSt3__1neB8ue170006ERKNS_16__deque_iteratorINS_10shared_ptrI6ActionEEPS3_RS3_PS4_lLl256EEES9_, symObjAddr: 0xBF4, symBinAddr: 0x100002A68, symSize: 0x34 }
  - { offsetInCU: 0x15E3E, offset: 0x15E3E, size: 0x8, addend: 0x0, symName: __ZNSt3__1eqB8ue170006ERKNS_16__deque_iteratorINS_10shared_ptrI6ActionEEPS3_RS3_PS4_lLl256EEES9_, symObjAddr: 0xF48, symBinAddr: 0x100002DBC, symSize: 0x30 }
  - { offsetInCU: 0x15E7B, offset: 0x15E7B, size: 0x8, addend: 0x0, symName: __ZNSt3__110destroy_atB8ue170006INS_10shared_ptrI6ActionEELi0EEEvPT_, symObjAddr: 0xF78, symBinAddr: 0x100002DEC, symSize: 0x24 }
  - { offsetInCU: 0x15EB2, offset: 0x15EB2, size: 0x8, addend: 0x0, symName: __ZNSt3__112__destroy_atB8ue170006INS_10shared_ptrI6ActionEELi0EEEvPT_, symObjAddr: 0xF9C, symBinAddr: 0x100002E10, symSize: 0x24 }
  - { offsetInCU: 0x15EE9, offset: 0x15EE9, size: 0x8, addend: 0x0, symName: __ZNSt3__134__libcpp_atomic_refcount_decrementB8ue170006IlEET_RS1_, symObjAddr: 0x10F8, symBinAddr: 0x100002F6C, symSize: 0x30 }
  - { offsetInCU: 0x15F1E, offset: 0x15F1E, size: 0x8, addend: 0x0, symName: __ZNSt3__112__to_addressB8ue170006INS_10shared_ptrI6ActionEEEEPT_S5_, symObjAddr: 0x1774, symBinAddr: 0x1000035E8, symSize: 0x14 }
  - { offsetInCU: 0x15F53, offset: 0x15F53, size: 0x8, addend: 0x0, symName: __ZNSt3__119__libcpp_deallocateB8ue170006EPvmm, symObjAddr: 0x18E0, symBinAddr: 0x100003754, symSize: 0x60 }
  - { offsetInCU: 0x15FB8, offset: 0x15FB8, size: 0x8, addend: 0x0, symName: __ZNSt3__124__is_overaligned_for_newB8ue170006Em, symObjAddr: 0x1940, symBinAddr: 0x1000037B4, symSize: 0x20 }
  - { offsetInCU: 0x15FE6, offset: 0x15FE6, size: 0x8, addend: 0x0, symName: __ZNSt3__127__do_deallocate_handle_sizeB8ue170006IJSt11align_val_tEEEvPvmDpT_, symObjAddr: 0x1960, symBinAddr: 0x1000037D4, symSize: 0x30 }
  - { offsetInCU: 0x16039, offset: 0x16039, size: 0x8, addend: 0x0, symName: __ZNSt3__127__do_deallocate_handle_sizeB8ue170006IJEEEvPvmDpT_, symObjAddr: 0x1990, symBinAddr: 0x100003804, symSize: 0x28 }
  - { offsetInCU: 0x16077, offset: 0x16077, size: 0x8, addend: 0x0, symName: __ZNSt3__124__libcpp_operator_deleteB8ue170006IJPvSt11align_val_tEEEvDpT_, symObjAddr: 0x19B8, symBinAddr: 0x10000382C, symSize: 0x2C }
  - { offsetInCU: 0x160C0, offset: 0x160C0, size: 0x8, addend: 0x0, symName: __ZNSt3__124__libcpp_operator_deleteB8ue170006IJPvEEEvDpT_, symObjAddr: 0x19E4, symBinAddr: 0x100003858, symSize: 0x24 }
  - { offsetInCU: 0x160F5, offset: 0x160F5, size: 0x8, addend: 0x0, symName: __ZNSt3__112__to_addressB8ue170006IPNS_10shared_ptrI6ActionEEEEPT_S6_, symObjAddr: 0x1C64, symBinAddr: 0x100003AD8, symSize: 0x14 }
  - { offsetInCU: 0x1612A, offset: 0x1612A, size: 0x8, addend: 0x0, symName: __ZNSt3__110destroy_atB8ue170006IPNS_10shared_ptrI6ActionEELi0EEEvPT_, symObjAddr: 0x1C78, symBinAddr: 0x100003AEC, symSize: 0x24 }
  - { offsetInCU: 0x16161, offset: 0x16161, size: 0x8, addend: 0x0, symName: __ZNSt3__112__destroy_atB8ue170006IPNS_10shared_ptrI6ActionEELi0EEEvPT_, symObjAddr: 0x1C9C, symBinAddr: 0x100003B10, symSize: 0x10 }
  - { offsetInCU: 0x16258, offset: 0x16258, size: 0x8, addend: 0x0, symName: __ZNSt3__110destroy_atB8ue170006INS_4pairIKNS_12basic_stringIcNS_11char_traitsIcEENS_9allocatorIcEEEE14BooleanSettingEELi0EEEvPT_, symObjAddr: 0x208C, symBinAddr: 0x100003F00, symSize: 0x24 }
  - { offsetInCU: 0x1628F, offset: 0x1628F, size: 0x8, addend: 0x0, symName: __ZNSt3__112__destroy_atB8ue170006INS_4pairIKNS_12basic_stringIcNS_11char_traitsIcEENS_9allocatorIcEEEE14BooleanSettingEELi0EEEvPT_, symObjAddr: 0x20B0, symBinAddr: 0x100003F24, symSize: 0x24 }
  - { offsetInCU: 0x162C6, offset: 0x162C6, size: 0x8, addend: 0x0, symName: __ZNSt3__112__to_addressB8ue170006INS_12basic_stringIcNS_11char_traitsIcEENS_9allocatorIcEEEEEEPT_S8_, symObjAddr: 0x2540, symBinAddr: 0x1000043B4, symSize: 0x14 }
  - { offsetInCU: 0x162FB, offset: 0x162FB, size: 0x8, addend: 0x0, symName: __ZNSt3__110destroy_atB8ue170006INS_12basic_stringIcNS_11char_traitsIcEENS_9allocatorIcEEEELi0EEEvPT_, symObjAddr: 0x2554, symBinAddr: 0x1000043C8, symSize: 0x24 }
  - { offsetInCU: 0x16332, offset: 0x16332, size: 0x8, addend: 0x0, symName: __ZNSt3__112__destroy_atB8ue170006INS_12basic_stringIcNS_11char_traitsIcEENS_9allocatorIcEEEELi0EEEvPT_, symObjAddr: 0x2578, symBinAddr: 0x1000043EC, symSize: 0x24 }
  - { offsetInCU: 0x16369, offset: 0x16369, size: 0x8, addend: 0x0, symName: __ZNSt3__17launderB8ue170006INS_4pairIKNS_12basic_stringIcNS_11char_traitsIcEENS_9allocatorIcEEEE14BooleanSettingEEEEPT_SC_, symObjAddr: 0x270C, symBinAddr: 0x100004580, symSize: 0x24 }
  - { offsetInCU: 0x163A0, offset: 0x163A0, size: 0x8, addend: 0x0, symName: __ZNSt3__19__launderB8ue170006INS_4pairIKNS_12basic_stringIcNS_11char_traitsIcEENS_9allocatorIcEEEE14BooleanSettingEEEEPT_SC_, symObjAddr: 0x2730, symBinAddr: 0x1000045A4, symSize: 0x14 }
  - { offsetInCU: 0x163D7, offset: 0x163D7, size: 0x8, addend: 0x0, symName: __ZNSt3__118__constexpr_strlenB8ue170006EPKc, symObjAddr: 0x3028, symBinAddr: 0x100004E9C, symSize: 0x24 }
  - { offsetInCU: 0x1A188, offset: 0x1A188, size: 0x8, addend: 0x0, symName: _main, symObjAddr: 0x0, symBinAddr: 0x100001E74, symSize: 0x144 }
  - { offsetInCU: 0x1A2B1, offset: 0x1A2B1, size: 0x8, addend: 0x0, symName: __ZNSt3__18optionalINS_12basic_stringIcNS_11char_traitsIcEENS_9allocatorIcEEEEEC1B8ue170006ENS_9nullopt_tE, symObjAddr: 0x144, symBinAddr: 0x100001FB8, symSize: 0x2C }
  - { offsetInCU: 0x1A2E7, offset: 0x1A2E7, size: 0x8, addend: 0x0, symName: __ZNSt3__18optionalINS_12basic_stringIcNS_11char_traitsIcEENS_9allocatorIcEEEEED1Ev, symObjAddr: 0x170, symBinAddr: 0x100001FE4, symSize: 0x2C }
  - { offsetInCU: 0x1B332, offset: 0x1B332, size: 0x8, addend: 0x0, symName: __ZN16EditorControllerD1Ev, symObjAddr: 0x19C, symBinAddr: 0x100002010, symSize: 0x2C }
  - { offsetInCU: 0x1B361, offset: 0x1B361, size: 0x8, addend: 0x0, symName: __ZNSt3__18optionalINS_12basic_stringIcNS_11char_traitsIcEENS_9allocatorIcEEEEEC1B8ue170006IRPcLi0EEEOT_, symObjAddr: 0x1C8, symBinAddr: 0x10000203C, symSize: 0x34 }
  - { offsetInCU: 0x1B3A9, offset: 0x1B3A9, size: 0x8, addend: 0x0, symName: __ZNSt3__18optionalINS_12basic_stringIcNS_11char_traitsIcEENS_9allocatorIcEEEEEC2B8ue170006ENS_9nullopt_tE, symObjAddr: 0x1FC, symBinAddr: 0x100002070, symSize: 0x2C }
  - { offsetInCU: 0x1B3DF, offset: 0x1B3DF, size: 0x8, addend: 0x0, symName: __ZNSt3__127__optional_move_assign_baseINS_12basic_stringIcNS_11char_traitsIcEENS_9allocatorIcEEEELb0EEC2B8ue170006Ev, symObjAddr: 0x228, symBinAddr: 0x10000209C, symSize: 0x2C }
  - { offsetInCU: 0x1B409, offset: 0x1B409, size: 0x8, addend: 0x0, symName: __ZNSt3__127__optional_copy_assign_baseINS_12basic_stringIcNS_11char_traitsIcEENS_9allocatorIcEEEELb0EEC2B8ue170006Ev, symObjAddr: 0x254, symBinAddr: 0x1000020C8, symSize: 0x2C }
  - { offsetInCU: 0x1B433, offset: 0x1B433, size: 0x8, addend: 0x0, symName: __ZNSt3__120__optional_move_baseINS_12basic_stringIcNS_11char_traitsIcEENS_9allocatorIcEEEELb0EEC2B8ue170006Ev, symObjAddr: 0x280, symBinAddr: 0x1000020F4, symSize: 0x2C }
  - { offsetInCU: 0x1B45D, offset: 0x1B45D, size: 0x8, addend: 0x0, symName: __ZNSt3__120__optional_copy_baseINS_12basic_stringIcNS_11char_traitsIcEENS_9allocatorIcEEEELb0EEC2B8ue170006Ev, symObjAddr: 0x2AC, symBinAddr: 0x100002120, symSize: 0x2C }
  - { offsetInCU: 0x1B487, offset: 0x1B487, size: 0x8, addend: 0x0, symName: __ZNSt3__123__optional_storage_baseINS_12basic_stringIcNS_11char_traitsIcEENS_9allocatorIcEEEELb0EEC2Ev, symObjAddr: 0x2D8, symBinAddr: 0x10000214C, symSize: 0x2C }
  - { offsetInCU: 0x1B4B4, offset: 0x1B4B4, size: 0x8, addend: 0x0, symName: __ZNSt3__124__optional_destruct_baseINS_12basic_stringIcNS_11char_traitsIcEENS_9allocatorIcEEEELb0EEC2B8ue170006Ev, symObjAddr: 0x304, symBinAddr: 0x100002178, symSize: 0x1C }
  - { offsetInCU: 0x1B4DE, offset: 0x1B4DE, size: 0x8, addend: 0x0, symName: __ZNSt3__18optionalINS_12basic_stringIcNS_11char_traitsIcEENS_9allocatorIcEEEEED2Ev, symObjAddr: 0x320, symBinAddr: 0x100002194, symSize: 0x2C }
  - { offsetInCU: 0x1B50B, offset: 0x1B50B, size: 0x8, addend: 0x0, symName: __ZNSt3__127__optional_move_assign_baseINS_12basic_stringIcNS_11char_traitsIcEENS_9allocatorIcEEEELb0EED2Ev, symObjAddr: 0x34C, symBinAddr: 0x1000021C0, symSize: 0x2C }
  - { offsetInCU: 0x1B538, offset: 0x1B538, size: 0x8, addend: 0x0, symName: __ZNSt3__127__optional_copy_assign_baseINS_12basic_stringIcNS_11char_traitsIcEENS_9allocatorIcEEEELb0EED2Ev, symObjAddr: 0x378, symBinAddr: 0x1000021EC, symSize: 0x2C }
  - { offsetInCU: 0x1B565, offset: 0x1B565, size: 0x8, addend: 0x0, symName: __ZNSt3__120__optional_move_baseINS_12basic_stringIcNS_11char_traitsIcEENS_9allocatorIcEEEELb0EED2Ev, symObjAddr: 0x3A4, symBinAddr: 0x100002218, symSize: 0x2C }
  - { offsetInCU: 0x1B592, offset: 0x1B592, size: 0x8, addend: 0x0, symName: __ZNSt3__120__optional_copy_baseINS_12basic_stringIcNS_11char_traitsIcEENS_9allocatorIcEEEELb0EED2Ev, symObjAddr: 0x3D0, symBinAddr: 0x100002244, symSize: 0x2C }
  - { offsetInCU: 0x1B5BF, offset: 0x1B5BF, size: 0x8, addend: 0x0, symName: __ZNSt3__123__optional_storage_baseINS_12basic_stringIcNS_11char_traitsIcEENS_9allocatorIcEEEELb0EED2Ev, symObjAddr: 0x3FC, symBinAddr: 0x100002270, symSize: 0x2C }
  - { offsetInCU: 0x1B5EC, offset: 0x1B5EC, size: 0x8, addend: 0x0, symName: __ZNSt3__124__optional_destruct_baseINS_12basic_stringIcNS_11char_traitsIcEENS_9allocatorIcEEEELb0EED2B8ue170006Ev, symObjAddr: 0x428, symBinAddr: 0x10000229C, symSize: 0x48 }
  - { offsetInCU: 0x1B616, offset: 0x1B616, size: 0x8, addend: 0x0, symName: __ZN16EditorControllerD2Ev, symObjAddr: 0x470, symBinAddr: 0x1000022E4, symSize: 0x70 }
  - { offsetInCU: 0x1B640, offset: 0x1B640, size: 0x8, addend: 0x0, symName: __ZN7HistoryD1Ev, symObjAddr: 0x4E0, symBinAddr: 0x100002354, symSize: 0x2C }
  - { offsetInCU: 0x1B66A, offset: 0x1B66A, size: 0x8, addend: 0x0, symName: __ZN8SettingsD1Ev, symObjAddr: 0x50C, symBinAddr: 0x100002380, symSize: 0x2C }
  - { offsetInCU: 0x1B694, offset: 0x1B694, size: 0x8, addend: 0x0, symName: __ZN9UiHandlerD1Ev, symObjAddr: 0x538, symBinAddr: 0x1000023AC, symSize: 0x2C }
  - { offsetInCU: 0x1B6BE, offset: 0x1B6BE, size: 0x8, addend: 0x0, symName: __ZN11ModeManagerD1Ev, symObjAddr: 0x564, symBinAddr: 0x1000023D8, symSize: 0x2C }
  - { offsetInCU: 0x1B6E8, offset: 0x1B6E8, size: 0x8, addend: 0x0, symName: __ZN11EditorStateD1Ev, symObjAddr: 0x590, symBinAddr: 0x100002404, symSize: 0x2C }
  - { offsetInCU: 0x1B712, offset: 0x1B712, size: 0x8, addend: 0x0, symName: __ZN16EditorControllerD0Ev, symObjAddr: 0x5BC, symBinAddr: 0x100002430, symSize: 0x30 }
  - { offsetInCU: 0x1B73C, offset: 0x1B73C, size: 0x8, addend: 0x0, symName: __ZN7HistoryD2Ev, symObjAddr: 0x5EC, symBinAddr: 0x100002460, symSize: 0x38 }
  - { offsetInCU: 0x1B766, offset: 0x1B766, size: 0x8, addend: 0x0, symName: __ZNSt3__15stackINS_10shared_ptrI6ActionEENS_5dequeIS3_NS_9allocatorIS3_EEEEED1Ev, symObjAddr: 0x624, symBinAddr: 0x100002498, symSize: 0x2C }
  - { offsetInCU: 0x1B792, offset: 0x1B792, size: 0x8, addend: 0x0, symName: __ZNSt3__15dequeINS_10shared_ptrI6ActionEENS_9allocatorIS3_EEED1B8ue170006Ev, symObjAddr: 0x650, symBinAddr: 0x1000024C4, symSize: 0x2C }
  - { offsetInCU: 0x1B7BC, offset: 0x1B7BC, size: 0x8, addend: 0x0, symName: __ZNSt3__15stackINS_10shared_ptrI6ActionEENS_5dequeIS3_NS_9allocatorIS3_EEEEED2Ev, symObjAddr: 0x67C, symBinAddr: 0x1000024F0, symSize: 0x2C }
  - { offsetInCU: 0x1B7E8, offset: 0x1B7E8, size: 0x8, addend: 0x0, symName: __ZNSt3__15dequeINS_10shared_ptrI6ActionEENS_9allocatorIS3_EEED2B8ue170006Ev, symObjAddr: 0x6A8, symBinAddr: 0x10000251C, symSize: 0xA4 }
  - { offsetInCU: 0x1B83E, offset: 0x1B83E, size: 0x8, addend: 0x0, symName: __ZNSt3__15dequeINS_10shared_ptrI6ActionEENS_9allocatorIS3_EEE5clearEv, symObjAddr: 0x74C, symBinAddr: 0x1000025C0, symSize: 0x194 }
  - { offsetInCU: 0x1B899, offset: 0x1B899, size: 0x8, addend: 0x0, symName: __ZNKSt3__15dequeINS_10shared_ptrI6ActionEENS_9allocatorIS3_EEE17__annotate_deleteB8ue170006Ev, symObjAddr: 0x8E0, symBinAddr: 0x100002754, symSize: 0xE8 }
  - { offsetInCU: 0x1B8DC, offset: 0x1B8DC, size: 0x8, addend: 0x0, symName: __ZNSt3__114__split_bufferIPNS_10shared_ptrI6ActionEENS_9allocatorIS4_EEE5beginB8ue170006Ev, symObjAddr: 0x9C8, symBinAddr: 0x10000283C, symSize: 0x18 }
  - { offsetInCU: 0x1B902, offset: 0x1B902, size: 0x8, addend: 0x0, symName: __ZNSt3__114__split_bufferIPNS_10shared_ptrI6ActionEENS_9allocatorIS4_EEE3endB8ue170006Ev, symObjAddr: 0x9E0, symBinAddr: 0x100002854, symSize: 0x18 }
  - { offsetInCU: 0x1B928, offset: 0x1B928, size: 0x8, addend: 0x0, symName: __ZNSt3__116allocator_traitsINS_9allocatorINS_10shared_ptrI6ActionEEEEE10deallocateB8ue170006ERS5_PS4_m, symObjAddr: 0x9F8, symBinAddr: 0x10000286C, symSize: 0x34 }
  - { offsetInCU: 0x1B96A, offset: 0x1B96A, size: 0x8, addend: 0x0, symName: __ZNSt3__15dequeINS_10shared_ptrI6ActionEENS_9allocatorIS3_EEE7__allocB8ue170006Ev, symObjAddr: 0xA2C, symBinAddr: 0x1000028A0, symSize: 0x28 }
  - { offsetInCU: 0x1B990, offset: 0x1B990, size: 0x8, addend: 0x0, symName: __ZNSt3__114__split_bufferIPNS_10shared_ptrI6ActionEENS_9allocatorIS4_EEED1Ev, symObjAddr: 0xA54, symBinAddr: 0x1000028C8, symSize: 0x2C }
  - { offsetInCU: 0x1B9BC, offset: 0x1B9BC, size: 0x8, addend: 0x0, symName: __ZNSt3__15dequeINS_10shared_ptrI6ActionEENS_9allocatorIS3_EEE5beginB8ue170006Ev, symObjAddr: 0xA80, symBinAddr: 0x1000028F4, symSize: 0xB8 }
  - { offsetInCU: 0x1B9F1, offset: 0x1B9F1, size: 0x8, addend: 0x0, symName: __ZNSt3__15dequeINS_10shared_ptrI6ActionEENS_9allocatorIS3_EEE3endB8ue170006Ev, symObjAddr: 0xB38, symBinAddr: 0x1000029AC, symSize: 0xBC }
  - { offsetInCU: 0x1BA35, offset: 0x1BA35, size: 0x8, addend: 0x0, symName: __ZNSt3__116allocator_traitsINS_9allocatorINS_10shared_ptrI6ActionEEEEE7destroyB8ue170006IS4_vvEEvRS5_PT_, symObjAddr: 0xC34, symBinAddr: 0x100002AA8, symSize: 0x28 }
  - { offsetInCU: 0x1BA70, offset: 0x1BA70, size: 0x8, addend: 0x0, symName: __ZNKSt3__116__deque_iteratorINS_10shared_ptrI6ActionEEPS3_RS3_PS4_lLl256EEdeB8ue170006Ev, symObjAddr: 0xC5C, symBinAddr: 0x100002AD0, symSize: 0x18 }
  - { offsetInCU: 0x1BA96, offset: 0x1BA96, size: 0x8, addend: 0x0, symName: __ZNSt3__116__deque_iteratorINS_10shared_ptrI6ActionEEPS3_RS3_PS4_lLl256EEppB8ue170006Ev, symObjAddr: 0xC74, symBinAddr: 0x100002AE8, symSize: 0x70 }
  - { offsetInCU: 0x1BABC, offset: 0x1BABC, size: 0x8, addend: 0x0, symName: __ZNSt3__15dequeINS_10shared_ptrI6ActionEENS_9allocatorIS3_EEE6__sizeB8ue170006Ev, symObjAddr: 0xCE4, symBinAddr: 0x100002B58, symSize: 0x28 }
  - { offsetInCU: 0x1BAE2, offset: 0x1BAE2, size: 0x8, addend: 0x0, symName: __ZNKSt3__114__split_bufferIPNS_10shared_ptrI6ActionEENS_9allocatorIS4_EEE4sizeB8ue170006Ev, symObjAddr: 0xD0C, symBinAddr: 0x100002B80, symSize: 0x28 }
  - { offsetInCU: 0x1BB08, offset: 0x1BB08, size: 0x8, addend: 0x0, symName: __ZNSt3__114__split_bufferIPNS_10shared_ptrI6ActionEENS_9allocatorIS4_EEE5frontB8ue170006Ev, symObjAddr: 0xD34, symBinAddr: 0x100002BA8, symSize: 0x18 }
  - { offsetInCU: 0x1BB2E, offset: 0x1BB2E, size: 0x8, addend: 0x0, symName: __ZNSt3__114__split_bufferIPNS_10shared_ptrI6ActionEENS_9allocatorIS4_EEE9pop_frontB8ue170006Ev, symObjAddr: 0xD4C, symBinAddr: 0x100002BC0, symSize: 0x2C }
  - { offsetInCU: 0x1BB54, offset: 0x1BB54, size: 0x8, addend: 0x0, symName: __ZNKSt3__15dequeINS_10shared_ptrI6ActionEENS_9allocatorIS3_EEE14__annotate_newB8ue170006Em, symObjAddr: 0xD78, symBinAddr: 0x100002BEC, symSize: 0xB8 }
  - { offsetInCU: 0x1BB89, offset: 0x1BB89, size: 0x8, addend: 0x0, symName: __ZNKSt3__114__split_bufferIPNS_10shared_ptrI6ActionEENS_9allocatorIS4_EEE5emptyB8ue170006Ev, symObjAddr: 0xE30, symBinAddr: 0x100002CA4, symSize: 0x28 }
  - { offsetInCU: 0x1BBAF, offset: 0x1BBAF, size: 0x8, addend: 0x0, symName: __ZNSt3__116__deque_iteratorINS_10shared_ptrI6ActionEEPS3_RS3_PS4_lLl256EEC1B8ue170006ES6_S4_, symObjAddr: 0xE58, symBinAddr: 0x100002CCC, symSize: 0x3C }
  - { offsetInCU: 0x1BBF7, offset: 0x1BBF7, size: 0x8, addend: 0x0, symName: __ZNSt3__116__deque_iteratorINS_10shared_ptrI6ActionEEPS3_RS3_PS4_lLl256EEC2B8ue170006ES6_S4_, symObjAddr: 0xE94, symBinAddr: 0x100002D08, symSize: 0x2C }
  - { offsetInCU: 0x1BC3F, offset: 0x1BC3F, size: 0x8, addend: 0x0, symName: __ZNKSt3__15dequeINS_10shared_ptrI6ActionEENS_9allocatorIS3_EEE4sizeB8ue170006Ev, symObjAddr: 0xEC0, symBinAddr: 0x100002D34, symSize: 0x28 }
  - { offsetInCU: 0x1BC65, offset: 0x1BC65, size: 0x8, addend: 0x0, symName: __ZNKSt3__15dequeINS_10shared_ptrI6ActionEENS_9allocatorIS3_EEE6__sizeB8ue170006Ev, symObjAddr: 0xEE8, symBinAddr: 0x100002D5C, symSize: 0x28 }
  - { offsetInCU: 0x1BC8B, offset: 0x1BC8B, size: 0x8, addend: 0x0, symName: __ZNKSt3__117__compressed_pairImNS_9allocatorINS_10shared_ptrI6ActionEEEEE5firstB8ue170006Ev, symObjAddr: 0xF10, symBinAddr: 0x100002D84, symSize: 0x24 }
  - { offsetInCU: 0x1BCB1, offset: 0x1BCB1, size: 0x8, addend: 0x0, symName: __ZNKSt3__122__compressed_pair_elemImLi0ELb0EE5__getB8ue170006Ev, symObjAddr: 0xF34, symBinAddr: 0x100002DA8, symSize: 0x14 }
  - { offsetInCU: 0x1BCD7, offset: 0x1BCD7, size: 0x8, addend: 0x0, symName: __ZNSt3__110shared_ptrI6ActionED1B8ue170006Ev, symObjAddr: 0xFC0, symBinAddr: 0x100002E34, symSize: 0x2C }
  - { offsetInCU: 0x1BD01, offset: 0x1BD01, size: 0x8, addend: 0x0, symName: __ZNSt3__110shared_ptrI6ActionED2B8ue170006Ev, symObjAddr: 0xFEC, symBinAddr: 0x100002E60, symSize: 0x54 }
  - { offsetInCU: 0x1BD2B, offset: 0x1BD2B, size: 0x8, addend: 0x0, symName: __ZNSt3__119__shared_weak_count16__release_sharedB8ue170006Ev, symObjAddr: 0x1040, symBinAddr: 0x100002EB4, symSize: 0x3C }
  - { offsetInCU: 0x1BD51, offset: 0x1BD51, size: 0x8, addend: 0x0, symName: __ZNSt3__114__shared_count16__release_sharedB8ue170006Ev, symObjAddr: 0x107C, symBinAddr: 0x100002EF0, symSize: 0x7C }
  - { offsetInCU: 0x1BD77, offset: 0x1BD77, size: 0x8, addend: 0x0, symName: __ZNSt3__117__compressed_pairImNS_9allocatorINS_10shared_ptrI6ActionEEEEE5firstB8ue170006Ev, symObjAddr: 0x1128, symBinAddr: 0x100002F9C, symSize: 0x24 }
  - { offsetInCU: 0x1BD9D, offset: 0x1BD9D, size: 0x8, addend: 0x0, symName: __ZNSt3__122__compressed_pair_elemImLi0ELb0EE5__getB8ue170006Ev, symObjAddr: 0x114C, symBinAddr: 0x100002FC0, symSize: 0x14 }
  - { offsetInCU: 0x1BDC3, offset: 0x1BDC3, size: 0x8, addend: 0x0, symName: __ZNSt3__114__split_bufferIPNS_10shared_ptrI6ActionEENS_9allocatorIS4_EEE19__destruct_at_beginB8ue170006EPS4_, symObjAddr: 0x1160, symBinAddr: 0x100002FD4, symSize: 0x2C }
  - { offsetInCU: 0x1BDF7, offset: 0x1BDF7, size: 0x8, addend: 0x0, symName: __ZNSt3__114__split_bufferIPNS_10shared_ptrI6ActionEENS_9allocatorIS4_EEE19__destruct_at_beginEPS4_NS_17integral_constantIbLb1EEE, symObjAddr: 0x118C, symBinAddr: 0x100003000, symSize: 0x20 }
  - { offsetInCU: 0x1BE38, offset: 0x1BE38, size: 0x8, addend: 0x0, symName: __ZNKSt3__15dequeINS_10shared_ptrI6ActionEENS_9allocatorIS3_EEE18__annotate_from_toB8ue170006EmmNS6_22__asan_annotation_typeENS6_23__asan_annotation_placeE, symObjAddr: 0x11AC, symBinAddr: 0x100003020, symSize: 0x580 }
  - { offsetInCU: 0x1BFF4, offset: 0x1BFF4, size: 0x8, addend: 0x0, symName: __ZNKSt3__114__split_bufferIPNS_10shared_ptrI6ActionEENS_9allocatorIS4_EEE5beginB8ue170006Ev, symObjAddr: 0x172C, symBinAddr: 0x1000035A0, symSize: 0x18 }
  - { offsetInCU: 0x1C01A, offset: 0x1C01A, size: 0x8, addend: 0x0, symName: __ZNKSt3__15dequeINS_10shared_ptrI6ActionEENS_9allocatorIS3_EEE5emptyB8ue170006Ev, symObjAddr: 0x1744, symBinAddr: 0x1000035B8, symSize: 0x30 }
  - { offsetInCU: 0x1C040, offset: 0x1C040, size: 0x8, addend: 0x0, symName: __ZNKSt3__15dequeINS_10shared_ptrI6ActionEENS_9allocatorIS3_EEE44__annotate_double_ended_contiguous_containerB8ue170006EPKvS8_S8_S8_S8_S8_, symObjAddr: 0x1788, symBinAddr: 0x1000035FC, symSize: 0x28 }
  - { offsetInCU: 0x1C0AE, offset: 0x1C0AE, size: 0x8, addend: 0x0, symName: __ZNKSt3__15dequeINS_10shared_ptrI6ActionEENS_9allocatorIS3_EEE22__annotate_whole_blockB8ue170006EmNS6_22__asan_annotation_typeE, symObjAddr: 0x17B0, symBinAddr: 0x100003624, symSize: 0xAC }
  - { offsetInCU: 0x1C11F, offset: 0x1C11F, size: 0x8, addend: 0x0, symName: __ZNKSt3__15dequeINS_10shared_ptrI6ActionEENS_9allocatorIS3_EEE23__annotate_poison_blockB8ue170006EPKvS8_, symObjAddr: 0x185C, symBinAddr: 0x1000036D0, symSize: 0x44 }
  - { offsetInCU: 0x1C163, offset: 0x1C163, size: 0x8, addend: 0x0, symName: __ZNSt3__19allocatorINS_10shared_ptrI6ActionEEE10deallocateB8ue170006EPS3_m, symObjAddr: 0x18A0, symBinAddr: 0x100003714, symSize: 0x40 }
  - { offsetInCU: 0x1C1A5, offset: 0x1C1A5, size: 0x8, addend: 0x0, symName: __ZNSt3__117__compressed_pairImNS_9allocatorINS_10shared_ptrI6ActionEEEEE6secondB8ue170006Ev, symObjAddr: 0x1A08, symBinAddr: 0x10000387C, symSize: 0x24 }
  - { offsetInCU: 0x1C1CB, offset: 0x1C1CB, size: 0x8, addend: 0x0, symName: __ZNSt3__122__compressed_pair_elemINS_9allocatorINS_10shared_ptrI6ActionEEEELi1ELb1EE5__getB8ue170006Ev, symObjAddr: 0x1A2C, symBinAddr: 0x1000038A0, symSize: 0x14 }
  - { offsetInCU: 0x1C1F1, offset: 0x1C1F1, size: 0x8, addend: 0x0, symName: __ZNSt3__114__split_bufferIPNS_10shared_ptrI6ActionEENS_9allocatorIS4_EEED2Ev, symObjAddr: 0x1A40, symBinAddr: 0x1000038B4, symSize: 0x8C }
  - { offsetInCU: 0x1C21D, offset: 0x1C21D, size: 0x8, addend: 0x0, symName: __ZNSt3__114__split_bufferIPNS_10shared_ptrI6ActionEENS_9allocatorIS4_EEE5clearB8ue170006Ev, symObjAddr: 0x1ACC, symBinAddr: 0x100003940, symSize: 0x28 }
  - { offsetInCU: 0x1C243, offset: 0x1C243, size: 0x8, addend: 0x0, symName: __ZNSt3__116allocator_traitsINS_9allocatorIPNS_10shared_ptrI6ActionEEEEE10deallocateB8ue170006ERS6_PS5_m, symObjAddr: 0x1AF4, symBinAddr: 0x100003968, symSize: 0x34 }
  - { offsetInCU: 0x1C285, offset: 0x1C285, size: 0x8, addend: 0x0, symName: __ZNSt3__114__split_bufferIPNS_10shared_ptrI6ActionEENS_9allocatorIS4_EEE7__allocB8ue170006Ev, symObjAddr: 0x1B28, symBinAddr: 0x10000399C, symSize: 0x28 }
  - { offsetInCU: 0x1C2AB, offset: 0x1C2AB, size: 0x8, addend: 0x0, symName: __ZNKSt3__114__split_bufferIPNS_10shared_ptrI6ActionEENS_9allocatorIS4_EEE8capacityB8ue170006Ev, symObjAddr: 0x1B50, symBinAddr: 0x1000039C4, symSize: 0x40 }
  - { offsetInCU: 0x1C2D1, offset: 0x1C2D1, size: 0x8, addend: 0x0, symName: __ZNSt3__114__split_bufferIPNS_10shared_ptrI6ActionEENS_9allocatorIS4_EEE17__destruct_at_endB8ue170006EPS4_, symObjAddr: 0x1B90, symBinAddr: 0x100003A04, symSize: 0x2C }
  - { offsetInCU: 0x1C305, offset: 0x1C305, size: 0x8, addend: 0x0, symName: __ZNSt3__114__split_bufferIPNS_10shared_ptrI6ActionEENS_9allocatorIS4_EEE17__destruct_at_endB8ue170006EPS4_NS_17integral_constantIbLb0EEE, symObjAddr: 0x1BBC, symBinAddr: 0x100003A30, symSize: 0x80 }
  - { offsetInCU: 0x1C346, offset: 0x1C346, size: 0x8, addend: 0x0, symName: __ZNSt3__116allocator_traitsINS_9allocatorIPNS_10shared_ptrI6ActionEEEEE7destroyB8ue170006IS5_vvEEvRS6_PT_, symObjAddr: 0x1C3C, symBinAddr: 0x100003AB0, symSize: 0x28 }
  - { offsetInCU: 0x1C381, offset: 0x1C381, size: 0x8, addend: 0x0, symName: __ZNSt3__19allocatorIPNS_10shared_ptrI6ActionEEE10deallocateB8ue170006EPS4_m, symObjAddr: 0x1CAC, symBinAddr: 0x100003B20, symSize: 0x40 }
  - { offsetInCU: 0x1C3C3, offset: 0x1C3C3, size: 0x8, addend: 0x0, symName: __ZNSt3__117__compressed_pairIPPNS_10shared_ptrI6ActionEENS_9allocatorIS4_EEE6secondB8ue170006Ev, symObjAddr: 0x1CEC, symBinAddr: 0x100003B60, symSize: 0x24 }
  - { offsetInCU: 0x1C3E9, offset: 0x1C3E9, size: 0x8, addend: 0x0, symName: __ZNSt3__122__compressed_pair_elemINS_9allocatorIPNS_10shared_ptrI6ActionEEEELi1ELb1EE5__getB8ue170006Ev, symObjAddr: 0x1D10, symBinAddr: 0x100003B84, symSize: 0x14 }
  - { offsetInCU: 0x1C40F, offset: 0x1C40F, size: 0x8, addend: 0x0, symName: __ZNKSt3__114__split_bufferIPNS_10shared_ptrI6ActionEENS_9allocatorIS4_EEE9__end_capB8ue170006Ev, symObjAddr: 0x1D24, symBinAddr: 0x100003B98, symSize: 0x28 }
  - { offsetInCU: 0x1C435, offset: 0x1C435, size: 0x8, addend: 0x0, symName: __ZNKSt3__117__compressed_pairIPPNS_10shared_ptrI6ActionEENS_9allocatorIS4_EEE5firstB8ue170006Ev, symObjAddr: 0x1D4C, symBinAddr: 0x100003BC0, symSize: 0x24 }
  - { offsetInCU: 0x1C45B, offset: 0x1C45B, size: 0x8, addend: 0x0, symName: __ZNKSt3__122__compressed_pair_elemIPPNS_10shared_ptrI6ActionEELi0ELb0EE5__getB8ue170006Ev, symObjAddr: 0x1D70, symBinAddr: 0x100003BE4, symSize: 0x14 }
  - { offsetInCU: 0x1C481, offset: 0x1C481, size: 0x8, addend: 0x0, symName: __ZN8SettingsD2Ev, symObjAddr: 0x1D84, symBinAddr: 0x100003BF8, symSize: 0x2C }
  - { offsetInCU: 0x1C4AB, offset: 0x1C4AB, size: 0x8, addend: 0x0, symName: __ZNSt3__113unordered_mapINS_12basic_stringIcNS_11char_traitsIcEENS_9allocatorIcEEEE14BooleanSettingNS_4hashIS6_EENS_8equal_toIS6_EENS4_INS_4pairIKS6_S7_EEEEED1B8ue170006Ev, symObjAddr: 0x1DB0, symBinAddr: 0x100003C24, symSize: 0x2C }
  - { offsetInCU: 0x1C4D5, offset: 0x1C4D5, size: 0x8, addend: 0x0, symName: __ZNSt3__113unordered_mapINS_12basic_stringIcNS_11char_traitsIcEENS_9allocatorIcEEEE14BooleanSettingNS_4hashIS6_EENS_8equal_toIS6_EENS4_INS_4pairIKS6_S7_EEEEED2B8ue170006Ev, symObjAddr: 0x1DDC, symBinAddr: 0x100003C50, symSize: 0x2C }
  - { offsetInCU: 0x1C4FF, offset: 0x1C4FF, size: 0x8, addend: 0x0, symName: __ZNSt3__112__hash_tableINS_17__hash_value_typeINS_12basic_stringIcNS_11char_traitsIcEENS_9allocatorIcEEEE14BooleanSettingEENS_22__unordered_map_hasherIS7_S9_NS_4hashIS7_EENS_8equal_toIS7_EELb1EEENS_21__unordered_map_equalIS7_S9_SE_SC_Lb1EEENS5_IS9_EEED1Ev, symObjAddr: 0x1E08, symBinAddr: 0x100003C7C, symSize: 0x2C }
  - { offsetInCU: 0x1C52B, offset: 0x1C52B, size: 0x8, addend: 0x0, symName: __ZNSt3__112__hash_tableINS_17__hash_value_typeINS_12basic_stringIcNS_11char_traitsIcEENS_9allocatorIcEEEE14BooleanSettingEENS_22__unordered_map_hasherIS7_S9_NS_4hashIS7_EENS_8equal_toIS7_EELb1EEENS_21__unordered_map_equalIS7_S9_SE_SC_Lb1EEENS5_IS9_EEED2Ev, symObjAddr: 0x1E34, symBinAddr: 0x100003CA8, symSize: 0x48 }
  - { offsetInCU: 0x1C557, offset: 0x1C557, size: 0x8, addend: 0x0, symName: __ZNSt3__112__hash_tableINS_17__hash_value_typeINS_12basic_stringIcNS_11char_traitsIcEENS_9allocatorIcEEEE14BooleanSettingEENS_22__unordered_map_hasherIS7_S9_NS_4hashIS7_EENS_8equal_toIS7_EELb1EEENS_21__unordered_map_equalIS7_S9_SE_SC_Lb1EEENS5_IS9_EEE17__deallocate_nodeEPNS_16__hash_node_baseIPNS_11__hash_nodeIS9_PvEEEE, symObjAddr: 0x1E7C, symBinAddr: 0x100003CF0, symSize: 0xA8 }
  - { offsetInCU: 0x1C5C1, offset: 0x1C5C1, size: 0x8, addend: 0x0, symName: __ZNSt3__117__compressed_pairINS_16__hash_node_baseIPNS_11__hash_nodeINS_17__hash_value_typeINS_12basic_stringIcNS_11char_traitsIcEENS_9allocatorIcEEEE14BooleanSettingEEPvEEEENS7_ISD_EEE5firstB8ue170006Ev, symObjAddr: 0x1F24, symBinAddr: 0x100003D98, symSize: 0x24 }
  - { offsetInCU: 0x1C5E7, offset: 0x1C5E7, size: 0x8, addend: 0x0, symName: __ZNSt3__110unique_ptrIA_PNS_16__hash_node_baseIPNS_11__hash_nodeINS_17__hash_value_typeINS_12basic_stringIcNS_11char_traitsIcEENS_9allocatorIcEEEE14BooleanSettingEEPvEEEENS_25__bucket_list_deallocatorINS7_ISG_EEEEED1B8ue170006Ev, symObjAddr: 0x1F48, symBinAddr: 0x100003DBC, symSize: 0x2C }
  - { offsetInCU: 0x1C611, offset: 0x1C611, size: 0x8, addend: 0x0, symName: __ZNSt3__112__hash_tableINS_17__hash_value_typeINS_12basic_stringIcNS_11char_traitsIcEENS_9allocatorIcEEEE14BooleanSettingEENS_22__unordered_map_hasherIS7_S9_NS_4hashIS7_EENS_8equal_toIS7_EELb1EEENS_21__unordered_map_equalIS7_S9_SE_SC_Lb1EEENS5_IS9_EEE12__node_allocB8ue170006Ev, symObjAddr: 0x1F74, symBinAddr: 0x100003DE8, symSize: 0x28 }
  - { offsetInCU: 0x1C637, offset: 0x1C637, size: 0x8, addend: 0x0, symName: __ZNSt3__116__hash_node_baseIPNS_11__hash_nodeINS_17__hash_value_typeINS_12basic_stringIcNS_11char_traitsIcEENS_9allocatorIcEEEE14BooleanSettingEEPvEEE8__upcastB8ue170006Ev, symObjAddr: 0x1F9C, symBinAddr: 0x100003E10, symSize: 0x24 }
  - { offsetInCU: 0x1C662, offset: 0x1C662, size: 0x8, addend: 0x0, symName: __ZNSt3__116allocator_traitsINS_9allocatorINS_11__hash_nodeINS_17__hash_value_typeINS_12basic_stringIcNS_11char_traitsIcEENS1_IcEEEE14BooleanSettingEEPvEEEEE7destroyB8ue170006INS_4pairIKS8_S9_EEvvEEvRSD_PT_, symObjAddr: 0x1FC0, symBinAddr: 0x100003E34, symSize: 0x28 }
  - { offsetInCU: 0x1C69D, offset: 0x1C69D, size: 0x8, addend: 0x0, symName: __ZNSt3__122__hash_key_value_typesINS_17__hash_value_typeINS_12basic_stringIcNS_11char_traitsIcEENS_9allocatorIcEEEE14BooleanSettingEEE9__get_ptrB8ue170006ERS9_, symObjAddr: 0x1FE8, symBinAddr: 0x100003E5C, symSize: 0x24 }
  - { offsetInCU: 0x1C6C0, offset: 0x1C6C0, size: 0x8, addend: 0x0, symName: __ZNSt3__116allocator_traitsINS_9allocatorINS_11__hash_nodeINS_17__hash_value_typeINS_12basic_stringIcNS_11char_traitsIcEENS1_IcEEEE14BooleanSettingEEPvEEEEE10deallocateB8ue170006ERSD_PSC_m, symObjAddr: 0x200C, symBinAddr: 0x100003E80, symSize: 0x34 }
  - { offsetInCU: 0x1C702, offset: 0x1C702, size: 0x8, addend: 0x0, symName: __ZNSt3__117__compressed_pairINS_16__hash_node_baseIPNS_11__hash_nodeINS_17__hash_value_typeINS_12basic_stringIcNS_11char_traitsIcEENS_9allocatorIcEEEE14BooleanSettingEEPvEEEENS7_ISD_EEE6secondB8ue170006Ev, symObjAddr: 0x2040, symBinAddr: 0x100003EB4, symSize: 0x24 }
  - { offsetInCU: 0x1C728, offset: 0x1C728, size: 0x8, addend: 0x0, symName: __ZNSt3__122__compressed_pair_elemINS_9allocatorINS_11__hash_nodeINS_17__hash_value_typeINS_12basic_stringIcNS_11char_traitsIcEENS1_IcEEEE14BooleanSettingEEPvEEEELi1ELb1EE5__getB8ue170006Ev, symObjAddr: 0x2064, symBinAddr: 0x100003ED8, symSize: 0x14 }
  - { offsetInCU: 0x1C74E, offset: 0x1C74E, size: 0x8, addend: 0x0, symName: __ZNSt3__114pointer_traitsIPNS_16__hash_node_baseIPNS_11__hash_nodeINS_17__hash_value_typeINS_12basic_stringIcNS_11char_traitsIcEENS_9allocatorIcEEEE14BooleanSettingEEPvEEEEE10pointer_toB8ue170006ERSF_, symObjAddr: 0x2078, symBinAddr: 0x100003EEC, symSize: 0x14 }
  - { offsetInCU: 0x1C771, offset: 0x1C771, size: 0x8, addend: 0x0, symName: __ZNSt3__14pairIKNS_12basic_stringIcNS_11char_traitsIcEENS_9allocatorIcEEEE14BooleanSettingED1Ev, symObjAddr: 0x20D4, symBinAddr: 0x100003F48, symSize: 0x2C }
  - { offsetInCU: 0x1C79D, offset: 0x1C79D, size: 0x8, addend: 0x0, symName: __ZNSt3__14pairIKNS_12basic_stringIcNS_11char_traitsIcEENS_9allocatorIcEEEE14BooleanSettingED2Ev, symObjAddr: 0x2100, symBinAddr: 0x100003F74, symSize: 0x38 }
  - { offsetInCU: 0x1C7CE, offset: 0x1C7CE, size: 0x8, addend: 0x0, symName: __ZN14BooleanSettingD1Ev, symObjAddr: 0x2138, symBinAddr: 0x100003FAC, symSize: 0x2C }
  - { offsetInCU: 0x1C7FA, offset: 0x1C7FA, size: 0x8, addend: 0x0, symName: __ZN14BooleanSettingD2Ev, symObjAddr: 0x2164, symBinAddr: 0x100003FD8, symSize: 0x3C }
  - { offsetInCU: 0x1C826, offset: 0x1C826, size: 0x8, addend: 0x0, symName: __ZNSt3__16vectorINS_12basic_stringIcNS_11char_traitsIcEENS_9allocatorIcEEEENS4_IS6_EEED1B8ue170006Ev, symObjAddr: 0x21A0, symBinAddr: 0x100004014, symSize: 0x2C }
  - { offsetInCU: 0x1C850, offset: 0x1C850, size: 0x8, addend: 0x0, symName: __ZNSt3__16vectorINS_12basic_stringIcNS_11char_traitsIcEENS_9allocatorIcEEEENS4_IS6_EEED2B8ue170006Ev, symObjAddr: 0x21CC, symBinAddr: 0x100004040, symSize: 0x44 }
  - { offsetInCU: 0x1C87A, offset: 0x1C87A, size: 0x8, addend: 0x0, symName: __ZNSt3__16vectorINS_12basic_stringIcNS_11char_traitsIcEENS_9allocatorIcEEEENS4_IS6_EEE16__destroy_vectorC1B8ue170006ERS8_, symObjAddr: 0x2210, symBinAddr: 0x100004084, symSize: 0x34 }
  - { offsetInCU: 0x1C8B3, offset: 0x1C8B3, size: 0x8, addend: 0x0, symName: __ZNSt3__16vectorINS_12basic_stringIcNS_11char_traitsIcEENS_9allocatorIcEEEENS4_IS6_EEE16__destroy_vectorclB8ue170006Ev, symObjAddr: 0x2244, symBinAddr: 0x1000040B8, symSize: 0x90 }
  - { offsetInCU: 0x1C8D9, offset: 0x1C8D9, size: 0x8, addend: 0x0, symName: __ZNSt3__16vectorINS_12basic_stringIcNS_11char_traitsIcEENS_9allocatorIcEEEENS4_IS6_EEE16__destroy_vectorC2B8ue170006ERS8_, symObjAddr: 0x22D4, symBinAddr: 0x100004148, symSize: 0x20 }
  - { offsetInCU: 0x1C912, offset: 0x1C912, size: 0x8, addend: 0x0, symName: __ZNSt3__16vectorINS_12basic_stringIcNS_11char_traitsIcEENS_9allocatorIcEEEENS4_IS6_EEE7__clearB8ue170006Ev, symObjAddr: 0x22F4, symBinAddr: 0x100004168, symSize: 0x28 }
  - { offsetInCU: 0x1C938, offset: 0x1C938, size: 0x8, addend: 0x0, symName: __ZNKSt3__16vectorINS_12basic_stringIcNS_11char_traitsIcEENS_9allocatorIcEEEENS4_IS6_EEE17__annotate_deleteB8ue170006Ev, symObjAddr: 0x231C, symBinAddr: 0x100004190, symSize: 0xD4 }
  - { offsetInCU: 0x1C95E, offset: 0x1C95E, size: 0x8, addend: 0x0, symName: __ZNSt3__116allocator_traitsINS_9allocatorINS_12basic_stringIcNS_11char_traitsIcEENS1_IcEEEEEEE10deallocateB8ue170006ERS7_PS6_m, symObjAddr: 0x23F0, symBinAddr: 0x100004264, symSize: 0x34 }
  - { offsetInCU: 0x1C9A0, offset: 0x1C9A0, size: 0x8, addend: 0x0, symName: __ZNSt3__16vectorINS_12basic_stringIcNS_11char_traitsIcEENS_9allocatorIcEEEENS4_IS6_EEE7__allocB8ue170006Ev, symObjAddr: 0x2424, symBinAddr: 0x100004298, symSize: 0x28 }
  - { offsetInCU: 0x1C9C6, offset: 0x1C9C6, size: 0x8, addend: 0x0, symName: __ZNKSt3__16vectorINS_12basic_stringIcNS_11char_traitsIcEENS_9allocatorIcEEEENS4_IS6_EEE8capacityB8ue170006Ev, symObjAddr: 0x244C, symBinAddr: 0x1000042C0, symSize: 0x40 }
  - { offsetInCU: 0x1C9EC, offset: 0x1C9EC, size: 0x8, addend: 0x0, symName: __ZNSt3__16vectorINS_12basic_stringIcNS_11char_traitsIcEENS_9allocatorIcEEEENS4_IS6_EEE22__base_destruct_at_endB8ue170006EPS6_, symObjAddr: 0x248C, symBinAddr: 0x100004300, symSize: 0x8C }
  - { offsetInCU: 0x1CA30, offset: 0x1CA30, size: 0x8, addend: 0x0, symName: __ZNSt3__116allocator_traitsINS_9allocatorINS_12basic_stringIcNS_11char_traitsIcEENS1_IcEEEEEEE7destroyB8ue170006IS6_vvEEvRS7_PT_, symObjAddr: 0x2518, symBinAddr: 0x10000438C, symSize: 0x28 }
  - { offsetInCU: 0x1CA6B, offset: 0x1CA6B, size: 0x8, addend: 0x0, symName: __ZNKSt3__16vectorINS_12basic_stringIcNS_11char_traitsIcEENS_9allocatorIcEEEENS4_IS6_EEE31__annotate_contiguous_containerB8ue170006EPKvSA_SA_SA_, symObjAddr: 0x259C, symBinAddr: 0x100004410, symSize: 0x20 }
  - { offsetInCU: 0x1CAC1, offset: 0x1CAC1, size: 0x8, addend: 0x0, symName: __ZNKSt3__16vectorINS_12basic_stringIcNS_11char_traitsIcEENS_9allocatorIcEEEENS4_IS6_EEE4dataB8ue170006Ev, symObjAddr: 0x25BC, symBinAddr: 0x100004430, symSize: 0x28 }
  - { offsetInCU: 0x1CAE7, offset: 0x1CAE7, size: 0x8, addend: 0x0, symName: __ZNKSt3__16vectorINS_12basic_stringIcNS_11char_traitsIcEENS_9allocatorIcEEEENS4_IS6_EEE4sizeB8ue170006Ev, symObjAddr: 0x25E4, symBinAddr: 0x100004458, symSize: 0x28 }
  - { offsetInCU: 0x1CB0D, offset: 0x1CB0D, size: 0x8, addend: 0x0, symName: __ZNSt3__19allocatorINS_12basic_stringIcNS_11char_traitsIcEENS0_IcEEEEE10deallocateB8ue170006EPS5_m, symObjAddr: 0x260C, symBinAddr: 0x100004480, symSize: 0x44 }
  - { offsetInCU: 0x1CB4F, offset: 0x1CB4F, size: 0x8, addend: 0x0, symName: __ZNSt3__117__compressed_pairIPNS_12basic_stringIcNS_11char_traitsIcEENS_9allocatorIcEEEENS4_IS6_EEE6secondB8ue170006Ev, symObjAddr: 0x2650, symBinAddr: 0x1000044C4, symSize: 0x24 }
  - { offsetInCU: 0x1CB75, offset: 0x1CB75, size: 0x8, addend: 0x0, symName: __ZNSt3__122__compressed_pair_elemINS_9allocatorINS_12basic_stringIcNS_11char_traitsIcEENS1_IcEEEEEELi1ELb1EE5__getB8ue170006Ev, symObjAddr: 0x2674, symBinAddr: 0x1000044E8, symSize: 0x14 }
  - { offsetInCU: 0x1CB9B, offset: 0x1CB9B, size: 0x8, addend: 0x0, symName: __ZNKSt3__16vectorINS_12basic_stringIcNS_11char_traitsIcEENS_9allocatorIcEEEENS4_IS6_EEE9__end_capB8ue170006Ev, symObjAddr: 0x2688, symBinAddr: 0x1000044FC, symSize: 0x28 }
  - { offsetInCU: 0x1CBC1, offset: 0x1CBC1, size: 0x8, addend: 0x0, symName: __ZNKSt3__117__compressed_pairIPNS_12basic_stringIcNS_11char_traitsIcEENS_9allocatorIcEEEENS4_IS6_EEE5firstB8ue170006Ev, symObjAddr: 0x26B0, symBinAddr: 0x100004524, symSize: 0x24 }
  - { offsetInCU: 0x1CBE7, offset: 0x1CBE7, size: 0x8, addend: 0x0, symName: __ZNKSt3__122__compressed_pair_elemIPNS_12basic_stringIcNS_11char_traitsIcEENS_9allocatorIcEEEELi0ELb0EE5__getB8ue170006Ev, symObjAddr: 0x26D4, symBinAddr: 0x100004548, symSize: 0x14 }
  - { offsetInCU: 0x1CC0D, offset: 0x1CC0D, size: 0x8, addend: 0x0, symName: __ZNSt3__117__hash_value_typeINS_12basic_stringIcNS_11char_traitsIcEENS_9allocatorIcEEEE14BooleanSettingE11__get_valueB8ue170006Ev, symObjAddr: 0x26E8, symBinAddr: 0x10000455C, symSize: 0x24 }
  - { offsetInCU: 0x1CC33, offset: 0x1CC33, size: 0x8, addend: 0x0, symName: __ZNSt3__19allocatorINS_11__hash_nodeINS_17__hash_value_typeINS_12basic_stringIcNS_11char_traitsIcEENS0_IcEEEE14BooleanSettingEEPvEEE10deallocateB8ue170006EPSB_m, symObjAddr: 0x2744, symBinAddr: 0x1000045B8, symSize: 0x44 }
  - { offsetInCU: 0x1CC75, offset: 0x1CC75, size: 0x8, addend: 0x0, symName: __ZNSt3__122__compressed_pair_elemINS_16__hash_node_baseIPNS_11__hash_nodeINS_17__hash_value_typeINS_12basic_stringIcNS_11char_traitsIcEENS_9allocatorIcEEEE14BooleanSettingEEPvEEEELi0ELb0EE5__getB8ue170006Ev, symObjAddr: 0x2788, symBinAddr: 0x1000045FC, symSize: 0x14 }
  - { offsetInCU: 0x1CC9B, offset: 0x1CC9B, size: 0x8, addend: 0x0, symName: __ZNSt3__110unique_ptrIA_PNS_16__hash_node_baseIPNS_11__hash_nodeINS_17__hash_value_typeINS_12basic_stringIcNS_11char_traitsIcEENS_9allocatorIcEEEE14BooleanSettingEEPvEEEENS_25__bucket_list_deallocatorINS7_ISG_EEEEED2B8ue170006Ev, symObjAddr: 0x279C, symBinAddr: 0x100004610, symSize: 0x30 }
  - { offsetInCU: 0x1CCC5, offset: 0x1CCC5, size: 0x8, addend: 0x0, symName: __ZNSt3__110unique_ptrIA_PNS_16__hash_node_baseIPNS_11__hash_nodeINS_17__hash_value_typeINS_12basic_stringIcNS_11char_traitsIcEENS_9allocatorIcEEEE14BooleanSettingEEPvEEEENS_25__bucket_list_deallocatorINS7_ISG_EEEEE5resetB8ue170006EDn, symObjAddr: 0x27CC, symBinAddr: 0x100004640, symSize: 0x6C }
  - { offsetInCU: 0x1CD06, offset: 0x1CD06, size: 0x8, addend: 0x0, symName: __ZNSt3__117__compressed_pairIPPNS_16__hash_node_baseIPNS_11__hash_nodeINS_17__hash_value_typeINS_12basic_stringIcNS_11char_traitsIcEENS_9allocatorIcEEEE14BooleanSettingEEPvEEEENS_25__bucket_list_deallocatorINS7_ISG_EEEEE5firstB8ue170006Ev, symObjAddr: 0x2838, symBinAddr: 0x1000046AC, symSize: 0x24 }
  - { offsetInCU: 0x1CD2C, offset: 0x1CD2C, size: 0x8, addend: 0x0, symName: __ZNSt3__117__compressed_pairIPPNS_16__hash_node_baseIPNS_11__hash_nodeINS_17__hash_value_typeINS_12basic_stringIcNS_11char_traitsIcEENS_9allocatorIcEEEE14BooleanSettingEEPvEEEENS_25__bucket_list_deallocatorINS7_ISG_EEEEE6secondB8ue170006Ev, symObjAddr: 0x285C, symBinAddr: 0x1000046D0, symSize: 0x28 }
  - { offsetInCU: 0x1CD52, offset: 0x1CD52, size: 0x8, addend: 0x0, symName: __ZNSt3__125__bucket_list_deallocatorINS_9allocatorIPNS_16__hash_node_baseIPNS_11__hash_nodeINS_17__hash_value_typeINS_12basic_stringIcNS_11char_traitsIcEENS1_IcEEEE14BooleanSettingEEPvEEEEEEEclB8ue170006EPSG_, symObjAddr: 0x2884, symBinAddr: 0x1000046F8, symSize: 0x58 }
  - { offsetInCU: 0x1CD87, offset: 0x1CD87, size: 0x8, addend: 0x0, symName: __ZNSt3__122__compressed_pair_elemIPPNS_16__hash_node_baseIPNS_11__hash_nodeINS_17__hash_value_typeINS_12basic_stringIcNS_11char_traitsIcEENS_9allocatorIcEEEE14BooleanSettingEEPvEEEELi0ELb0EE5__getB8ue170006Ev, symObjAddr: 0x28DC, symBinAddr: 0x100004750, symSize: 0x14 }
  - { offsetInCU: 0x1CDAD, offset: 0x1CDAD, size: 0x8, addend: 0x0, symName: __ZNSt3__122__compressed_pair_elemINS_25__bucket_list_deallocatorINS_9allocatorIPNS_16__hash_node_baseIPNS_11__hash_nodeINS_17__hash_value_typeINS_12basic_stringIcNS_11char_traitsIcEENS2_IcEEEE14BooleanSettingEEPvEEEEEEEELi1ELb0EE5__getB8ue170006Ev, symObjAddr: 0x28F0, symBinAddr: 0x100004764, symSize: 0x14 }
  - { offsetInCU: 0x1CDD3, offset: 0x1CDD3, size: 0x8, addend: 0x0, symName: __ZNSt3__116allocator_traitsINS_9allocatorIPNS_16__hash_node_baseIPNS_11__hash_nodeINS_17__hash_value_typeINS_12basic_stringIcNS_11char_traitsIcEENS1_IcEEEE14BooleanSettingEEPvEEEEEEE10deallocateB8ue170006ERSH_PSG_m, symObjAddr: 0x2904, symBinAddr: 0x100004778, symSize: 0x34 }
  - { offsetInCU: 0x1CE15, offset: 0x1CE15, size: 0x8, addend: 0x0, symName: __ZNSt3__125__bucket_list_deallocatorINS_9allocatorIPNS_16__hash_node_baseIPNS_11__hash_nodeINS_17__hash_value_typeINS_12basic_stringIcNS_11char_traitsIcEENS1_IcEEEE14BooleanSettingEEPvEEEEEEE7__allocB8ue170006Ev, symObjAddr: 0x2938, symBinAddr: 0x1000047AC, symSize: 0x24 }
  - { offsetInCU: 0x1CE3B, offset: 0x1CE3B, size: 0x8, addend: 0x0, symName: __ZNSt3__125__bucket_list_deallocatorINS_9allocatorIPNS_16__hash_node_baseIPNS_11__hash_nodeINS_17__hash_value_typeINS_12basic_stringIcNS_11char_traitsIcEENS1_IcEEEE14BooleanSettingEEPvEEEEEEE4sizeB8ue170006Ev, symObjAddr: 0x295C, symBinAddr: 0x1000047D0, symSize: 0x24 }
  - { offsetInCU: 0x1CE61, offset: 0x1CE61, size: 0x8, addend: 0x0, symName: __ZNSt3__19allocatorIPNS_16__hash_node_baseIPNS_11__hash_nodeINS_17__hash_value_typeINS_12basic_stringIcNS_11char_traitsIcEENS0_IcEEEE14BooleanSettingEEPvEEEEE10deallocateB8ue170006EPSF_m, symObjAddr: 0x2980, symBinAddr: 0x1000047F4, symSize: 0x40 }
  - { offsetInCU: 0x1CEA3, offset: 0x1CEA3, size: 0x8, addend: 0x0, symName: __ZNSt3__117__compressed_pairImNS_9allocatorIPNS_16__hash_node_baseIPNS_11__hash_nodeINS_17__hash_value_typeINS_12basic_stringIcNS_11char_traitsIcEENS1_IcEEEE14BooleanSettingEEPvEEEEEEE6secondB8ue170006Ev, symObjAddr: 0x29C0, symBinAddr: 0x100004834, symSize: 0x24 }
  - { offsetInCU: 0x1CEC9, offset: 0x1CEC9, size: 0x8, addend: 0x0, symName: __ZNSt3__122__compressed_pair_elemINS_9allocatorIPNS_16__hash_node_baseIPNS_11__hash_nodeINS_17__hash_value_typeINS_12basic_stringIcNS_11char_traitsIcEENS1_IcEEEE14BooleanSettingEEPvEEEEEELi1ELb1EE5__getB8ue170006Ev, symObjAddr: 0x29E4, symBinAddr: 0x100004858, symSize: 0x14 }
  - { offsetInCU: 0x1CEEF, offset: 0x1CEEF, size: 0x8, addend: 0x0, symName: __ZNSt3__117__compressed_pairImNS_9allocatorIPNS_16__hash_node_baseIPNS_11__hash_nodeINS_17__hash_value_typeINS_12basic_stringIcNS_11char_traitsIcEENS1_IcEEEE14BooleanSettingEEPvEEEEEEE5firstB8ue170006Ev, symObjAddr: 0x29F8, symBinAddr: 0x10000486C, symSize: 0x24 }
  - { offsetInCU: 0x1CF15, offset: 0x1CF15, size: 0x8, addend: 0x0, symName: __ZN9UiHandlerD2Ev, symObjAddr: 0x2A1C, symBinAddr: 0x100004890, symSize: 0x2C }
  - { offsetInCU: 0x1CF3F, offset: 0x1CF3F, size: 0x8, addend: 0x0, symName: __ZN11ModeManagerD2Ev, symObjAddr: 0x2A48, symBinAddr: 0x1000048BC, symSize: 0x2C }
  - { offsetInCU: 0x1CF69, offset: 0x1CF69, size: 0x8, addend: 0x0, symName: __ZNSt3__110unique_ptrI10EditorModeNS_14default_deleteIS1_EEED1B8ue170006Ev, symObjAddr: 0x2A74, symBinAddr: 0x1000048E8, symSize: 0x2C }
  - { offsetInCU: 0x1CF93, offset: 0x1CF93, size: 0x8, addend: 0x0, symName: __ZNSt3__110unique_ptrI10EditorModeNS_14default_deleteIS1_EEED2B8ue170006Ev, symObjAddr: 0x2AA0, symBinAddr: 0x100004914, symSize: 0x30 }
  - { offsetInCU: 0x1CFBD, offset: 0x1CFBD, size: 0x8, addend: 0x0, symName: __ZNSt3__110unique_ptrI10EditorModeNS_14default_deleteIS1_EEE5resetB8ue170006EPS1_, symObjAddr: 0x2AD0, symBinAddr: 0x100004944, symSize: 0x78 }
  - { offsetInCU: 0x1D001, offset: 0x1D001, size: 0x8, addend: 0x0, symName: __ZNSt3__117__compressed_pairIP10EditorModeNS_14default_deleteIS1_EEE5firstB8ue170006Ev, symObjAddr: 0x2B48, symBinAddr: 0x1000049BC, symSize: 0x24 }
  - { offsetInCU: 0x1D027, offset: 0x1D027, size: 0x8, addend: 0x0, symName: __ZNSt3__117__compressed_pairIP10EditorModeNS_14default_deleteIS1_EEE6secondB8ue170006Ev, symObjAddr: 0x2B6C, symBinAddr: 0x1000049E0, symSize: 0x24 }
  - { offsetInCU: 0x1D04D, offset: 0x1D04D, size: 0x8, addend: 0x0, symName: __ZNKSt3__114default_deleteI10EditorModeEclB8ue170006EPS1_, symObjAddr: 0x2B90, symBinAddr: 0x100004A04, symSize: 0x4C }
  - { offsetInCU: 0x1D081, offset: 0x1D081, size: 0x8, addend: 0x0, symName: __ZNSt3__122__compressed_pair_elemIP10EditorModeLi0ELb0EE5__getB8ue170006Ev, symObjAddr: 0x2BDC, symBinAddr: 0x100004A50, symSize: 0x14 }
  - { offsetInCU: 0x1D0A7, offset: 0x1D0A7, size: 0x8, addend: 0x0, symName: __ZNSt3__122__compressed_pair_elemINS_14default_deleteI10EditorModeEELi1ELb1EE5__getB8ue170006Ev, symObjAddr: 0x2BF0, symBinAddr: 0x100004A64, symSize: 0x14 }
  - { offsetInCU: 0x1D0CD, offset: 0x1D0CD, size: 0x8, addend: 0x0, symName: __ZN11EditorStateD2Ev, symObjAddr: 0x2C04, symBinAddr: 0x100004A78, symSize: 0x38 }
  - { offsetInCU: 0x1D0F7, offset: 0x1D0F7, size: 0x8, addend: 0x0, symName: __ZN8TextFileD1Ev, symObjAddr: 0x2C3C, symBinAddr: 0x100004AB0, symSize: 0x2C }
  - { offsetInCU: 0x1D123, offset: 0x1D123, size: 0x8, addend: 0x0, symName: __ZN8TextFileD2Ev, symObjAddr: 0x2C68, symBinAddr: 0x100004ADC, symSize: 0x38 }
  - { offsetInCU: 0x1D14F, offset: 0x1D14F, size: 0x8, addend: 0x0, symName: __ZNSt3__14__fs10filesystem4pathD1B8ue170006Ev, symObjAddr: 0x2CA0, symBinAddr: 0x100004B14, symSize: 0x2C }
  - { offsetInCU: 0x1D179, offset: 0x1D179, size: 0x8, addend: 0x0, symName: __ZNSt3__14__fs10filesystem4pathD2B8ue170006Ev, symObjAddr: 0x2CCC, symBinAddr: 0x100004B40, symSize: 0x2C }
  - { offsetInCU: 0x1D1A3, offset: 0x1D1A3, size: 0x8, addend: 0x0, symName: __ZNSt3__18optionalINS_12basic_stringIcNS_11char_traitsIcEENS_9allocatorIcEEEEEC2B8ue170006IRPcLi0EEEOT_, symObjAddr: 0x2CF8, symBinAddr: 0x100004B6C, symSize: 0x34 }
  - { offsetInCU: 0x1D1EB, offset: 0x1D1EB, size: 0x8, addend: 0x0, symName: __ZNSt3__127__optional_move_assign_baseINS_12basic_stringIcNS_11char_traitsIcEENS_9allocatorIcEEEELb0EECI2NS_24__optional_destruct_baseIS6_Lb0EEEIJRPcEEENS_10in_place_tEDpOT_, symObjAddr: 0x2D2C, symBinAddr: 0x100004BA0, symSize: 0x34 }
  - { offsetInCU: 0x1D22A, offset: 0x1D22A, size: 0x8, addend: 0x0, symName: __ZNSt3__127__optional_copy_assign_baseINS_12basic_stringIcNS_11char_traitsIcEENS_9allocatorIcEEEELb0EECI2NS_24__optional_destruct_baseIS6_Lb0EEEIJRPcEEENS_10in_place_tEDpOT_, symObjAddr: 0x2D60, symBinAddr: 0x100004BD4, symSize: 0x34 }
  - { offsetInCU: 0x1D269, offset: 0x1D269, size: 0x8, addend: 0x0, symName: __ZNSt3__120__optional_move_baseINS_12basic_stringIcNS_11char_traitsIcEENS_9allocatorIcEEEELb0EECI2NS_24__optional_destruct_baseIS6_Lb0EEEIJRPcEEENS_10in_place_tEDpOT_, symObjAddr: 0x2D94, symBinAddr: 0x100004C08, symSize: 0x34 }
  - { offsetInCU: 0x1D2A8, offset: 0x1D2A8, size: 0x8, addend: 0x0, symName: __ZNSt3__120__optional_copy_baseINS_12basic_stringIcNS_11char_traitsIcEENS_9allocatorIcEEEELb0EECI2NS_24__optional_destruct_baseIS6_Lb0EEEIJRPcEEENS_10in_place_tEDpOT_, symObjAddr: 0x2DC8, symBinAddr: 0x100004C3C, symSize: 0x34 }
  - { offsetInCU: 0x1D2E7, offset: 0x1D2E7, size: 0x8, addend: 0x0, symName: __ZNSt3__123__optional_storage_baseINS_12basic_stringIcNS_11char_traitsIcEENS_9allocatorIcEEEELb0EECI2NS_24__optional_destruct_baseIS6_Lb0EEEIJRPcEEENS_10in_place_tEDpOT_, symObjAddr: 0x2DFC, symBinAddr: 0x100004C70, symSize: 0x34 }
  - { offsetInCU: 0x1D326, offset: 0x1D326, size: 0x8, addend: 0x0, symName: __ZNSt3__124__optional_destruct_baseINS_12basic_stringIcNS_11char_traitsIcEENS_9allocatorIcEEEELb0EEC2B8ue170006IJRPcEEENS_10in_place_tEDpOT_, symObjAddr: 0x2E30, symBinAddr: 0x100004CA4, symSize: 0x40 }
  - { offsetInCU: 0x1D37B, offset: 0x1D37B, size: 0x8, addend: 0x0, symName: __ZNSt3__112basic_stringIcNS_11char_traitsIcEENS_9allocatorIcEEEC1B8ue170006ILi0EEEPKc, symObjAddr: 0x2E70, symBinAddr: 0x100004CE4, symSize: 0x34 }
  - { offsetInCU: 0x1D3BA, offset: 0x1D3BA, size: 0x8, addend: 0x0, symName: __ZNSt3__112basic_stringIcNS_11char_traitsIcEENS_9allocatorIcEEEC2B8ue170006ILi0EEEPKc, symObjAddr: 0x2EA4, symBinAddr: 0x100004D18, symSize: 0x58 }
  - { offsetInCU: 0x1D3FE, offset: 0x1D3FE, size: 0x8, addend: 0x0, symName: __ZNSt3__117__compressed_pairINS_12basic_stringIcNS_11char_traitsIcEENS_9allocatorIcEEE5__repES5_EC1B8ue170006INS_18__default_init_tagESA_EEOT_OT0_, symObjAddr: 0x2EFC, symBinAddr: 0x100004D70, symSize: 0x3C }
  - { offsetInCU: 0x1D456, offset: 0x1D456, size: 0x8, addend: 0x0, symName: __ZNSt3__111char_traitsIcE6lengthB8ue170006EPKc, symObjAddr: 0x2F38, symBinAddr: 0x100004DAC, symSize: 0x34 }
  - { offsetInCU: 0x1D479, offset: 0x1D479, size: 0x8, addend: 0x0, symName: __ZNSt3__117__compressed_pairINS_12basic_stringIcNS_11char_traitsIcEENS_9allocatorIcEEE5__repES5_EC2B8ue170006INS_18__default_init_tagESA_EEOT_OT0_, symObjAddr: 0x2F6C, symBinAddr: 0x100004DE0, symSize: 0x3C }
  - { offsetInCU: 0x1D4D1, offset: 0x1D4D1, size: 0x8, addend: 0x0, symName: __ZNSt3__122__compressed_pair_elemINS_12basic_stringIcNS_11char_traitsIcEENS_9allocatorIcEEE5__repELi0ELb0EEC2B8ue170006ENS_18__default_init_tagE, symObjAddr: 0x2FA8, symBinAddr: 0x100004E1C, symSize: 0x14 }
  - { offsetInCU: 0x1D506, offset: 0x1D506, size: 0x8, addend: 0x0, symName: __ZNSt3__122__compressed_pair_elemINS_9allocatorIcEELi1ELb1EEC2B8ue170006ENS_18__default_init_tagE, symObjAddr: 0x2FBC, symBinAddr: 0x100004E30, symSize: 0x2C }
  - { offsetInCU: 0x1D53B, offset: 0x1D53B, size: 0x8, addend: 0x0, symName: __ZNSt3__19allocatorIcEC2B8ue170006Ev, symObjAddr: 0x2FE8, symBinAddr: 0x100004E5C, symSize: 0x2C }
  - { offsetInCU: 0x1D565, offset: 0x1D565, size: 0x8, addend: 0x0, symName: __ZNSt3__116__non_trivial_ifILb1ENS_9allocatorIcEEEC2B8ue170006Ev, symObjAddr: 0x3014, symBinAddr: 0x100004E88, symSize: 0x14 }
  - { offsetInCU: 0x4107, offset: 0x2178A, size: 0x8, addend: 0x0, symName: __ZNSt3__17advanceB8ue170006IPNS_6vectorI11RenderChunkNS_9allocatorIS2_EEEEllvEEvRT_T0_, symObjAddr: 0x1964, symBinAddr: 0x1000067F8, symSize: 0x38 }
  - { offsetInCU: 0x459E, offset: 0x21C21, size: 0x8, addend: 0x0, symName: __ZNSt3__17advanceB8ue170006IP11RenderChunkllvEEvRT_T0_, symObjAddr: 0x2FD8, symBinAddr: 0x100007D64, symSize: 0x38 }
  - { offsetInCU: 0x5546, offset: 0x22BC9, size: 0x8, addend: 0x0, symName: __ZNSt3__122__make_exception_guardB8ue170006INS_6vectorINS1_I11RenderChunkNS_9allocatorIS2_EEEENS3_IS5_EEE16__destroy_vectorEEENS_28__exception_guard_exceptionsIT_EESA_, symObjAddr: 0x7D0, symBinAddr: 0x100005690, symSize: 0x40 }
  - { offsetInCU: 0x557B, offset: 0x22BFE, size: 0x8, addend: 0x0, symName: __ZNSt3__119__allocate_at_leastB8ue170006INS_9allocatorINS_6vectorI11RenderChunkNS1_IS3_EEEEEEEENS_19__allocation_resultINS_16allocator_traitsIT_E7pointerEEERS9_m, symObjAddr: 0xAC0, symBinAddr: 0x100005980, symSize: 0x40 }
  - { offsetInCU: 0x55BE, offset: 0x22C41, size: 0x8, addend: 0x0, symName: __ZNSt3__13minB8ue170006ImEERKT_S3_S3_, symObjAddr: 0xC18, symBinAddr: 0x100005AD8, symSize: 0x2C }
  - { offsetInCU: 0x57F4, offset: 0x22E77, size: 0x8, addend: 0x0, symName: __ZNSt3__13minB8ue170006ImNS_6__lessIvvEEEERKT_S5_S5_T0_, symObjAddr: 0xC8C, symBinAddr: 0x100005B40, symSize: 0x54 }
  - { offsetInCU: 0x5A8A, offset: 0x2310D, size: 0x8, addend: 0x0, symName: __ZNSt3__120__throw_length_errorB8ue170006EPKc, symObjAddr: 0xD38, symBinAddr: 0x100005BEC, symSize: 0x64 }
  - { offsetInCU: 0x5AB5, offset: 0x23138, size: 0x8, addend: 0x0, symName: __ZNSt3__117__libcpp_allocateB8ue170006Emm, symObjAddr: 0xEAC, symBinAddr: 0x100005D60, symSize: 0x60 }
  - { offsetInCU: 0x5B0F, offset: 0x23192, size: 0x8, addend: 0x0, symName: __ZNSt3__121__libcpp_operator_newB8ue170006IJmSt11align_val_tEEEPvDpT_, symObjAddr: 0xF2C, symBinAddr: 0x100005DC0, symSize: 0x2C }
  - { offsetInCU: 0x5B5C, offset: 0x231DF, size: 0x8, addend: 0x0, symName: __ZNSt3__121__libcpp_operator_newB8ue170006IJmEEEPvDpT_, symObjAddr: 0xF58, symBinAddr: 0x100005DEC, symSize: 0x24 }
  - { offsetInCU: 0x5B95, offset: 0x23218, size: 0x8, addend: 0x0, symName: __ZNSt3__112__to_addressB8ue170006INS_6vectorI11RenderChunkNS_9allocatorIS2_EEEEEEPT_S7_, symObjAddr: 0x1074, symBinAddr: 0x100005F08, symSize: 0x14 }
  - { offsetInCU: 0x5BCA, offset: 0x2324D, size: 0x8, addend: 0x0, symName: __ZNSt3__130__uninitialized_allocator_copyB8ue170006INS_9allocatorINS_6vectorI11RenderChunkNS1_IS3_EEEEEEPS5_S7_S7_EET2_RT_T0_T1_S8_, symObjAddr: 0x1124, symBinAddr: 0x100005FB8, symSize: 0x80 }
  - { offsetInCU: 0x5C67, offset: 0x232EA, size: 0x8, addend: 0x0, symName: __ZNSt3__114__unwrap_rangeB8ue170006IPNS_6vectorI11RenderChunkNS_9allocatorIS2_EEEES6_EEDaT_T0_, symObjAddr: 0x121C, symBinAddr: 0x1000060B0, symSize: 0x3C }
  - { offsetInCU: 0x5CB3, offset: 0x23336, size: 0x8, addend: 0x0, symName: __ZNSt3__135__uninitialized_allocator_copy_implB8ue170006INS_9allocatorINS_6vectorI11RenderChunkNS1_IS3_EEEEEEPS5_S7_S7_EET2_RT_T0_T1_S8_, symObjAddr: 0x1258, symBinAddr: 0x1000060EC, symSize: 0xF4 }
  - { offsetInCU: 0x5D51, offset: 0x233D4, size: 0x8, addend: 0x0, symName: __ZNSt3__113__unwrap_iterB8ue170006IPNS_6vectorI11RenderChunkNS_9allocatorIS2_EEEENS_18__unwrap_iter_implIS6_Lb1EEELi0EEEDTclsrT0_8__unwrapclsr3stdE7declvalIT_EEEESA_, symObjAddr: 0x134C, symBinAddr: 0x1000061E0, symSize: 0x24 }
  - { offsetInCU: 0x5D95, offset: 0x23418, size: 0x8, addend: 0x0, symName: __ZNSt3__113__rewrap_iterB8ue170006IPNS_6vectorI11RenderChunkNS_9allocatorIS2_EEEES6_NS_18__unwrap_iter_implIS6_Lb1EEEEET_S9_T0_, symObjAddr: 0x1370, symBinAddr: 0x100006204, symSize: 0x3C }
  - { offsetInCU: 0x5EED, offset: 0x23570, size: 0x8, addend: 0x0, symName: __ZNSt3__122__make_exception_guardB8ue170006INS_29_AllocatorDestroyRangeReverseINS_9allocatorINS_6vectorI11RenderChunkNS2_IS4_EEEEEEPS6_EEEENS_28__exception_guard_exceptionsIT_EESB_, symObjAddr: 0x1474, symBinAddr: 0x100006308, symSize: 0x4C }
  - { offsetInCU: 0x5F4A, offset: 0x235CD, size: 0x8, addend: 0x0, symName: __ZNSt3__112construct_atB8ue170006INS_6vectorI11RenderChunkNS_9allocatorIS2_EEEEJRS5_EPS5_EEPT_S9_DpOT0_, symObjAddr: 0x1618, symBinAddr: 0x1000064AC, symSize: 0x3C }
  - { offsetInCU: 0x5FBC, offset: 0x2363F, size: 0x8, addend: 0x0, symName: __ZNSt3__119__allocator_destroyB8ue170006INS_9allocatorINS_6vectorI11RenderChunkNS1_IS3_EEEEEENS_16reverse_iteratorIPS5_EES9_EEvRT_T0_T1_, symObjAddr: 0x170C, symBinAddr: 0x1000065A0, symSize: 0x70 }
  - { offsetInCU: 0x601F, offset: 0x236A2, size: 0x8, addend: 0x0, symName: __ZNSt3__1neB8ue170006IPNS_6vectorI11RenderChunkNS_9allocatorIS2_EEEES6_EEbRKNS_16reverse_iteratorIT_EERKNS7_IT0_EE, symObjAddr: 0x17B0, symBinAddr: 0x100006644, symSize: 0x48 }
  - { offsetInCU: 0x606B, offset: 0x236EE, size: 0x8, addend: 0x0, symName: __ZNSt3__112__to_addressB8ue170006INS_16reverse_iteratorIPNS_6vectorI11RenderChunkNS_9allocatorIS3_EEEEEEvEEu7__decayIDTclsr19__to_address_helperIT_EE6__callclsr3stdE7declvalIRKS9_EEEEESB_, symObjAddr: 0x1820, symBinAddr: 0x1000066B4, symSize: 0x24 }
  - { offsetInCU: 0x60A1, offset: 0x23724, size: 0x8, addend: 0x0, symName: __ZNSt3__110destroy_atB8ue170006INS_6vectorI11RenderChunkNS_9allocatorIS2_EEEELi0EEEvPT_, symObjAddr: 0x187C, symBinAddr: 0x100006710, symSize: 0x24 }
  - { offsetInCU: 0x60D8, offset: 0x2375B, size: 0x8, addend: 0x0, symName: __ZNSt3__112__destroy_atB8ue170006INS_6vectorI11RenderChunkNS_9allocatorIS2_EEEELi0EEEvPT_, symObjAddr: 0x18A0, symBinAddr: 0x100006734, symSize: 0x24 }
  - { offsetInCU: 0x6139, offset: 0x237BC, size: 0x8, addend: 0x0, symName: __ZNSt3__14prevB8ue170006IPNS_6vectorI11RenderChunkNS_9allocatorIS2_EEEEEENS_9enable_ifIXsr29__has_input_iterator_categoryIT_EE5valueES8_E4typeES8_NS_15iterator_traitsIS8_E15difference_typeE, symObjAddr: 0x1928, symBinAddr: 0x1000067BC, symSize: 0x3C }
  - { offsetInCU: 0x617C, offset: 0x237FF, size: 0x8, addend: 0x0, symName: __ZNSt3__121__convert_to_integralB8ue170006El, symObjAddr: 0x199C, symBinAddr: 0x100006830, symSize: 0x14 }
  - { offsetInCU: 0x61A8, offset: 0x2382B, size: 0x8, addend: 0x0, symName: __ZNSt3__19__advanceB8ue170006IPNS_6vectorI11RenderChunkNS_9allocatorIS2_EEEEEEvRT_NS_15iterator_traitsIS7_E15difference_typeENS_26random_access_iterator_tagE, symObjAddr: 0x19B0, symBinAddr: 0x100006844, symSize: 0x30 }
  - { offsetInCU: 0x6245, offset: 0x238C8, size: 0x8, addend: 0x0, symName: __ZNSt3__122__make_exception_guardB8ue170006INS_6vectorI11RenderChunkNS_9allocatorIS2_EEE16__destroy_vectorEEENS_28__exception_guard_exceptionsIT_EES8_, symObjAddr: 0x20FC, symBinAddr: 0x100006E88, symSize: 0x40 }
  - { offsetInCU: 0x627A, offset: 0x238FD, size: 0x8, addend: 0x0, symName: __ZNSt3__119__allocate_at_leastB8ue170006INS_9allocatorI11RenderChunkEEEENS_19__allocation_resultINS_16allocator_traitsIT_E7pointerEEERS6_m, symObjAddr: 0x23E4, symBinAddr: 0x100007170, symSize: 0x40 }
  - { offsetInCU: 0x62BD, offset: 0x23940, size: 0x8, addend: 0x0, symName: __ZNSt3__112__to_addressB8ue170006I11RenderChunkEEPT_S3_, symObjAddr: 0x2698, symBinAddr: 0x100007424, symSize: 0x14 }
  - { offsetInCU: 0x62F2, offset: 0x23975, size: 0x8, addend: 0x0, symName: __ZNSt3__130__uninitialized_allocator_copyB8ue170006INS_9allocatorI11RenderChunkEEPS2_S4_S4_EET2_RT_T0_T1_S5_, symObjAddr: 0x2748, symBinAddr: 0x1000074D4, symSize: 0x80 }
  - { offsetInCU: 0x638F, offset: 0x23A12, size: 0x8, addend: 0x0, symName: __ZNSt3__114__unwrap_rangeB8ue170006IP11RenderChunkS2_EEDaT_T0_, symObjAddr: 0x2838, symBinAddr: 0x1000075C4, symSize: 0x3C }
  - { offsetInCU: 0x63DB, offset: 0x23A5E, size: 0x8, addend: 0x0, symName: __ZNSt3__135__uninitialized_allocator_copy_implB8ue170006INS_9allocatorI11RenderChunkEEPS2_S4_S4_EET2_RT_T0_T1_S5_, symObjAddr: 0x2874, symBinAddr: 0x100007600, symSize: 0xF4 }
  - { offsetInCU: 0x6479, offset: 0x23AFC, size: 0x8, addend: 0x0, symName: __ZNSt3__113__unwrap_iterB8ue170006IP11RenderChunkNS_18__unwrap_iter_implIS2_Lb1EEELi0EEEDTclsrT0_8__unwrapclsr3stdE7declvalIT_EEEES6_, symObjAddr: 0x2968, symBinAddr: 0x1000076F4, symSize: 0x24 }
  - { offsetInCU: 0x64BD, offset: 0x23B40, size: 0x8, addend: 0x0, symName: __ZNSt3__113__rewrap_iterB8ue170006IP11RenderChunkS2_NS_18__unwrap_iter_implIS2_Lb1EEEEET_S5_T0_, symObjAddr: 0x298C, symBinAddr: 0x100007718, symSize: 0x3C }
  - { offsetInCU: 0x6615, offset: 0x23C98, size: 0x8, addend: 0x0, symName: __ZNSt3__122__make_exception_guardB8ue170006INS_29_AllocatorDestroyRangeReverseINS_9allocatorI11RenderChunkEEPS3_EEEENS_28__exception_guard_exceptionsIT_EES8_, symObjAddr: 0x2A90, symBinAddr: 0x10000781C, symSize: 0x4C }
  - { offsetInCU: 0x6672, offset: 0x23CF5, size: 0x8, addend: 0x0, symName: __ZNSt3__112construct_atB8ue170006I11RenderChunkJRS1_EPS1_EEPT_S5_DpOT0_, symObjAddr: 0x2C34, symBinAddr: 0x1000079C0, symSize: 0x3C }
  - { offsetInCU: 0x66E4, offset: 0x23D67, size: 0x8, addend: 0x0, symName: __ZNSt3__119__allocator_destroyB8ue170006INS_9allocatorI11RenderChunkEENS_16reverse_iteratorIPS2_EES6_EEvRT_T0_T1_, symObjAddr: 0x2D28, symBinAddr: 0x100007AB4, symSize: 0x70 }
  - { offsetInCU: 0x6747, offset: 0x23DCA, size: 0x8, addend: 0x0, symName: __ZNSt3__1neB8ue170006IP11RenderChunkS2_EEbRKNS_16reverse_iteratorIT_EERKNS3_IT0_EE, symObjAddr: 0x2DCC, symBinAddr: 0x100007B58, symSize: 0x48 }
  - { offsetInCU: 0x6793, offset: 0x23E16, size: 0x8, addend: 0x0, symName: __ZNSt3__112__to_addressB8ue170006INS_16reverse_iteratorIP11RenderChunkEEvEEu7__decayIDTclsr19__to_address_helperIT_EE6__callclsr3stdE7declvalIRKS5_EEEEES7_, symObjAddr: 0x2E3C, symBinAddr: 0x100007BC8, symSize: 0x24 }
  - { offsetInCU: 0x67C9, offset: 0x23E4C, size: 0x8, addend: 0x0, symName: __ZNSt3__110destroy_atB8ue170006I11RenderChunkLi0EEEvPT_, symObjAddr: 0x2E98, symBinAddr: 0x100007C24, symSize: 0x24 }
  - { offsetInCU: 0x6800, offset: 0x23E83, size: 0x8, addend: 0x0, symName: __ZNSt3__112__destroy_atB8ue170006I11RenderChunkLi0EEEvPT_, symObjAddr: 0x2EBC, symBinAddr: 0x100007C48, symSize: 0x24 }
  - { offsetInCU: 0x6861, offset: 0x23EE4, size: 0x8, addend: 0x0, symName: __ZNSt3__14prevB8ue170006IP11RenderChunkEENS_9enable_ifIXsr29__has_input_iterator_categoryIT_EE5valueES4_E4typeES4_NS_15iterator_traitsIS4_E15difference_typeE, symObjAddr: 0x2F9C, symBinAddr: 0x100007D28, symSize: 0x3C }
  - { offsetInCU: 0x68A4, offset: 0x23F27, size: 0x8, addend: 0x0, symName: __ZNSt3__19__advanceB8ue170006IP11RenderChunkEEvRT_NS_15iterator_traitsIS3_E15difference_typeENS_26random_access_iterator_tagE, symObjAddr: 0x3010, symBinAddr: 0x100007D9C, symSize: 0x28 }
  - { offsetInCU: 0x6941, offset: 0x23FC4, size: 0x8, addend: 0x0, symName: __ZNSt3__120__throw_out_of_rangeB8ue170006EPKc, symObjAddr: 0x3450, symBinAddr: 0x1000081DC, symSize: 0x64 }
  - { offsetInCU: 0x6D0F, offset: 0x24392, size: 0x8, addend: 0x0, symName: __ZSt28__throw_bad_array_new_lengthB8ue170006v, symObjAddr: 0xE78, symBinAddr: 0x100005D2C, symSize: 0x34 }
  - { offsetInCU: 0x90E2, offset: 0x26765, size: 0x8, addend: 0x0, symName: __ZN10RenderInfoC2ENSt3__16vectorINS1_I11RenderChunkNS0_9allocatorIS2_EEEENS3_IS5_EEEES7_S5_iS5_8Positionb, symObjAddr: 0x0, symBinAddr: 0x100004EC0, symSize: 0x118 }
  - { offsetInCU: 0x9175, offset: 0x267F8, size: 0x8, addend: 0x0, symName: __ZNSt3__16vectorINS0_I11RenderChunkNS_9allocatorIS1_EEEENS2_IS4_EEEC1ERKS6_, symObjAddr: 0x118, symBinAddr: 0x100004FD8, symSize: 0x34 }
  - { offsetInCU: 0x91B0, offset: 0x26833, size: 0x8, addend: 0x0, symName: __ZNSt3__16vectorI11RenderChunkNS_9allocatorIS1_EEEC1ERKS4_, symObjAddr: 0x14C, symBinAddr: 0x10000500C, symSize: 0x34 }
  - { offsetInCU: 0x91EB, offset: 0x2686E, size: 0x8, addend: 0x0, symName: __ZNSt3__16vectorI11RenderChunkNS_9allocatorIS1_EEED1B8ue170006Ev, symObjAddr: 0x180, symBinAddr: 0x100005040, symSize: 0x2C }
  - { offsetInCU: 0x9215, offset: 0x26898, size: 0x8, addend: 0x0, symName: __ZNSt3__16vectorINS0_I11RenderChunkNS_9allocatorIS1_EEEENS2_IS4_EEED1B8ue170006Ev, symObjAddr: 0x1AC, symBinAddr: 0x10000506C, symSize: 0x2C }
  - { offsetInCU: 0x923E, offset: 0x268C1, size: 0x8, addend: 0x0, symName: __ZN10RenderInfoC1ENSt3__16vectorINS1_I11RenderChunkNS0_9allocatorIS2_EEEENS3_IS5_EEEES7_S5_iS5_8Positionb, symObjAddr: 0x1D8, symBinAddr: 0x100005098, symSize: 0x70 }
  - { offsetInCU: 0x92D1, offset: 0x26954, size: 0x8, addend: 0x0, symName: __ZNK10RenderInfo14getTextAreaRowEi, symObjAddr: 0x248, symBinAddr: 0x100005108, symSize: 0x2C }
  - { offsetInCU: 0x9307, offset: 0x2698A, size: 0x8, addend: 0x0, symName: __ZNKSt3__16vectorINS0_I11RenderChunkNS_9allocatorIS1_EEEENS2_IS4_EEE2atEm, symObjAddr: 0x274, symBinAddr: 0x100005134, symSize: 0x68 }
  - { offsetInCU: 0x933E, offset: 0x269C1, size: 0x8, addend: 0x0, symName: __ZNK10RenderInfo19getTextAreaRowCountEv, symObjAddr: 0x2DC, symBinAddr: 0x10000519C, symSize: 0x24 }
  - { offsetInCU: 0x9366, offset: 0x269E9, size: 0x8, addend: 0x0, symName: __ZNKSt3__16vectorINS0_I11RenderChunkNS_9allocatorIS1_EEEENS2_IS4_EEE4sizeB8ue170006Ev, symObjAddr: 0x300, symBinAddr: 0x1000051C0, symSize: 0x28 }
  - { offsetInCU: 0x938C, offset: 0x26A0F, size: 0x8, addend: 0x0, symName: __ZNK10RenderInfo11getPanelRowEi, symObjAddr: 0x328, symBinAddr: 0x1000051E8, symSize: 0x30 }
  - { offsetInCU: 0x93C2, offset: 0x26A45, size: 0x8, addend: 0x0, symName: __ZNK10RenderInfo16getPanelRowCountEv, symObjAddr: 0x358, symBinAddr: 0x100005218, symSize: 0x28 }
  - { offsetInCU: 0x93EA, offset: 0x26A6D, size: 0x8, addend: 0x0, symName: __ZNK10RenderInfo11getAsideRowEi, symObjAddr: 0x380, symBinAddr: 0x100005240, symSize: 0x44 }
  - { offsetInCU: 0x9420, offset: 0x26AA3, size: 0x8, addend: 0x0, symName: __ZNKSt3__16vectorI11RenderChunkNS_9allocatorIS1_EEE2atEm, symObjAddr: 0x3C4, symBinAddr: 0x100005284, symSize: 0x60 }
  - { offsetInCU: 0x9460, offset: 0x26AE3, size: 0x8, addend: 0x0, symName: __ZN11RenderChunkC1ERKS_, symObjAddr: 0x424, symBinAddr: 0x1000052E4, symSize: 0x34 }
  - { offsetInCU: 0x9496, offset: 0x26B19, size: 0x8, addend: 0x0, symName: __ZNK10RenderInfo16getAsideRowCountEv, symObjAddr: 0x458, symBinAddr: 0x100005318, symSize: 0x28 }
  - { offsetInCU: 0x94BE, offset: 0x26B41, size: 0x8, addend: 0x0, symName: __ZNKSt3__16vectorI11RenderChunkNS_9allocatorIS1_EEE4sizeB8ue170006Ev, symObjAddr: 0x480, symBinAddr: 0x100005340, symSize: 0x28 }
  - { offsetInCU: 0x94E4, offset: 0x26B67, size: 0x8, addend: 0x0, symName: __ZNK10RenderInfo13getAsideWidthEv, symObjAddr: 0x4A8, symBinAddr: 0x100005368, symSize: 0x18 }
  - { offsetInCU: 0x950C, offset: 0x26B8F, size: 0x8, addend: 0x0, symName: __ZNK10RenderInfo13getOverlayRowEi, symObjAddr: 0x4C0, symBinAddr: 0x100005380, symSize: 0x44 }
  - { offsetInCU: 0x9542, offset: 0x26BC5, size: 0x8, addend: 0x0, symName: __ZNK10RenderInfo18getOverlayRowCountEv, symObjAddr: 0x504, symBinAddr: 0x1000053C4, symSize: 0x28 }
  - { offsetInCU: 0x956A, offset: 0x26BED, size: 0x8, addend: 0x0, symName: __ZNK10RenderInfo18shouldRenderColorsEv, symObjAddr: 0x52C, symBinAddr: 0x1000053EC, symSize: 0x1C }
  - { offsetInCU: 0x9592, offset: 0x26C15, size: 0x8, addend: 0x0, symName: __ZNK10RenderInfo17getCursorPositionEv, symObjAddr: 0x548, symBinAddr: 0x100005408, symSize: 0x18 }
  - { offsetInCU: 0x95B9, offset: 0x26C3C, size: 0x8, addend: 0x0, symName: __ZNSt3__16vectorINS0_I11RenderChunkNS_9allocatorIS1_EEEENS2_IS4_EEEC2ERKS6_, symObjAddr: 0x560, symBinAddr: 0x100005420, symSize: 0x94 }
  - { offsetInCU: 0x95FE, offset: 0x26C81, size: 0x8, addend: 0x0, symName: __ZNSt3__116allocator_traitsINS_9allocatorINS_6vectorI11RenderChunkNS1_IS3_EEEEEEE37select_on_container_copy_constructionB8ue170006IS6_vvEES6_RKS6_, symObjAddr: 0x5F4, symBinAddr: 0x1000054B4, symSize: 0x10 }
  - { offsetInCU: 0x962D, offset: 0x26CB0, size: 0x8, addend: 0x0, symName: __ZNKSt3__16vectorINS0_I11RenderChunkNS_9allocatorIS1_EEEENS2_IS4_EEE7__allocB8ue170006Ev, symObjAddr: 0x604, symBinAddr: 0x1000054C4, symSize: 0x28 }
  - { offsetInCU: 0x965D, offset: 0x26CE0, size: 0x8, addend: 0x0, symName: __ZNSt3__117__compressed_pairIPNS_6vectorI11RenderChunkNS_9allocatorIS2_EEEENS3_IS5_EEEC1B8ue170006IDnS7_EEOT_OT0_, symObjAddr: 0x62C, symBinAddr: 0x1000054EC, symSize: 0x3C }
  - { offsetInCU: 0x96B5, offset: 0x26D38, size: 0x8, addend: 0x0, symName: __ZNSt3__16vectorINS0_I11RenderChunkNS_9allocatorIS1_EEEENS2_IS4_EEE16__init_with_sizeB8ue170006IPS4_S8_EEvT_T0_m, symObjAddr: 0x668, symBinAddr: 0x100005528, symSize: 0xB8 }
  - { offsetInCU: 0x9729, offset: 0x26DAC, size: 0x8, addend: 0x0, symName: __ZNKSt3__117__compressed_pairIPNS_6vectorI11RenderChunkNS_9allocatorIS2_EEEENS3_IS5_EEE6secondB8ue170006Ev, symObjAddr: 0x720, symBinAddr: 0x1000055E0, symSize: 0x24 }
  - { offsetInCU: 0x974F, offset: 0x26DD2, size: 0x8, addend: 0x0, symName: __ZNKSt3__122__compressed_pair_elemINS_9allocatorINS_6vectorI11RenderChunkNS1_IS3_EEEEEELi1ELb1EE5__getB8ue170006Ev, symObjAddr: 0x744, symBinAddr: 0x100005604, symSize: 0x14 }
  - { offsetInCU: 0x9775, offset: 0x26DF8, size: 0x8, addend: 0x0, symName: __ZNSt3__117__compressed_pairIPNS_6vectorI11RenderChunkNS_9allocatorIS2_EEEENS3_IS5_EEEC2B8ue170006IDnS7_EEOT_OT0_, symObjAddr: 0x758, symBinAddr: 0x100005618, symSize: 0x44 }
  - { offsetInCU: 0x97CD, offset: 0x26E50, size: 0x8, addend: 0x0, symName: __ZNSt3__122__compressed_pair_elemIPNS_6vectorI11RenderChunkNS_9allocatorIS2_EEEELi0ELb0EEC2B8ue170006IDnvEEOT_, symObjAddr: 0x79C, symBinAddr: 0x10000565C, symSize: 0x1C }
  - { offsetInCU: 0x980F, offset: 0x26E92, size: 0x8, addend: 0x0, symName: __ZNSt3__122__compressed_pair_elemINS_9allocatorINS_6vectorI11RenderChunkNS1_IS3_EEEEEELi1ELb1EEC2B8ue170006IS6_vEEOT_, symObjAddr: 0x7B8, symBinAddr: 0x100005678, symSize: 0x18 }
  - { offsetInCU: 0x9851, offset: 0x26ED4, size: 0x8, addend: 0x0, symName: __ZNSt3__16vectorINS0_I11RenderChunkNS_9allocatorIS1_EEEENS2_IS4_EEE16__destroy_vectorC1B8ue170006ERS6_, symObjAddr: 0x810, symBinAddr: 0x1000056D0, symSize: 0x34 }
  - { offsetInCU: 0x988A, offset: 0x26F0D, size: 0x8, addend: 0x0, symName: __ZNSt3__16vectorINS0_I11RenderChunkNS_9allocatorIS1_EEEENS2_IS4_EEE11__vallocateB8ue170006Em, symObjAddr: 0x844, symBinAddr: 0x100005704, symSize: 0xB4 }
  - { offsetInCU: 0x98CE, offset: 0x26F51, size: 0x8, addend: 0x0, symName: __ZNSt3__16vectorINS0_I11RenderChunkNS_9allocatorIS1_EEEENS2_IS4_EEE18__construct_at_endIPS4_S8_EEvT_T0_m, symObjAddr: 0x8F8, symBinAddr: 0x1000057B8, symSize: 0x8C }
  - { offsetInCU: 0x9944, offset: 0x26FC7, size: 0x8, addend: 0x0, symName: __ZNSt3__128__exception_guard_exceptionsINS_6vectorINS1_I11RenderChunkNS_9allocatorIS2_EEEENS3_IS5_EEE16__destroy_vectorEE10__completeB8ue170006Ev, symObjAddr: 0x984, symBinAddr: 0x100005844, symSize: 0x1C }
  - { offsetInCU: 0x996A, offset: 0x26FED, size: 0x8, addend: 0x0, symName: __ZNSt3__128__exception_guard_exceptionsINS_6vectorINS1_I11RenderChunkNS_9allocatorIS2_EEEENS3_IS5_EEE16__destroy_vectorEED1B8ue170006Ev, symObjAddr: 0x9A0, symBinAddr: 0x100005860, symSize: 0x2C }
  - { offsetInCU: 0x9994, offset: 0x27017, size: 0x8, addend: 0x0, symName: __ZNSt3__128__exception_guard_exceptionsINS_6vectorINS1_I11RenderChunkNS_9allocatorIS2_EEEENS3_IS5_EEE16__destroy_vectorEEC1B8ue170006ES8_, symObjAddr: 0x9CC, symBinAddr: 0x10000588C, symSize: 0x34 }
  - { offsetInCU: 0x99CC, offset: 0x2704F, size: 0x8, addend: 0x0, symName: __ZNSt3__128__exception_guard_exceptionsINS_6vectorINS1_I11RenderChunkNS_9allocatorIS2_EEEENS3_IS5_EEE16__destroy_vectorEEC2B8ue170006ES8_, symObjAddr: 0xA00, symBinAddr: 0x1000058C0, symSize: 0x24 }
  - { offsetInCU: 0x9A04, offset: 0x27087, size: 0x8, addend: 0x0, symName: __ZNSt3__16vectorINS0_I11RenderChunkNS_9allocatorIS1_EEEENS2_IS4_EEE16__destroy_vectorC2B8ue170006ERS6_, symObjAddr: 0xA24, symBinAddr: 0x1000058E4, symSize: 0x20 }
  - { offsetInCU: 0x9A3D, offset: 0x270C0, size: 0x8, addend: 0x0, symName: __ZNKSt3__16vectorINS0_I11RenderChunkNS_9allocatorIS1_EEEENS2_IS4_EEE8max_sizeEv, symObjAddr: 0xA44, symBinAddr: 0x100005904, symSize: 0x60 }
  - { offsetInCU: 0x9A65, offset: 0x270E8, size: 0x8, addend: 0x0, symName: __ZNKSt3__16vectorINS0_I11RenderChunkNS_9allocatorIS1_EEEENS2_IS4_EEE20__throw_length_errorB8ue170006Ev, symObjAddr: 0xAA4, symBinAddr: 0x100005964, symSize: 0x1C }
  - { offsetInCU: 0x9A8B, offset: 0x2710E, size: 0x8, addend: 0x0, symName: __ZNSt3__16vectorINS0_I11RenderChunkNS_9allocatorIS1_EEEENS2_IS4_EEE7__allocB8ue170006Ev, symObjAddr: 0xB00, symBinAddr: 0x1000059C0, symSize: 0x28 }
  - { offsetInCU: 0x9AB1, offset: 0x27134, size: 0x8, addend: 0x0, symName: __ZNSt3__16vectorINS0_I11RenderChunkNS_9allocatorIS1_EEEENS2_IS4_EEE9__end_capB8ue170006Ev, symObjAddr: 0xB28, symBinAddr: 0x1000059E8, symSize: 0x28 }
  - { offsetInCU: 0x9AD7, offset: 0x2715A, size: 0x8, addend: 0x0, symName: __ZNKSt3__16vectorINS0_I11RenderChunkNS_9allocatorIS1_EEEENS2_IS4_EEE14__annotate_newB8ue170006Em, symObjAddr: 0xB50, symBinAddr: 0x100005A10, symSize: 0xC8 }
  - { offsetInCU: 0x9B0C, offset: 0x2718F, size: 0x8, addend: 0x0, symName: __ZNSt3__116allocator_traitsINS_9allocatorINS_6vectorI11RenderChunkNS1_IS3_EEEEEEE8max_sizeB8ue170006IS6_vvEEmRKS6_, symObjAddr: 0xC44, symBinAddr: 0x100005B04, symSize: 0x28 }
  - { offsetInCU: 0x9B38, offset: 0x271BB, size: 0x8, addend: 0x0, symName: __ZNSt3__114numeric_limitsIlE3maxB8ue170006Ev, symObjAddr: 0xC6C, symBinAddr: 0x100005B2C, symSize: 0x14 }
  - { offsetInCU: 0x9B60, offset: 0x271E3, size: 0x8, addend: 0x0, symName: __ZNKSt3__16__lessIvvEclB8ue170006ImmEEbRKT_RKT0_, symObjAddr: 0xCE0, symBinAddr: 0x100005B94, symSize: 0x34 }
  - { offsetInCU: 0x9BB4, offset: 0x27237, size: 0x8, addend: 0x0, symName: __ZNSt3__114numeric_limitsImE3maxB8ue170006Ev, symObjAddr: 0xD14, symBinAddr: 0x100005BC8, symSize: 0x14 }
  - { offsetInCU: 0x9BC8, offset: 0x2724B, size: 0x8, addend: 0x0, symName: __ZNSt3__123__libcpp_numeric_limitsImLb1EE3maxB8ue170006Ev, symObjAddr: 0xD28, symBinAddr: 0x100005BDC, symSize: 0x8 }
  - { offsetInCU: 0x9BDC, offset: 0x2725F, size: 0x8, addend: 0x0, symName: __ZNSt3__123__libcpp_numeric_limitsIlLb1EE3maxB8ue170006Ev, symObjAddr: 0xD30, symBinAddr: 0x100005BE4, symSize: 0x8 }
  - { offsetInCU: 0x9BF0, offset: 0x27273, size: 0x8, addend: 0x0, symName: __ZNSt12length_errorC1B8ue170006EPKc, symObjAddr: 0xD9C, symBinAddr: 0x100005C50, symSize: 0x34 }
  - { offsetInCU: 0x9C28, offset: 0x272AB, size: 0x8, addend: 0x0, symName: __ZNSt12length_errorC2B8ue170006EPKc, symObjAddr: 0xDD0, symBinAddr: 0x100005C84, symSize: 0x4C }
  - { offsetInCU: 0x9C60, offset: 0x272E3, size: 0x8, addend: 0x0, symName: __ZNSt3__19allocatorINS_6vectorI11RenderChunkNS0_IS2_EEEEE8allocateB8ue170006Em, symObjAddr: 0xE1C, symBinAddr: 0x100005CD0, symSize: 0x5C }
  - { offsetInCU: 0x9C94, offset: 0x27317, size: 0x8, addend: 0x0, symName: __ZNSt3__117__compressed_pairIPNS_6vectorI11RenderChunkNS_9allocatorIS2_EEEENS3_IS5_EEE6secondB8ue170006Ev, symObjAddr: 0xF7C, symBinAddr: 0x100005E10, symSize: 0x24 }
  - { offsetInCU: 0x9CBA, offset: 0x2733D, size: 0x8, addend: 0x0, symName: __ZNSt3__122__compressed_pair_elemINS_9allocatorINS_6vectorI11RenderChunkNS1_IS3_EEEEEELi1ELb1EE5__getB8ue170006Ev, symObjAddr: 0xFA0, symBinAddr: 0x100005E34, symSize: 0x14 }
  - { offsetInCU: 0x9CE0, offset: 0x27363, size: 0x8, addend: 0x0, symName: __ZNSt3__117__compressed_pairIPNS_6vectorI11RenderChunkNS_9allocatorIS2_EEEENS3_IS5_EEE5firstB8ue170006Ev, symObjAddr: 0xFB4, symBinAddr: 0x100005E48, symSize: 0x24 }
  - { offsetInCU: 0x9D06, offset: 0x27389, size: 0x8, addend: 0x0, symName: __ZNSt3__122__compressed_pair_elemIPNS_6vectorI11RenderChunkNS_9allocatorIS2_EEEELi0ELb0EE5__getB8ue170006Ev, symObjAddr: 0xFD8, symBinAddr: 0x100005E6C, symSize: 0x14 }
  - { offsetInCU: 0x9D2C, offset: 0x273AF, size: 0x8, addend: 0x0, symName: __ZNKSt3__16vectorINS0_I11RenderChunkNS_9allocatorIS1_EEEENS2_IS4_EEE31__annotate_contiguous_containerB8ue170006EPKvS8_S8_S8_, symObjAddr: 0xFEC, symBinAddr: 0x100005E80, symSize: 0x20 }
  - { offsetInCU: 0x9D82, offset: 0x27405, size: 0x8, addend: 0x0, symName: __ZNKSt3__16vectorINS0_I11RenderChunkNS_9allocatorIS1_EEEENS2_IS4_EEE4dataB8ue170006Ev, symObjAddr: 0x100C, symBinAddr: 0x100005EA0, symSize: 0x28 }
  - { offsetInCU: 0x9DA8, offset: 0x2742B, size: 0x8, addend: 0x0, symName: __ZNKSt3__16vectorINS0_I11RenderChunkNS_9allocatorIS1_EEEENS2_IS4_EEE8capacityB8ue170006Ev, symObjAddr: 0x1034, symBinAddr: 0x100005EC8, symSize: 0x40 }
  - { offsetInCU: 0x9DCE, offset: 0x27451, size: 0x8, addend: 0x0, symName: __ZNKSt3__16vectorINS0_I11RenderChunkNS_9allocatorIS1_EEEENS2_IS4_EEE9__end_capB8ue170006Ev, symObjAddr: 0x1088, symBinAddr: 0x100005F1C, symSize: 0x28 }
  - { offsetInCU: 0x9DF4, offset: 0x27477, size: 0x8, addend: 0x0, symName: __ZNKSt3__117__compressed_pairIPNS_6vectorI11RenderChunkNS_9allocatorIS2_EEEENS3_IS5_EEE5firstB8ue170006Ev, symObjAddr: 0x10B0, symBinAddr: 0x100005F44, symSize: 0x24 }
  - { offsetInCU: 0x9E1A, offset: 0x2749D, size: 0x8, addend: 0x0, symName: __ZNKSt3__122__compressed_pair_elemIPNS_6vectorI11RenderChunkNS_9allocatorIS2_EEEELi0ELb0EE5__getB8ue170006Ev, symObjAddr: 0x10D4, symBinAddr: 0x100005F68, symSize: 0x14 }
  - { offsetInCU: 0x9E59, offset: 0x274DC, size: 0x8, addend: 0x0, symName: __ZNSt3__16vectorINS0_I11RenderChunkNS_9allocatorIS1_EEEENS2_IS4_EEE21_ConstructTransactionC1B8ue170006ERS6_m, symObjAddr: 0x10E8, symBinAddr: 0x100005F7C, symSize: 0x3C }
  - { offsetInCU: 0x9EA1, offset: 0x27524, size: 0x8, addend: 0x0, symName: __ZNSt3__16vectorINS0_I11RenderChunkNS_9allocatorIS1_EEEENS2_IS4_EEE21_ConstructTransactionD1B8ue170006Ev, symObjAddr: 0x11A4, symBinAddr: 0x100006038, symSize: 0x2C }
  - { offsetInCU: 0x9ECB, offset: 0x2754E, size: 0x8, addend: 0x0, symName: __ZNSt3__16vectorINS0_I11RenderChunkNS_9allocatorIS1_EEEENS2_IS4_EEE21_ConstructTransactionC2B8ue170006ERS6_m, symObjAddr: 0x11D0, symBinAddr: 0x100006064, symSize: 0x4C }
  - { offsetInCU: 0x9F2C, offset: 0x275AF, size: 0x8, addend: 0x0, symName: __ZNSt3__119__unwrap_range_implIPNS_6vectorI11RenderChunkNS_9allocatorIS2_EEEES6_E8__unwrapB8ue170006ES6_S6_, symObjAddr: 0x13AC, symBinAddr: 0x100006240, symSize: 0x58 }
  - { offsetInCU: 0x9F62, offset: 0x275E5, size: 0x8, addend: 0x0, symName: __ZNSt3__14pairIPNS_6vectorI11RenderChunkNS_9allocatorIS2_EEEES6_EC1B8ue170006IS6_S6_LPv0EEEOT_OT0_, symObjAddr: 0x1404, symBinAddr: 0x100006298, symSize: 0x3C }
  - { offsetInCU: 0x9FC1, offset: 0x27644, size: 0x8, addend: 0x0, symName: __ZNSt3__14pairIPNS_6vectorI11RenderChunkNS_9allocatorIS2_EEEES6_EC2B8ue170006IS6_S6_LPv0EEEOT_OT0_, symObjAddr: 0x1440, symBinAddr: 0x1000062D4, symSize: 0x34 }
  - { offsetInCU: 0xA020, offset: 0x276A3, size: 0x8, addend: 0x0, symName: __ZNSt3__129_AllocatorDestroyRangeReverseINS_9allocatorINS_6vectorI11RenderChunkNS1_IS3_EEEEEEPS5_EC1B8ue170006ERS6_RS7_SA_, symObjAddr: 0x14C0, symBinAddr: 0x100006354, symSize: 0x44 }
  - { offsetInCU: 0xA077, offset: 0x276FA, size: 0x8, addend: 0x0, symName: __ZNSt3__116allocator_traitsINS_9allocatorINS_6vectorI11RenderChunkNS1_IS3_EEEEEEE9constructB8ue170006IS5_JRS5_EvvEEvRS6_PT_DpOT0_, symObjAddr: 0x1504, symBinAddr: 0x100006398, symSize: 0x30 }
  - { offsetInCU: 0xA0CC, offset: 0x2774F, size: 0x8, addend: 0x0, symName: __ZNSt3__128__exception_guard_exceptionsINS_29_AllocatorDestroyRangeReverseINS_9allocatorINS_6vectorI11RenderChunkNS2_IS4_EEEEEEPS6_EEE10__completeB8ue170006Ev, symObjAddr: 0x1534, symBinAddr: 0x1000063C8, symSize: 0x1C }
  - { offsetInCU: 0xA0F2, offset: 0x27775, size: 0x8, addend: 0x0, symName: __ZNSt3__128__exception_guard_exceptionsINS_29_AllocatorDestroyRangeReverseINS_9allocatorINS_6vectorI11RenderChunkNS2_IS4_EEEEEEPS6_EEED1B8ue170006Ev, symObjAddr: 0x1550, symBinAddr: 0x1000063E4, symSize: 0x2C }
  - { offsetInCU: 0xA11C, offset: 0x2779F, size: 0x8, addend: 0x0, symName: __ZNSt3__128__exception_guard_exceptionsINS_29_AllocatorDestroyRangeReverseINS_9allocatorINS_6vectorI11RenderChunkNS2_IS4_EEEEEEPS6_EEEC1B8ue170006ES9_, symObjAddr: 0x157C, symBinAddr: 0x100006410, symSize: 0x34 }
  - { offsetInCU: 0xA155, offset: 0x277D8, size: 0x8, addend: 0x0, symName: __ZNSt3__128__exception_guard_exceptionsINS_29_AllocatorDestroyRangeReverseINS_9allocatorINS_6vectorI11RenderChunkNS2_IS4_EEEEEEPS6_EEEC2B8ue170006ES9_, symObjAddr: 0x15B0, symBinAddr: 0x100006444, symSize: 0x30 }
  - { offsetInCU: 0xA18E, offset: 0x27811, size: 0x8, addend: 0x0, symName: __ZNSt3__129_AllocatorDestroyRangeReverseINS_9allocatorINS_6vectorI11RenderChunkNS1_IS3_EEEEEEPS5_EC2B8ue170006ERS6_RS7_SA_, symObjAddr: 0x15E0, symBinAddr: 0x100006474, symSize: 0x38 }
  - { offsetInCU: 0xA1E5, offset: 0x27868, size: 0x8, addend: 0x0, symName: __ZNSt3__128__exception_guard_exceptionsINS_29_AllocatorDestroyRangeReverseINS_9allocatorINS_6vectorI11RenderChunkNS2_IS4_EEEEEEPS6_EEED2B8ue170006Ev, symObjAddr: 0x1654, symBinAddr: 0x1000064E8, symSize: 0x50 }
  - { offsetInCU: 0xA20F, offset: 0x27892, size: 0x8, addend: 0x0, symName: __ZNKSt3__129_AllocatorDestroyRangeReverseINS_9allocatorINS_6vectorI11RenderChunkNS1_IS3_EEEEEEPS5_EclB8ue170006Ev, symObjAddr: 0x16A4, symBinAddr: 0x100006538, symSize: 0x68 }
  - { offsetInCU: 0xA235, offset: 0x278B8, size: 0x8, addend: 0x0, symName: __ZNSt3__116reverse_iteratorIPNS_6vectorI11RenderChunkNS_9allocatorIS2_EEEEEC1B8ue170006ES6_, symObjAddr: 0x177C, symBinAddr: 0x100006610, symSize: 0x34 }
  - { offsetInCU: 0xA26D, offset: 0x278F0, size: 0x8, addend: 0x0, symName: __ZNSt3__116allocator_traitsINS_9allocatorINS_6vectorI11RenderChunkNS1_IS3_EEEEEEE7destroyB8ue170006IS5_vvEEvRS6_PT_, symObjAddr: 0x17F8, symBinAddr: 0x10000668C, symSize: 0x28 }
  - { offsetInCU: 0xA2A8, offset: 0x2792B, size: 0x8, addend: 0x0, symName: __ZNSt3__116reverse_iteratorIPNS_6vectorI11RenderChunkNS_9allocatorIS2_EEEEEppB8ue170006Ev, symObjAddr: 0x1844, symBinAddr: 0x1000066D8, symSize: 0x20 }
  - { offsetInCU: 0xA2CE, offset: 0x27951, size: 0x8, addend: 0x0, symName: __ZNKSt3__116reverse_iteratorIPNS_6vectorI11RenderChunkNS_9allocatorIS2_EEEEE4baseB8ue170006Ev, symObjAddr: 0x1864, symBinAddr: 0x1000066F8, symSize: 0x18 }
  - { offsetInCU: 0xA2F9, offset: 0x2797C, size: 0x8, addend: 0x0, symName: __ZNSt3__119__to_address_helperINS_16reverse_iteratorIPNS_6vectorI11RenderChunkNS_9allocatorIS3_EEEEEEvE6__callB8ue170006ERKS8_, symObjAddr: 0x18C4, symBinAddr: 0x100006758, symSize: 0x38 }
  - { offsetInCU: 0xA31C, offset: 0x2799F, size: 0x8, addend: 0x0, symName: __ZNKSt3__116reverse_iteratorIPNS_6vectorI11RenderChunkNS_9allocatorIS2_EEEEEptB8ue170006Ev, symObjAddr: 0x18FC, symBinAddr: 0x100006790, symSize: 0x2C }
  - { offsetInCU: 0xA342, offset: 0x279C5, size: 0x8, addend: 0x0, symName: __ZNSt3__116reverse_iteratorIPNS_6vectorI11RenderChunkNS_9allocatorIS2_EEEEEC2B8ue170006ES6_, symObjAddr: 0x19E0, symBinAddr: 0x100006874, symSize: 0x28 }
  - { offsetInCU: 0xA37A, offset: 0x279FD, size: 0x8, addend: 0x0, symName: __ZNSt3__118__unwrap_iter_implIPNS_6vectorI11RenderChunkNS_9allocatorIS2_EEEELb1EE8__unwrapB8ue170006ES6_, symObjAddr: 0x1A08, symBinAddr: 0x10000689C, symSize: 0x24 }
  - { offsetInCU: 0xA39D, offset: 0x27A20, size: 0x8, addend: 0x0, symName: __ZNSt3__118__unwrap_iter_implIPNS_6vectorI11RenderChunkNS_9allocatorIS2_EEEELb1EE8__rewrapB8ue170006ES6_S6_, symObjAddr: 0x1A2C, symBinAddr: 0x1000068C0, symSize: 0x58 }
  - { offsetInCU: 0xA3CE, offset: 0x27A51, size: 0x8, addend: 0x0, symName: __ZNSt3__16vectorINS0_I11RenderChunkNS_9allocatorIS1_EEEENS2_IS4_EEE21_ConstructTransactionD2B8ue170006Ev, symObjAddr: 0x1A84, symBinAddr: 0x100006918, symSize: 0x20 }
  - { offsetInCU: 0xA3F8, offset: 0x27A7B, size: 0x8, addend: 0x0, symName: __ZNSt3__128__exception_guard_exceptionsINS_6vectorINS1_I11RenderChunkNS_9allocatorIS2_EEEENS3_IS5_EEE16__destroy_vectorEED2B8ue170006Ev, symObjAddr: 0x1AA4, symBinAddr: 0x100006938, symSize: 0x50 }
  - { offsetInCU: 0xA422, offset: 0x27AA5, size: 0x8, addend: 0x0, symName: __ZNSt3__16vectorINS0_I11RenderChunkNS_9allocatorIS1_EEEENS2_IS4_EEE16__destroy_vectorclB8ue170006Ev, symObjAddr: 0x1AF4, symBinAddr: 0x100006988, symSize: 0x90 }
  - { offsetInCU: 0xA448, offset: 0x27ACB, size: 0x8, addend: 0x0, symName: __ZNSt3__16vectorINS0_I11RenderChunkNS_9allocatorIS1_EEEENS2_IS4_EEE7__clearB8ue170006Ev, symObjAddr: 0x1B84, symBinAddr: 0x100006A18, symSize: 0x28 }
  - { offsetInCU: 0xA46E, offset: 0x27AF1, size: 0x8, addend: 0x0, symName: __ZNKSt3__16vectorINS0_I11RenderChunkNS_9allocatorIS1_EEEENS2_IS4_EEE17__annotate_deleteB8ue170006Ev, symObjAddr: 0x1BAC, symBinAddr: 0x100006A40, symSize: 0xD4 }
  - { offsetInCU: 0xA494, offset: 0x27B17, size: 0x8, addend: 0x0, symName: __ZNSt3__116allocator_traitsINS_9allocatorINS_6vectorI11RenderChunkNS1_IS3_EEEEEEE10deallocateB8ue170006ERS6_PS5_m, symObjAddr: 0x1C80, symBinAddr: 0x100006B14, symSize: 0x34 }
  - { offsetInCU: 0xA4D6, offset: 0x27B59, size: 0x8, addend: 0x0, symName: __ZNSt3__16vectorINS0_I11RenderChunkNS_9allocatorIS1_EEEENS2_IS4_EEE22__base_destruct_at_endB8ue170006EPS4_, symObjAddr: 0x1CB4, symBinAddr: 0x100006B48, symSize: 0x8C }
  - { offsetInCU: 0xA51A, offset: 0x27B9D, size: 0x8, addend: 0x0, symName: __ZNSt3__19allocatorINS_6vectorI11RenderChunkNS0_IS2_EEEEE10deallocateB8ue170006EPS4_m, symObjAddr: 0x1D40, symBinAddr: 0x100006BD4, symSize: 0x44 }
  - { offsetInCU: 0xA55C, offset: 0x27BDF, size: 0x8, addend: 0x0, symName: __ZNSt3__16vectorI11RenderChunkNS_9allocatorIS1_EEEC2ERKS4_, symObjAddr: 0x1E8C, symBinAddr: 0x100006C18, symSize: 0x94 }
  - { offsetInCU: 0xA5A1, offset: 0x27C24, size: 0x8, addend: 0x0, symName: __ZNSt3__116allocator_traitsINS_9allocatorI11RenderChunkEEE37select_on_container_copy_constructionB8ue170006IS3_vvEES3_RKS3_, symObjAddr: 0x1F20, symBinAddr: 0x100006CAC, symSize: 0x10 }
  - { offsetInCU: 0xA5D0, offset: 0x27C53, size: 0x8, addend: 0x0, symName: __ZNKSt3__16vectorI11RenderChunkNS_9allocatorIS1_EEE7__allocB8ue170006Ev, symObjAddr: 0x1F30, symBinAddr: 0x100006CBC, symSize: 0x28 }
  - { offsetInCU: 0xA5FB, offset: 0x27C7E, size: 0x8, addend: 0x0, symName: __ZNSt3__117__compressed_pairIP11RenderChunkNS_9allocatorIS1_EEEC1B8ue170006IDnS4_EEOT_OT0_, symObjAddr: 0x1F58, symBinAddr: 0x100006CE4, symSize: 0x3C }
  - { offsetInCU: 0xA653, offset: 0x27CD6, size: 0x8, addend: 0x0, symName: __ZNSt3__16vectorI11RenderChunkNS_9allocatorIS1_EEE16__init_with_sizeB8ue170006IPS1_S6_EEvT_T0_m, symObjAddr: 0x1F94, symBinAddr: 0x100006D20, symSize: 0xB8 }
  - { offsetInCU: 0xA6C7, offset: 0x27D4A, size: 0x8, addend: 0x0, symName: __ZNKSt3__117__compressed_pairIP11RenderChunkNS_9allocatorIS1_EEE6secondB8ue170006Ev, symObjAddr: 0x204C, symBinAddr: 0x100006DD8, symSize: 0x24 }
  - { offsetInCU: 0xA6ED, offset: 0x27D70, size: 0x8, addend: 0x0, symName: __ZNKSt3__122__compressed_pair_elemINS_9allocatorI11RenderChunkEELi1ELb1EE5__getB8ue170006Ev, symObjAddr: 0x2070, symBinAddr: 0x100006DFC, symSize: 0x14 }
  - { offsetInCU: 0xA713, offset: 0x27D96, size: 0x8, addend: 0x0, symName: __ZNSt3__117__compressed_pairIP11RenderChunkNS_9allocatorIS1_EEEC2B8ue170006IDnS4_EEOT_OT0_, symObjAddr: 0x2084, symBinAddr: 0x100006E10, symSize: 0x44 }
  - { offsetInCU: 0xA76B, offset: 0x27DEE, size: 0x8, addend: 0x0, symName: __ZNSt3__122__compressed_pair_elemIP11RenderChunkLi0ELb0EEC2B8ue170006IDnvEEOT_, symObjAddr: 0x20C8, symBinAddr: 0x100006E54, symSize: 0x1C }
  - { offsetInCU: 0xA7AD, offset: 0x27E30, size: 0x8, addend: 0x0, symName: __ZNSt3__122__compressed_pair_elemINS_9allocatorI11RenderChunkEELi1ELb1EEC2B8ue170006IS3_vEEOT_, symObjAddr: 0x20E4, symBinAddr: 0x100006E70, symSize: 0x18 }
  - { offsetInCU: 0xA7EF, offset: 0x27E72, size: 0x8, addend: 0x0, symName: __ZNSt3__16vectorI11RenderChunkNS_9allocatorIS1_EEE16__destroy_vectorC1B8ue170006ERS4_, symObjAddr: 0x213C, symBinAddr: 0x100006EC8, symSize: 0x34 }
  - { offsetInCU: 0xA828, offset: 0x27EAB, size: 0x8, addend: 0x0, symName: __ZNSt3__16vectorI11RenderChunkNS_9allocatorIS1_EEE11__vallocateB8ue170006Em, symObjAddr: 0x2170, symBinAddr: 0x100006EFC, symSize: 0xAC }
  - { offsetInCU: 0xA86C, offset: 0x27EEF, size: 0x8, addend: 0x0, symName: __ZNSt3__16vectorI11RenderChunkNS_9allocatorIS1_EEE18__construct_at_endIPS1_S6_EEvT_T0_m, symObjAddr: 0x221C, symBinAddr: 0x100006FA8, symSize: 0x8C }
  - { offsetInCU: 0xA8E2, offset: 0x27F65, size: 0x8, addend: 0x0, symName: __ZNSt3__128__exception_guard_exceptionsINS_6vectorI11RenderChunkNS_9allocatorIS2_EEE16__destroy_vectorEE10__completeB8ue170006Ev, symObjAddr: 0x22A8, symBinAddr: 0x100007034, symSize: 0x1C }
  - { offsetInCU: 0xA908, offset: 0x27F8B, size: 0x8, addend: 0x0, symName: __ZNSt3__128__exception_guard_exceptionsINS_6vectorI11RenderChunkNS_9allocatorIS2_EEE16__destroy_vectorEED1B8ue170006Ev, symObjAddr: 0x22C4, symBinAddr: 0x100007050, symSize: 0x2C }
  - { offsetInCU: 0xA932, offset: 0x27FB5, size: 0x8, addend: 0x0, symName: __ZNSt3__128__exception_guard_exceptionsINS_6vectorI11RenderChunkNS_9allocatorIS2_EEE16__destroy_vectorEEC1B8ue170006ES6_, symObjAddr: 0x22F0, symBinAddr: 0x10000707C, symSize: 0x34 }
  - { offsetInCU: 0xA96A, offset: 0x27FED, size: 0x8, addend: 0x0, symName: __ZNSt3__128__exception_guard_exceptionsINS_6vectorI11RenderChunkNS_9allocatorIS2_EEE16__destroy_vectorEEC2B8ue170006ES6_, symObjAddr: 0x2324, symBinAddr: 0x1000070B0, symSize: 0x24 }
  - { offsetInCU: 0xA9A2, offset: 0x28025, size: 0x8, addend: 0x0, symName: __ZNSt3__16vectorI11RenderChunkNS_9allocatorIS1_EEE16__destroy_vectorC2B8ue170006ERS4_, symObjAddr: 0x2348, symBinAddr: 0x1000070D4, symSize: 0x20 }
  - { offsetInCU: 0xA9DB, offset: 0x2805E, size: 0x8, addend: 0x0, symName: __ZNKSt3__16vectorI11RenderChunkNS_9allocatorIS1_EEE8max_sizeEv, symObjAddr: 0x2368, symBinAddr: 0x1000070F4, symSize: 0x60 }
  - { offsetInCU: 0xAA03, offset: 0x28086, size: 0x8, addend: 0x0, symName: __ZNKSt3__16vectorI11RenderChunkNS_9allocatorIS1_EEE20__throw_length_errorB8ue170006Ev, symObjAddr: 0x23C8, symBinAddr: 0x100007154, symSize: 0x1C }
  - { offsetInCU: 0xAA29, offset: 0x280AC, size: 0x8, addend: 0x0, symName: __ZNSt3__16vectorI11RenderChunkNS_9allocatorIS1_EEE7__allocB8ue170006Ev, symObjAddr: 0x2424, symBinAddr: 0x1000071B0, symSize: 0x28 }
  - { offsetInCU: 0xAA4F, offset: 0x280D2, size: 0x8, addend: 0x0, symName: __ZNSt3__16vectorI11RenderChunkNS_9allocatorIS1_EEE9__end_capB8ue170006Ev, symObjAddr: 0x244C, symBinAddr: 0x1000071D8, symSize: 0x28 }
  - { offsetInCU: 0xAA75, offset: 0x280F8, size: 0x8, addend: 0x0, symName: __ZNKSt3__16vectorI11RenderChunkNS_9allocatorIS1_EEE14__annotate_newB8ue170006Em, symObjAddr: 0x2474, symBinAddr: 0x100007200, symSize: 0xAC }
  - { offsetInCU: 0xAAAA, offset: 0x2812D, size: 0x8, addend: 0x0, symName: __ZNSt3__116allocator_traitsINS_9allocatorI11RenderChunkEEE8max_sizeB8ue170006IS3_vvEEmRKS3_, symObjAddr: 0x2520, symBinAddr: 0x1000072AC, symSize: 0x28 }
  - { offsetInCU: 0xAAD6, offset: 0x28159, size: 0x8, addend: 0x0, symName: __ZNSt3__19allocatorI11RenderChunkE8allocateB8ue170006Em, symObjAddr: 0x2548, symBinAddr: 0x1000072D4, symSize: 0x58 }
  - { offsetInCU: 0xAB0A, offset: 0x2818D, size: 0x8, addend: 0x0, symName: __ZNSt3__117__compressed_pairIP11RenderChunkNS_9allocatorIS1_EEE6secondB8ue170006Ev, symObjAddr: 0x25A0, symBinAddr: 0x10000732C, symSize: 0x24 }
  - { offsetInCU: 0xAB30, offset: 0x281B3, size: 0x8, addend: 0x0, symName: __ZNSt3__122__compressed_pair_elemINS_9allocatorI11RenderChunkEELi1ELb1EE5__getB8ue170006Ev, symObjAddr: 0x25C4, symBinAddr: 0x100007350, symSize: 0x14 }
  - { offsetInCU: 0xAB56, offset: 0x281D9, size: 0x8, addend: 0x0, symName: __ZNSt3__117__compressed_pairIP11RenderChunkNS_9allocatorIS1_EEE5firstB8ue170006Ev, symObjAddr: 0x25D8, symBinAddr: 0x100007364, symSize: 0x24 }
  - { offsetInCU: 0xAB7C, offset: 0x281FF, size: 0x8, addend: 0x0, symName: __ZNSt3__122__compressed_pair_elemIP11RenderChunkLi0ELb0EE5__getB8ue170006Ev, symObjAddr: 0x25FC, symBinAddr: 0x100007388, symSize: 0x14 }
  - { offsetInCU: 0xABA2, offset: 0x28225, size: 0x8, addend: 0x0, symName: __ZNKSt3__16vectorI11RenderChunkNS_9allocatorIS1_EEE31__annotate_contiguous_containerB8ue170006EPKvS6_S6_S6_, symObjAddr: 0x2610, symBinAddr: 0x10000739C, symSize: 0x20 }
  - { offsetInCU: 0xABF8, offset: 0x2827B, size: 0x8, addend: 0x0, symName: __ZNKSt3__16vectorI11RenderChunkNS_9allocatorIS1_EEE4dataB8ue170006Ev, symObjAddr: 0x2630, symBinAddr: 0x1000073BC, symSize: 0x28 }
  - { offsetInCU: 0xAC1E, offset: 0x282A1, size: 0x8, addend: 0x0, symName: __ZNKSt3__16vectorI11RenderChunkNS_9allocatorIS1_EEE8capacityB8ue170006Ev, symObjAddr: 0x2658, symBinAddr: 0x1000073E4, symSize: 0x40 }
  - { offsetInCU: 0xAC44, offset: 0x282C7, size: 0x8, addend: 0x0, symName: __ZNKSt3__16vectorI11RenderChunkNS_9allocatorIS1_EEE9__end_capB8ue170006Ev, symObjAddr: 0x26AC, symBinAddr: 0x100007438, symSize: 0x28 }
  - { offsetInCU: 0xAC6A, offset: 0x282ED, size: 0x8, addend: 0x0, symName: __ZNKSt3__117__compressed_pairIP11RenderChunkNS_9allocatorIS1_EEE5firstB8ue170006Ev, symObjAddr: 0x26D4, symBinAddr: 0x100007460, symSize: 0x24 }
  - { offsetInCU: 0xAC90, offset: 0x28313, size: 0x8, addend: 0x0, symName: __ZNKSt3__122__compressed_pair_elemIP11RenderChunkLi0ELb0EE5__getB8ue170006Ev, symObjAddr: 0x26F8, symBinAddr: 0x100007484, symSize: 0x14 }
  - { offsetInCU: 0xACCF, offset: 0x28352, size: 0x8, addend: 0x0, symName: __ZNSt3__16vectorI11RenderChunkNS_9allocatorIS1_EEE21_ConstructTransactionC1B8ue170006ERS4_m, symObjAddr: 0x270C, symBinAddr: 0x100007498, symSize: 0x3C }
  - { offsetInCU: 0xAD17, offset: 0x2839A, size: 0x8, addend: 0x0, symName: __ZNSt3__16vectorI11RenderChunkNS_9allocatorIS1_EEE21_ConstructTransactionD1B8ue170006Ev, symObjAddr: 0x27C8, symBinAddr: 0x100007554, symSize: 0x2C }
  - { offsetInCU: 0xAD41, offset: 0x283C4, size: 0x8, addend: 0x0, symName: __ZNSt3__16vectorI11RenderChunkNS_9allocatorIS1_EEE21_ConstructTransactionC2B8ue170006ERS4_m, symObjAddr: 0x27F4, symBinAddr: 0x100007580, symSize: 0x44 }
  - { offsetInCU: 0xADA2, offset: 0x28425, size: 0x8, addend: 0x0, symName: __ZNSt3__119__unwrap_range_implIP11RenderChunkS2_E8__unwrapB8ue170006ES2_S2_, symObjAddr: 0x29C8, symBinAddr: 0x100007754, symSize: 0x58 }
  - { offsetInCU: 0xADD8, offset: 0x2845B, size: 0x8, addend: 0x0, symName: __ZNSt3__14pairIP11RenderChunkS2_EC1B8ue170006IS2_S2_LPv0EEEOT_OT0_, symObjAddr: 0x2A20, symBinAddr: 0x1000077AC, symSize: 0x3C }
  - { offsetInCU: 0xAE37, offset: 0x284BA, size: 0x8, addend: 0x0, symName: __ZNSt3__14pairIP11RenderChunkS2_EC2B8ue170006IS2_S2_LPv0EEEOT_OT0_, symObjAddr: 0x2A5C, symBinAddr: 0x1000077E8, symSize: 0x34 }
  - { offsetInCU: 0xAE96, offset: 0x28519, size: 0x8, addend: 0x0, symName: __ZNSt3__129_AllocatorDestroyRangeReverseINS_9allocatorI11RenderChunkEEPS2_EC1B8ue170006ERS3_RS4_S7_, symObjAddr: 0x2ADC, symBinAddr: 0x100007868, symSize: 0x44 }
  - { offsetInCU: 0xAEED, offset: 0x28570, size: 0x8, addend: 0x0, symName: __ZNSt3__116allocator_traitsINS_9allocatorI11RenderChunkEEE9constructB8ue170006IS2_JRS2_EvvEEvRS3_PT_DpOT0_, symObjAddr: 0x2B20, symBinAddr: 0x1000078AC, symSize: 0x30 }
  - { offsetInCU: 0xAF42, offset: 0x285C5, size: 0x8, addend: 0x0, symName: __ZNSt3__128__exception_guard_exceptionsINS_29_AllocatorDestroyRangeReverseINS_9allocatorI11RenderChunkEEPS3_EEE10__completeB8ue170006Ev, symObjAddr: 0x2B50, symBinAddr: 0x1000078DC, symSize: 0x1C }
  - { offsetInCU: 0xAF68, offset: 0x285EB, size: 0x8, addend: 0x0, symName: __ZNSt3__128__exception_guard_exceptionsINS_29_AllocatorDestroyRangeReverseINS_9allocatorI11RenderChunkEEPS3_EEED1B8ue170006Ev, symObjAddr: 0x2B6C, symBinAddr: 0x1000078F8, symSize: 0x2C }
  - { offsetInCU: 0xAF92, offset: 0x28615, size: 0x8, addend: 0x0, symName: __ZNSt3__128__exception_guard_exceptionsINS_29_AllocatorDestroyRangeReverseINS_9allocatorI11RenderChunkEEPS3_EEEC1B8ue170006ES6_, symObjAddr: 0x2B98, symBinAddr: 0x100007924, symSize: 0x34 }
  - { offsetInCU: 0xAFCB, offset: 0x2864E, size: 0x8, addend: 0x0, symName: __ZNSt3__128__exception_guard_exceptionsINS_29_AllocatorDestroyRangeReverseINS_9allocatorI11RenderChunkEEPS3_EEEC2B8ue170006ES6_, symObjAddr: 0x2BCC, symBinAddr: 0x100007958, symSize: 0x30 }
  - { offsetInCU: 0xB004, offset: 0x28687, size: 0x8, addend: 0x0, symName: __ZNSt3__129_AllocatorDestroyRangeReverseINS_9allocatorI11RenderChunkEEPS2_EC2B8ue170006ERS3_RS4_S7_, symObjAddr: 0x2BFC, symBinAddr: 0x100007988, symSize: 0x38 }
  - { offsetInCU: 0xB05B, offset: 0x286DE, size: 0x8, addend: 0x0, symName: __ZNSt3__128__exception_guard_exceptionsINS_29_AllocatorDestroyRangeReverseINS_9allocatorI11RenderChunkEEPS3_EEED2B8ue170006Ev, symObjAddr: 0x2C70, symBinAddr: 0x1000079FC, symSize: 0x50 }
  - { offsetInCU: 0xB085, offset: 0x28708, size: 0x8, addend: 0x0, symName: __ZNKSt3__129_AllocatorDestroyRangeReverseINS_9allocatorI11RenderChunkEEPS2_EclB8ue170006Ev, symObjAddr: 0x2CC0, symBinAddr: 0x100007A4C, symSize: 0x68 }
  - { offsetInCU: 0xB0AB, offset: 0x2872E, size: 0x8, addend: 0x0, symName: __ZNSt3__116reverse_iteratorIP11RenderChunkEC1B8ue170006ES2_, symObjAddr: 0x2D98, symBinAddr: 0x100007B24, symSize: 0x34 }
  - { offsetInCU: 0xB0E3, offset: 0x28766, size: 0x8, addend: 0x0, symName: __ZNSt3__116allocator_traitsINS_9allocatorI11RenderChunkEEE7destroyB8ue170006IS2_vvEEvRS3_PT_, symObjAddr: 0x2E14, symBinAddr: 0x100007BA0, symSize: 0x28 }
  - { offsetInCU: 0xB11E, offset: 0x287A1, size: 0x8, addend: 0x0, symName: __ZNSt3__116reverse_iteratorIP11RenderChunkEppB8ue170006Ev, symObjAddr: 0x2E60, symBinAddr: 0x100007BEC, symSize: 0x20 }
  - { offsetInCU: 0xB144, offset: 0x287C7, size: 0x8, addend: 0x0, symName: __ZNKSt3__116reverse_iteratorIP11RenderChunkE4baseB8ue170006Ev, symObjAddr: 0x2E80, symBinAddr: 0x100007C0C, symSize: 0x18 }
  - { offsetInCU: 0xB169, offset: 0x287EC, size: 0x8, addend: 0x0, symName: __ZN11RenderChunkD1Ev, symObjAddr: 0x2EE0, symBinAddr: 0x100007C6C, symSize: 0x2C }
  - { offsetInCU: 0xB195, offset: 0x28818, size: 0x8, addend: 0x0, symName: __ZN11RenderChunkD2Ev, symObjAddr: 0x2F0C, symBinAddr: 0x100007C98, symSize: 0x2C }
  - { offsetInCU: 0xB1C7, offset: 0x2884A, size: 0x8, addend: 0x0, symName: __ZNSt3__119__to_address_helperINS_16reverse_iteratorIP11RenderChunkEEvE6__callB8ue170006ERKS4_, symObjAddr: 0x2F38, symBinAddr: 0x100007CC4, symSize: 0x38 }
  - { offsetInCU: 0xB1EA, offset: 0x2886D, size: 0x8, addend: 0x0, symName: __ZNKSt3__116reverse_iteratorIP11RenderChunkEptB8ue170006Ev, symObjAddr: 0x2F70, symBinAddr: 0x100007CFC, symSize: 0x2C }
  - { offsetInCU: 0xB210, offset: 0x28893, size: 0x8, addend: 0x0, symName: __ZNSt3__116reverse_iteratorIP11RenderChunkEC2B8ue170006ES2_, symObjAddr: 0x3038, symBinAddr: 0x100007DC4, symSize: 0x28 }
  - { offsetInCU: 0xB248, offset: 0x288CB, size: 0x8, addend: 0x0, symName: __ZNSt3__118__unwrap_iter_implIP11RenderChunkLb1EE8__unwrapB8ue170006ES2_, symObjAddr: 0x3060, symBinAddr: 0x100007DEC, symSize: 0x24 }
  - { offsetInCU: 0xB26B, offset: 0x288EE, size: 0x8, addend: 0x0, symName: __ZNSt3__118__unwrap_iter_implIP11RenderChunkLb1EE8__rewrapB8ue170006ES2_S2_, symObjAddr: 0x3084, symBinAddr: 0x100007E10, symSize: 0x50 }
  - { offsetInCU: 0xB29C, offset: 0x2891F, size: 0x8, addend: 0x0, symName: __ZNSt3__16vectorI11RenderChunkNS_9allocatorIS1_EEE21_ConstructTransactionD2B8ue170006Ev, symObjAddr: 0x30D4, symBinAddr: 0x100007E60, symSize: 0x20 }
  - { offsetInCU: 0xB2C6, offset: 0x28949, size: 0x8, addend: 0x0, symName: __ZNSt3__128__exception_guard_exceptionsINS_6vectorI11RenderChunkNS_9allocatorIS2_EEE16__destroy_vectorEED2B8ue170006Ev, symObjAddr: 0x30F4, symBinAddr: 0x100007E80, symSize: 0x50 }
  - { offsetInCU: 0xB2F0, offset: 0x28973, size: 0x8, addend: 0x0, symName: __ZNSt3__16vectorI11RenderChunkNS_9allocatorIS1_EEE16__destroy_vectorclB8ue170006Ev, symObjAddr: 0x3144, symBinAddr: 0x100007ED0, symSize: 0x90 }
  - { offsetInCU: 0xB316, offset: 0x28999, size: 0x8, addend: 0x0, symName: __ZNSt3__16vectorI11RenderChunkNS_9allocatorIS1_EEE7__clearB8ue170006Ev, symObjAddr: 0x31D4, symBinAddr: 0x100007F60, symSize: 0x28 }
  - { offsetInCU: 0xB33C, offset: 0x289BF, size: 0x8, addend: 0x0, symName: __ZNKSt3__16vectorI11RenderChunkNS_9allocatorIS1_EEE17__annotate_deleteB8ue170006Ev, symObjAddr: 0x31FC, symBinAddr: 0x100007F88, symSize: 0xB8 }
  - { offsetInCU: 0xB362, offset: 0x289E5, size: 0x8, addend: 0x0, symName: __ZNSt3__116allocator_traitsINS_9allocatorI11RenderChunkEEE10deallocateB8ue170006ERS3_PS2_m, symObjAddr: 0x32B4, symBinAddr: 0x100008040, symSize: 0x34 }
  - { offsetInCU: 0xB3A4, offset: 0x28A27, size: 0x8, addend: 0x0, symName: __ZNSt3__16vectorI11RenderChunkNS_9allocatorIS1_EEE22__base_destruct_at_endB8ue170006EPS1_, symObjAddr: 0x32E8, symBinAddr: 0x100008074, symSize: 0x8C }
  - { offsetInCU: 0xB3E8, offset: 0x28A6B, size: 0x8, addend: 0x0, symName: __ZNSt3__19allocatorI11RenderChunkE10deallocateB8ue170006EPS1_m, symObjAddr: 0x3374, symBinAddr: 0x100008100, symSize: 0x40 }
  - { offsetInCU: 0xB42A, offset: 0x28AAD, size: 0x8, addend: 0x0, symName: __ZNSt3__16vectorI11RenderChunkNS_9allocatorIS1_EEED2B8ue170006Ev, symObjAddr: 0x33B4, symBinAddr: 0x100008140, symSize: 0x40 }
  - { offsetInCU: 0xB454, offset: 0x28AD7, size: 0x8, addend: 0x0, symName: __ZNSt3__16vectorINS0_I11RenderChunkNS_9allocatorIS1_EEEENS2_IS4_EEED2B8ue170006Ev, symObjAddr: 0x33F4, symBinAddr: 0x100008180, symSize: 0x40 }
  - { offsetInCU: 0xB47E, offset: 0x28B01, size: 0x8, addend: 0x0, symName: __ZNKSt3__16vectorINS0_I11RenderChunkNS_9allocatorIS1_EEEENS2_IS4_EEE20__throw_out_of_rangeB8ue170006Ev, symObjAddr: 0x3434, symBinAddr: 0x1000081C0, symSize: 0x1C }
  - { offsetInCU: 0xB4A4, offset: 0x28B27, size: 0x8, addend: 0x0, symName: __ZNSt12out_of_rangeC1B8ue170006EPKc, symObjAddr: 0x34B4, symBinAddr: 0x100008240, symSize: 0x34 }
  - { offsetInCU: 0xB4DC, offset: 0x28B5F, size: 0x8, addend: 0x0, symName: __ZNSt12out_of_rangeC2B8ue170006EPKc, symObjAddr: 0x34E8, symBinAddr: 0x100008274, symSize: 0x4C }
  - { offsetInCU: 0xB514, offset: 0x28B97, size: 0x8, addend: 0x0, symName: __ZNKSt3__16vectorI11RenderChunkNS_9allocatorIS1_EEE20__throw_out_of_rangeB8ue170006Ev, symObjAddr: 0x3534, symBinAddr: 0x1000082C0, symSize: 0x1C }
  - { offsetInCU: 0xB539, offset: 0x28BBC, size: 0x8, addend: 0x0, symName: __ZN11RenderChunkC2ERKS_, symObjAddr: 0x3550, symBinAddr: 0x1000082DC, symSize: 0x40 }
  - { offsetInCU: 0x26, offset: 0x28CC1, size: 0x8, addend: 0x0, symName: __Z20getOppositeDirection9Direction, symObjAddr: 0x0, symBinAddr: 0x10000831C, symSize: 0x78 }
  - { offsetInCU: 0x3B, offset: 0x28CD6, size: 0x8, addend: 0x0, symName: __Z20getOppositeDirection9Direction, symObjAddr: 0x0, symBinAddr: 0x10000831C, symSize: 0x78 }
  - { offsetInCU: 0x37A9, offset: 0x2C4AB, size: 0x8, addend: 0x0, symName: __ZNSt3__17advanceB8ue170006IPNS_12basic_stringIcNS_11char_traitsIcEENS_9allocatorIcEEEEllvEEvRT_T0_, symObjAddr: 0x287C, symBinAddr: 0x10000A40C, symSize: 0x38 }
  - { offsetInCU: 0x3B6C, offset: 0x2C86E, size: 0x8, addend: 0x0, symName: __ZNSt3__17advanceB8ue170006INS_16reverse_iteratorIPNS_12basic_stringIcNS_11char_traitsIcEENS_9allocatorIcEEEEEEllvEEvRT_T0_, symObjAddr: 0x3B9C, symBinAddr: 0x10000B380, symSize: 0x38 }
  - { offsetInCU: 0x46EA, offset: 0x2D3EC, size: 0x8, addend: 0x0, symName: __ZNSt3__1neB8ue170006IPcEEbRKNS_11__wrap_iterIT_EES6_, symObjAddr: 0xC38, symBinAddr: 0x100008F54, symSize: 0x34 }
  - { offsetInCU: 0x472D, offset: 0x2D42F, size: 0x8, addend: 0x0, symName: __ZNSt3__112__to_addressB8ue170006IKcEEPT_S3_, symObjAddr: 0x1074, symBinAddr: 0x100009298, symSize: 0x14 }
  - { offsetInCU: 0x4795, offset: 0x2D497, size: 0x8, addend: 0x0, symName: __ZNSt3__122__make_exception_guardB8ue170006INS_6vectorINS_12basic_stringIcNS_11char_traitsIcEENS_9allocatorIcEEEENS5_IS7_EEE16__destroy_vectorEEENS_28__exception_guard_exceptionsIT_EESC_, symObjAddr: 0x1518, symBinAddr: 0x10000959C, symSize: 0x40 }
  - { offsetInCU: 0x47CA, offset: 0x2D4CC, size: 0x8, addend: 0x0, symName: __ZNSt3__119__allocate_at_leastB8ue170006INS_9allocatorINS_12basic_stringIcNS_11char_traitsIcEENS1_IcEEEEEEEENS_19__allocation_resultINS_16allocator_traitsIT_E7pointerEEERSA_m, symObjAddr: 0x1928, symBinAddr: 0x100009958, symSize: 0x40 }
  - { offsetInCU: 0x480D, offset: 0x2D50F, size: 0x8, addend: 0x0, symName: __ZNSt3__130__uninitialized_allocator_copyB8ue170006INS_9allocatorINS_12basic_stringIcNS_11char_traitsIcEENS1_IcEEEEEEPKS6_S9_PS6_EET2_RT_T0_T1_SB_, symObjAddr: 0x1FE0, symBinAddr: 0x100009BE0, symSize: 0x80 }
  - { offsetInCU: 0x48AA, offset: 0x2D5AC, size: 0x8, addend: 0x0, symName: __ZNSt3__114__unwrap_rangeB8ue170006IPKNS_12basic_stringIcNS_11char_traitsIcEENS_9allocatorIcEEEES8_EEDaT_T0_, symObjAddr: 0x20D8, symBinAddr: 0x100009CD8, symSize: 0x3C }
  - { offsetInCU: 0x48F6, offset: 0x2D5F8, size: 0x8, addend: 0x0, symName: __ZNSt3__135__uninitialized_allocator_copy_implB8ue170006INS_9allocatorINS_12basic_stringIcNS_11char_traitsIcEENS1_IcEEEEEEPKS6_S9_PS6_EET2_RT_T0_T1_SB_, symObjAddr: 0x2114, symBinAddr: 0x100009D14, symSize: 0xF4 }
  - { offsetInCU: 0x4994, offset: 0x2D696, size: 0x8, addend: 0x0, symName: __ZNSt3__113__unwrap_iterB8ue170006IPNS_12basic_stringIcNS_11char_traitsIcEENS_9allocatorIcEEEENS_18__unwrap_iter_implIS7_Lb1EEELi0EEEDTclsrT0_8__unwrapclsr3stdE7declvalIT_EEEESB_, symObjAddr: 0x2208, symBinAddr: 0x100009E08, symSize: 0x24 }
  - { offsetInCU: 0x49D8, offset: 0x2D6DA, size: 0x8, addend: 0x0, symName: __ZNSt3__113__rewrap_iterB8ue170006IPNS_12basic_stringIcNS_11char_traitsIcEENS_9allocatorIcEEEES7_NS_18__unwrap_iter_implIS7_Lb1EEEEET_SA_T0_, symObjAddr: 0x222C, symBinAddr: 0x100009E2C, symSize: 0x3C }
  - { offsetInCU: 0x4B30, offset: 0x2D832, size: 0x8, addend: 0x0, symName: __ZNSt3__113__unwrap_iterB8ue170006IPKNS_12basic_stringIcNS_11char_traitsIcEENS_9allocatorIcEEEENS_18__unwrap_iter_implIS8_Lb1EEELi0EEEDTclsrT0_8__unwrapclsr3stdE7declvalIT_EEEESC_, symObjAddr: 0x22C0, symBinAddr: 0x100009EC0, symSize: 0x24 }
  - { offsetInCU: 0x4BC7, offset: 0x2D8C9, size: 0x8, addend: 0x0, symName: __ZNSt3__112__to_addressB8ue170006IKNS_12basic_stringIcNS_11char_traitsIcEENS_9allocatorIcEEEEEEPT_S9_, symObjAddr: 0x2344, symBinAddr: 0x100009F44, symSize: 0x14 }
  - { offsetInCU: 0x4BFC, offset: 0x2D8FE, size: 0x8, addend: 0x0, symName: __ZNSt3__122__make_exception_guardB8ue170006INS_29_AllocatorDestroyRangeReverseINS_9allocatorINS_12basic_stringIcNS_11char_traitsIcEENS2_IcEEEEEEPS7_EEEENS_28__exception_guard_exceptionsIT_EESC_, symObjAddr: 0x238C, symBinAddr: 0x100009F8C, symSize: 0x4C }
  - { offsetInCU: 0x4C59, offset: 0x2D95B, size: 0x8, addend: 0x0, symName: __ZNSt3__112construct_atB8ue170006INS_12basic_stringIcNS_11char_traitsIcEENS_9allocatorIcEEEEJRKS6_EPS6_EEPT_SB_DpOT0_, symObjAddr: 0x2530, symBinAddr: 0x10000A130, symSize: 0x3C }
  - { offsetInCU: 0x4CCB, offset: 0x2D9CD, size: 0x8, addend: 0x0, symName: __ZNSt3__119__allocator_destroyB8ue170006INS_9allocatorINS_12basic_stringIcNS_11char_traitsIcEENS1_IcEEEEEENS_16reverse_iteratorIPS6_EESA_EEvRT_T0_T1_, symObjAddr: 0x2624, symBinAddr: 0x10000A224, symSize: 0x70 }
  - { offsetInCU: 0x4D2E, offset: 0x2DA30, size: 0x8, addend: 0x0, symName: __ZNSt3__1neB8ue170006IPNS_12basic_stringIcNS_11char_traitsIcEENS_9allocatorIcEEEES7_EEbRKNS_16reverse_iteratorIT_EERKNS8_IT0_EE, symObjAddr: 0x26C8, symBinAddr: 0x10000A2C8, symSize: 0x48 }
  - { offsetInCU: 0x4D7A, offset: 0x2DA7C, size: 0x8, addend: 0x0, symName: __ZNSt3__112__to_addressB8ue170006INS_16reverse_iteratorIPNS_12basic_stringIcNS_11char_traitsIcEENS_9allocatorIcEEEEEEvEEu7__decayIDTclsr19__to_address_helperIT_EE6__callclsr3stdE7declvalIRKSA_EEEEESC_, symObjAddr: 0x2738, symBinAddr: 0x10000A310, symSize: 0x24 }
  - { offsetInCU: 0x4DDA, offset: 0x2DADC, size: 0x8, addend: 0x0, symName: __ZNSt3__14prevB8ue170006IPNS_12basic_stringIcNS_11char_traitsIcEENS_9allocatorIcEEEEEENS_9enable_ifIXsr29__has_input_iterator_categoryIT_EE5valueES9_E4typeES9_NS_15iterator_traitsIS9_E15difference_typeE, symObjAddr: 0x2840, symBinAddr: 0x10000A3D0, symSize: 0x3C }
  - { offsetInCU: 0x4E1D, offset: 0x2DB1F, size: 0x8, addend: 0x0, symName: __ZNSt3__19__advanceB8ue170006IPNS_12basic_stringIcNS_11char_traitsIcEENS_9allocatorIcEEEEEEvRT_NS_15iterator_traitsIS8_E15difference_typeENS_26random_access_iterator_tagE, symObjAddr: 0x28C8, symBinAddr: 0x10000A444, symSize: 0x30 }
  - { offsetInCU: 0x4EBA, offset: 0x2DBBC, size: 0x8, addend: 0x0, symName: __ZNSt3__112construct_atB8ue170006INS_12basic_stringIcNS_11char_traitsIcEENS_9allocatorIcEEEEJS6_EPS6_EEPT_S9_DpOT0_, symObjAddr: 0x2FA4, symBinAddr: 0x10000A788, symSize: 0x3C }
  - { offsetInCU: 0x4F2C, offset: 0x2DC2E, size: 0x8, addend: 0x0, symName: __ZNSt3__13maxB8ue170006ImEERKT_S3_S3_, symObjAddr: 0x3290, symBinAddr: 0x10000AA74, symSize: 0x2C }
  - { offsetInCU: 0x4F6F, offset: 0x2DC71, size: 0x8, addend: 0x0, symName: __ZNSt3__13maxB8ue170006ImNS_6__lessIvvEEEERKT_S5_S5_T0_, symObjAddr: 0x32BC, symBinAddr: 0x10000AAA0, symSize: 0x54 }
  - { offsetInCU: 0x4FC9, offset: 0x2DCCB, size: 0x8, addend: 0x0, symName: __ZNSt3__142__uninitialized_allocator_move_if_noexceptB8ue170006INS_9allocatorINS_12basic_stringIcNS_11char_traitsIcEENS1_IcEEEEEENS_16reverse_iteratorIPS6_EESA_SA_EET2_RT_T0_T1_SB_, symObjAddr: 0x3548, symBinAddr: 0x10000AD2C, symSize: 0x124 }
  - { offsetInCU: 0x5069, offset: 0x2DD6B, size: 0x8, addend: 0x0, symName: __ZNSt3__14swapB8ue170006IPNS_12basic_stringIcNS_11char_traitsIcEENS_9allocatorIcEEEEEENS_9enable_ifIXaasr21is_move_constructibleIT_EE5valuesr18is_move_assignableIS9_EE5valueEvE4typeERS9_SC_, symObjAddr: 0x366C, symBinAddr: 0x10000AE50, symSize: 0x3C }
  - { offsetInCU: 0x50BB, offset: 0x2DDBD, size: 0x8, addend: 0x0, symName: __ZNSt3__122__make_exception_guardB8ue170006INS_29_AllocatorDestroyRangeReverseINS_9allocatorINS_12basic_stringIcNS_11char_traitsIcEENS2_IcEEEEEENS_16reverse_iteratorIPS7_EEEEEENS_28__exception_guard_exceptionsIT_EESE_, symObjAddr: 0x36A8, symBinAddr: 0x10000AE8C, symSize: 0x4C }
  - { offsetInCU: 0x50F1, offset: 0x2DDF3, size: 0x8, addend: 0x0, symName: __ZNSt3__119__allocator_destroyB8ue170006INS_9allocatorINS_12basic_stringIcNS_11char_traitsIcEENS1_IcEEEEEENS_16reverse_iteratorINS8_IPS6_EEEESB_EEvRT_T0_T1_, symObjAddr: 0x3948, symBinAddr: 0x10000B12C, symSize: 0x70 }
  - { offsetInCU: 0x5156, offset: 0x2DE58, size: 0x8, addend: 0x0, symName: __ZNSt3__1neB8ue170006INS_16reverse_iteratorIPNS_12basic_stringIcNS_11char_traitsIcEENS_9allocatorIcEEEEEES9_EEbRKNS1_IT_EERKNS1_IT0_EE, symObjAddr: 0x39F4, symBinAddr: 0x10000B1D8, symSize: 0x60 }
  - { offsetInCU: 0x51A2, offset: 0x2DEA4, size: 0x8, addend: 0x0, symName: __ZNSt3__112__to_addressB8ue170006INS_16reverse_iteratorINS1_IPNS_12basic_stringIcNS_11char_traitsIcEENS_9allocatorIcEEEEEEEEvEEu7__decayIDTclsr19__to_address_helperIT_EE6__callclsr3stdE7declvalIRKSB_EEEEESD_, symObjAddr: 0x3A54, symBinAddr: 0x10000B238, symSize: 0x24 }
  - { offsetInCU: 0x5202, offset: 0x2DF04, size: 0x8, addend: 0x0, symName: __ZNSt3__14prevB8ue170006INS_16reverse_iteratorIPNS_12basic_stringIcNS_11char_traitsIcEENS_9allocatorIcEEEEEEEENS_9enable_ifIXsr29__has_input_iterator_categoryIT_EE5valueESB_E4typeESB_NS_15iterator_traitsISB_E15difference_typeE, symObjAddr: 0x3B50, symBinAddr: 0x10000B334, symSize: 0x4C }
  - { offsetInCU: 0x5245, offset: 0x2DF47, size: 0x8, addend: 0x0, symName: __ZNSt3__19__advanceB8ue170006INS_16reverse_iteratorIPNS_12basic_stringIcNS_11char_traitsIcEENS_9allocatorIcEEEEEEEEvRT_NS_15iterator_traitsISA_E15difference_typeENS_26random_access_iterator_tagE, symObjAddr: 0x3BD4, symBinAddr: 0x10000B3B8, symSize: 0x2C }
  - { offsetInCU: 0x528F, offset: 0x2DF91, size: 0x8, addend: 0x0, symName: __ZNSt3__1eqB8ue170006IPcEEbRKNS_11__wrap_iterIT_EES6_, symObjAddr: 0x3FE4, symBinAddr: 0x10000B788, symSize: 0x48 }
  - { offsetInCU: 0x5625, offset: 0x2E327, size: 0x8, addend: 0x0, symName: __ZNSt3__16vectorINS_12basic_stringIcNS_11char_traitsIcEENS_9allocatorIcEEEENS4_IS6_EEE26__swap_out_circular_bufferERNS_14__split_bufferIS6_RS7_EE, symObjAddr: 0x3154, symBinAddr: 0x10000A938, symSize: 0x110 }
  - { offsetInCU: 0x5B1C, offset: 0x2E81E, size: 0x8, addend: 0x0, symName: __Z7toloweri, symObjAddr: 0xD4C, symBinAddr: 0x100009068, symSize: 0x24 }
  - { offsetInCU: 0x5B4A, offset: 0x2E84C, size: 0x8, addend: 0x0, symName: __Z7toupperi, symObjAddr: 0xC84, symBinAddr: 0x100008FA0, symSize: 0x24 }
  - { offsetInCU: 0x7484, offset: 0x30186, size: 0x8, addend: 0x0, symName: __ZN13StringHelpers9leftAlignERKNSt3__112basic_stringIcNS0_11char_traitsIcEENS0_9allocatorIcEEEEjRKc, symObjAddr: 0x0, symBinAddr: 0x1000083A4, symSize: 0x13C }
  - { offsetInCU: 0x74EB, offset: 0x301ED, size: 0x8, addend: 0x0, symName: __ZN13StringHelpers10rightAlignERKNSt3__112basic_stringIcNS0_11char_traitsIcEENS0_9allocatorIcEEEEjRKc, symObjAddr: 0x230, symBinAddr: 0x1000085D4, symSize: 0x10C }
  - { offsetInCU: 0x7552, offset: 0x30254, size: 0x8, addend: 0x0, symName: __ZN13StringHelpers4joinERKNSt3__16vectorINS0_12basic_stringIcNS0_11char_traitsIcEENS0_9allocatorIcEEEENS5_IS7_EEEERKS7_, symObjAddr: 0x33C, symBinAddr: 0x1000086E0, symSize: 0x134 }
  - { offsetInCU: 0x75B1, offset: 0x302B3, size: 0x8, addend: 0x0, symName: __ZN13StringHelpers13padToMulitpleERKNSt3__112basic_stringIcNS0_11char_traitsIcEENS0_9allocatorIcEEEEiRKc, symObjAddr: 0x52C, symBinAddr: 0x1000088A8, symSize: 0x70 }
  - { offsetInCU: 0x7608, offset: 0x3030A, size: 0x8, addend: 0x0, symName: __ZN13StringHelpers13splitIntoRowsERKNSt3__112basic_stringIcNS0_11char_traitsIcEENS0_9allocatorIcEEEEii, symObjAddr: 0x5B4, symBinAddr: 0x100008930, symSize: 0x294 }
  - { offsetInCU: 0x767E, offset: 0x30380, size: 0x8, addend: 0x0, symName: __ZN13StringHelpers10countWordsERKNSt3__112basic_stringIcNS0_11char_traitsIcEENS0_9allocatorIcEEEE, symObjAddr: 0x984, symBinAddr: 0x100008CA0, symSize: 0x12C }
  - { offsetInCU: 0x7705, offset: 0x30407, size: 0x8, addend: 0x0, symName: __ZN13StringHelpers9uppercaseERNSt3__112basic_stringIcNS0_11char_traitsIcEENS0_9allocatorIcEEEE, symObjAddr: 0xB14, symBinAddr: 0x100008E30, symSize: 0x84 }
  - { offsetInCU: 0x777F, offset: 0x30481, size: 0x8, addend: 0x0, symName: __ZN13StringHelpers9lowercaseERNSt3__112basic_stringIcNS0_11char_traitsIcEENS0_9allocatorIcEEEE, symObjAddr: 0xCC8, symBinAddr: 0x100008FE4, symSize: 0x84 }
  - { offsetInCU: 0x77FB, offset: 0x304FD, size: 0x8, addend: 0x0, symName: __ZNKSt3__112basic_stringIcNS_11char_traitsIcEENS_9allocatorIcEEE6lengthB8ue170006Ev, symObjAddr: 0x13C, symBinAddr: 0x1000084E0, symSize: 0x24 }
  - { offsetInCU: 0x7821, offset: 0x30523, size: 0x8, addend: 0x0, symName: __ZNKSt3__112basic_stringIcNS_11char_traitsIcEENS_9allocatorIcEEE6substrB8ue170006Emm, symObjAddr: 0x160, symBinAddr: 0x100008504, symSize: 0x68 }
  - { offsetInCU: 0x7865, offset: 0x30567, size: 0x8, addend: 0x0, symName: __ZNSt3__112basic_stringIcNS_11char_traitsIcEENS_9allocatorIcEEEC1B8ue170006Emc, symObjAddr: 0x1C8, symBinAddr: 0x10000856C, symSize: 0x3C }
  - { offsetInCU: 0x78AD, offset: 0x305AF, size: 0x8, addend: 0x0, symName: __ZNSt3__112basic_stringIcNS_11char_traitsIcEENS_9allocatorIcEEEpLB8ue170006ERKS5_, symObjAddr: 0x204, symBinAddr: 0x1000085A8, symSize: 0x2C }
  - { offsetInCU: 0x78E2, offset: 0x305E4, size: 0x8, addend: 0x0, symName: __ZNSt3__112basic_stringIcNS_11char_traitsIcEENS_9allocatorIcEEEC1B8ue170006Ev, symObjAddr: 0x470, symBinAddr: 0x100008814, symSize: 0x2C }
  - { offsetInCU: 0x790B, offset: 0x3060D, size: 0x8, addend: 0x0, symName: __ZNKSt3__16vectorINS_12basic_stringIcNS_11char_traitsIcEENS_9allocatorIcEEEENS4_IS6_EEE2atEm, symObjAddr: 0x4C4, symBinAddr: 0x100008840, symSize: 0x68 }
  - { offsetInCU: 0x7942, offset: 0x30644, size: 0x8, addend: 0x0, symName: __Z4ceilB8ue170006f, symObjAddr: 0x59C, symBinAddr: 0x100008918, symSize: 0x18 }
  - { offsetInCU: 0x7976, offset: 0x30678, size: 0x8, addend: 0x0, symName: __ZNSt3__16vectorINS_12basic_stringIcNS_11char_traitsIcEENS_9allocatorIcEEEENS4_IS6_EEEC1B8ue170006ESt16initializer_listIS6_E, symObjAddr: 0x87C, symBinAddr: 0x100008BC4, symSize: 0x3C }
  - { offsetInCU: 0x79B1, offset: 0x306B3, size: 0x8, addend: 0x0, symName: __ZNSt3__16vectorINS_12basic_stringIcNS_11char_traitsIcEENS_9allocatorIcEEEENS4_IS6_EEEC1B8ue170006Ev, symObjAddr: 0x8B8, symBinAddr: 0x100008C00, symSize: 0x2C }
  - { offsetInCU: 0x79DF, offset: 0x306E1, size: 0x8, addend: 0x0, symName: __ZNSt3__16vectorINS_12basic_stringIcNS_11char_traitsIcEENS_9allocatorIcEEEENS4_IS6_EEE12emplace_backIJS6_EEERS6_DpOT_, symObjAddr: 0x8E4, symBinAddr: 0x100008C2C, symSize: 0x74 }
  - { offsetInCU: 0x7A2C, offset: 0x3072E, size: 0x8, addend: 0x0, symName: '__ZZN13StringHelpers10countWordsERKNSt3__112basic_stringIcNS0_11char_traitsIcEENS0_9allocatorIcEEEEENK3$_0clEc', symObjAddr: 0xAB0, symBinAddr: 0x100008DCC, symSize: 0x64 }
  - { offsetInCU: 0x7A64, offset: 0x30766, size: 0x8, addend: 0x0, symName: __ZNSt3__112basic_stringIcNS_11char_traitsIcEENS_9allocatorIcEEE5beginB8ue170006Ev, symObjAddr: 0xB98, symBinAddr: 0x100008EB4, symSize: 0x4C }
  - { offsetInCU: 0x7A8A, offset: 0x3078C, size: 0x8, addend: 0x0, symName: __ZNSt3__112basic_stringIcNS_11char_traitsIcEENS_9allocatorIcEEE3endB8ue170006Ev, symObjAddr: 0xBE4, symBinAddr: 0x100008F00, symSize: 0x54 }
  - { offsetInCU: 0x7AB0, offset: 0x307B2, size: 0x8, addend: 0x0, symName: __ZNKSt3__111__wrap_iterIPcEdeB8ue170006Ev, symObjAddr: 0xC6C, symBinAddr: 0x100008F88, symSize: 0x18 }
  - { offsetInCU: 0x7AD6, offset: 0x307D8, size: 0x8, addend: 0x0, symName: __ZNSt3__111__wrap_iterIPcEppB8ue170006Ev, symObjAddr: 0xCA8, symBinAddr: 0x100008FC4, symSize: 0x20 }
  - { offsetInCU: 0x7AFC, offset: 0x307FE, size: 0x8, addend: 0x0, symName: __ZNKSt3__112basic_stringIcNS_11char_traitsIcEENS_9allocatorIcEEE4sizeB8ue170006Ev, symObjAddr: 0xD70, symBinAddr: 0x10000908C, symSize: 0x54 }
  - { offsetInCU: 0x7B22, offset: 0x30824, size: 0x8, addend: 0x0, symName: __ZNKSt3__112basic_stringIcNS_11char_traitsIcEENS_9allocatorIcEEE9__is_longB8ue170006Ev, symObjAddr: 0xDC4, symBinAddr: 0x1000090E0, symSize: 0x38 }
  - { offsetInCU: 0x7B48, offset: 0x3084A, size: 0x8, addend: 0x0, symName: __ZNKSt3__112basic_stringIcNS_11char_traitsIcEENS_9allocatorIcEEE15__get_long_sizeB8ue170006Ev, symObjAddr: 0xDFC, symBinAddr: 0x100009118, symSize: 0x28 }
  - { offsetInCU: 0x7B6E, offset: 0x30870, size: 0x8, addend: 0x0, symName: __ZNKSt3__112basic_stringIcNS_11char_traitsIcEENS_9allocatorIcEEE16__get_short_sizeB8ue170006Ev, symObjAddr: 0xE24, symBinAddr: 0x100009140, symSize: 0x34 }
  - { offsetInCU: 0x7B94, offset: 0x30896, size: 0x8, addend: 0x0, symName: __ZNKSt3__117__compressed_pairINS_12basic_stringIcNS_11char_traitsIcEENS_9allocatorIcEEE5__repES5_E5firstB8ue170006Ev, symObjAddr: 0xE58, symBinAddr: 0x100009174, symSize: 0x24 }
  - { offsetInCU: 0x7BBA, offset: 0x308BC, size: 0x8, addend: 0x0, symName: __ZNKSt3__122__compressed_pair_elemINS_12basic_stringIcNS_11char_traitsIcEENS_9allocatorIcEEE5__repELi0ELb0EE5__getB8ue170006Ev, symObjAddr: 0xE7C, symBinAddr: 0x100009198, symSize: 0x14 }
  - { offsetInCU: 0x7BE0, offset: 0x308E2, size: 0x8, addend: 0x0, symName: __ZNSt3__19allocatorIcEC1B8ue170006Ev, symObjAddr: 0xE90, symBinAddr: 0x1000091AC, symSize: 0x2C }
  - { offsetInCU: 0x7C0A, offset: 0x3090C, size: 0x8, addend: 0x0, symName: __ZNSt3__112basic_stringIcNS_11char_traitsIcEENS_9allocatorIcEEEC2B8ue170006Emc, symObjAddr: 0xEFC, symBinAddr: 0x1000091D8, symSize: 0x4C }
  - { offsetInCU: 0x7C57, offset: 0x30959, size: 0x8, addend: 0x0, symName: __ZNSt3__112basic_stringIcNS_11char_traitsIcEENS_9allocatorIcEEE6appendB8ue170006ERKS5_, symObjAddr: 0x1000, symBinAddr: 0x100009224, symSize: 0x4C }
  - { offsetInCU: 0x7C8C, offset: 0x3098E, size: 0x8, addend: 0x0, symName: __ZNKSt3__112basic_stringIcNS_11char_traitsIcEENS_9allocatorIcEEE4dataB8ue170006Ev, symObjAddr: 0x104C, symBinAddr: 0x100009270, symSize: 0x28 }
  - { offsetInCU: 0x7CB2, offset: 0x309B4, size: 0x8, addend: 0x0, symName: __ZNKSt3__112basic_stringIcNS_11char_traitsIcEENS_9allocatorIcEEE13__get_pointerB8ue170006Ev, symObjAddr: 0x1088, symBinAddr: 0x1000092AC, symSize: 0x54 }
  - { offsetInCU: 0x7CD8, offset: 0x309DA, size: 0x8, addend: 0x0, symName: __ZNKSt3__112basic_stringIcNS_11char_traitsIcEENS_9allocatorIcEEE18__get_long_pointerB8ue170006Ev, symObjAddr: 0x10DC, symBinAddr: 0x100009300, symSize: 0x28 }
  - { offsetInCU: 0x7CFE, offset: 0x30A00, size: 0x8, addend: 0x0, symName: __ZNKSt3__112basic_stringIcNS_11char_traitsIcEENS_9allocatorIcEEE19__get_short_pointerB8ue170006Ev, symObjAddr: 0x1104, symBinAddr: 0x100009328, symSize: 0x28 }
  - { offsetInCU: 0x7D24, offset: 0x30A26, size: 0x8, addend: 0x0, symName: __ZNSt3__114pointer_traitsIPKcE10pointer_toB8ue170006ERS1_, symObjAddr: 0x112C, symBinAddr: 0x100009350, symSize: 0x14 }
  - { offsetInCU: 0x7D47, offset: 0x30A49, size: 0x8, addend: 0x0, symName: __ZNSt3__112basic_stringIcNS_11char_traitsIcEENS_9allocatorIcEEEC2B8ue170006Ev, symObjAddr: 0x1140, symBinAddr: 0x100009364, symSize: 0x48 }
  - { offsetInCU: 0x7D71, offset: 0x30A73, size: 0x8, addend: 0x0, symName: __ZNSt3__112basic_stringIcNS_11char_traitsIcEENS_9allocatorIcEEE14__default_initB8ue170006Ev, symObjAddr: 0x1194, symBinAddr: 0x1000093AC, symSize: 0x40 }
  - { offsetInCU: 0x7D97, offset: 0x30A99, size: 0x8, addend: 0x0, symName: __ZNSt3__117__compressed_pairINS_12basic_stringIcNS_11char_traitsIcEENS_9allocatorIcEEE5__repES5_E5firstB8ue170006Ev, symObjAddr: 0x11D4, symBinAddr: 0x1000093EC, symSize: 0x24 }
  - { offsetInCU: 0x7DBD, offset: 0x30ABF, size: 0x8, addend: 0x0, symName: __ZNSt3__122__compressed_pair_elemINS_12basic_stringIcNS_11char_traitsIcEENS_9allocatorIcEEE5__repELi0ELb0EE5__getB8ue170006Ev, symObjAddr: 0x11F8, symBinAddr: 0x100009410, symSize: 0x14 }
  - { offsetInCU: 0x7DE3, offset: 0x30AE5, size: 0x8, addend: 0x0, symName: __ZNKSt3__16vectorINS_12basic_stringIcNS_11char_traitsIcEENS_9allocatorIcEEEENS4_IS6_EEE20__throw_out_of_rangeB8ue170006Ev, symObjAddr: 0x120C, symBinAddr: 0x100009424, symSize: 0x1C }
  - { offsetInCU: 0x7E09, offset: 0x30B0B, size: 0x8, addend: 0x0, symName: __ZNSt3__16vectorINS_12basic_stringIcNS_11char_traitsIcEENS_9allocatorIcEEEENS4_IS6_EEEC2B8ue170006ESt16initializer_listIS6_E, symObjAddr: 0x13BC, symBinAddr: 0x100009440, symSize: 0x120 }
  - { offsetInCU: 0x7E5E, offset: 0x30B60, size: 0x8, addend: 0x0, symName: __ZNSt3__117__compressed_pairIPNS_12basic_stringIcNS_11char_traitsIcEENS_9allocatorIcEEEENS4_IS6_EEEC1B8ue170006IDnNS_18__default_init_tagEEEOT_OT0_, symObjAddr: 0x14DC, symBinAddr: 0x100009560, symSize: 0x3C }
  - { offsetInCU: 0x7EB6, offset: 0x30BB8, size: 0x8, addend: 0x0, symName: __ZNKSt16initializer_listINSt3__112basic_stringIcNS0_11char_traitsIcEENS0_9allocatorIcEEEEE4sizeB8ue170006Ev, symObjAddr: 0x158C, symBinAddr: 0x1000095DC, symSize: 0x18 }
  - { offsetInCU: 0x7EDC, offset: 0x30BDE, size: 0x8, addend: 0x0, symName: __ZNSt3__16vectorINS_12basic_stringIcNS_11char_traitsIcEENS_9allocatorIcEEEENS4_IS6_EEE11__vallocateB8ue170006Em, symObjAddr: 0x15A4, symBinAddr: 0x1000095F4, symSize: 0xB4 }
  - { offsetInCU: 0x7F1F, offset: 0x30C21, size: 0x8, addend: 0x0, symName: __ZNSt3__16vectorINS_12basic_stringIcNS_11char_traitsIcEENS_9allocatorIcEEEENS4_IS6_EEE18__construct_at_endIPKS6_SB_EEvT_T0_m, symObjAddr: 0x1658, symBinAddr: 0x1000096A8, symSize: 0x8C }
  - { offsetInCU: 0x7F96, offset: 0x30C98, size: 0x8, addend: 0x0, symName: __ZNKSt16initializer_listINSt3__112basic_stringIcNS0_11char_traitsIcEENS0_9allocatorIcEEEEE5beginB8ue170006Ev, symObjAddr: 0x16E4, symBinAddr: 0x100009734, symSize: 0x18 }
  - { offsetInCU: 0x7FBC, offset: 0x30CBE, size: 0x8, addend: 0x0, symName: __ZNKSt16initializer_listINSt3__112basic_stringIcNS0_11char_traitsIcEENS0_9allocatorIcEEEEE3endB8ue170006Ev, symObjAddr: 0x16FC, symBinAddr: 0x10000974C, symSize: 0x28 }
  - { offsetInCU: 0x7FE2, offset: 0x30CE4, size: 0x8, addend: 0x0, symName: __ZNSt3__128__exception_guard_exceptionsINS_6vectorINS_12basic_stringIcNS_11char_traitsIcEENS_9allocatorIcEEEENS5_IS7_EEE16__destroy_vectorEE10__completeB8ue170006Ev, symObjAddr: 0x1724, symBinAddr: 0x100009774, symSize: 0x1C }
  - { offsetInCU: 0x8008, offset: 0x30D0A, size: 0x8, addend: 0x0, symName: __ZNSt3__128__exception_guard_exceptionsINS_6vectorINS_12basic_stringIcNS_11char_traitsIcEENS_9allocatorIcEEEENS5_IS7_EEE16__destroy_vectorEED1B8ue170006Ev, symObjAddr: 0x1740, symBinAddr: 0x100009790, symSize: 0x2C }
  - { offsetInCU: 0x8032, offset: 0x30D34, size: 0x8, addend: 0x0, symName: __ZNSt3__117__compressed_pairIPNS_12basic_stringIcNS_11char_traitsIcEENS_9allocatorIcEEEENS4_IS6_EEEC2B8ue170006IDnNS_18__default_init_tagEEEOT_OT0_, symObjAddr: 0x176C, symBinAddr: 0x1000097BC, symSize: 0x40 }
  - { offsetInCU: 0x808A, offset: 0x30D8C, size: 0x8, addend: 0x0, symName: __ZNSt3__122__compressed_pair_elemIPNS_12basic_stringIcNS_11char_traitsIcEENS_9allocatorIcEEEELi0ELb0EEC2B8ue170006IDnvEEOT_, symObjAddr: 0x17AC, symBinAddr: 0x1000097FC, symSize: 0x1C }
  - { offsetInCU: 0x80CC, offset: 0x30DCE, size: 0x8, addend: 0x0, symName: __ZNSt3__122__compressed_pair_elemINS_9allocatorINS_12basic_stringIcNS_11char_traitsIcEENS1_IcEEEEEELi1ELb1EEC2B8ue170006ENS_18__default_init_tagE, symObjAddr: 0x17C8, symBinAddr: 0x100009818, symSize: 0x2C }
  - { offsetInCU: 0x8101, offset: 0x30E03, size: 0x8, addend: 0x0, symName: __ZNSt3__19allocatorINS_12basic_stringIcNS_11char_traitsIcEENS0_IcEEEEEC2B8ue170006Ev, symObjAddr: 0x17F4, symBinAddr: 0x100009844, symSize: 0x2C }
  - { offsetInCU: 0x812B, offset: 0x30E2D, size: 0x8, addend: 0x0, symName: __ZNSt3__116__non_trivial_ifILb1ENS_9allocatorINS_12basic_stringIcNS_11char_traitsIcEENS1_IcEEEEEEEC2B8ue170006Ev, symObjAddr: 0x1820, symBinAddr: 0x100009870, symSize: 0x14 }
  - { offsetInCU: 0x8155, offset: 0x30E57, size: 0x8, addend: 0x0, symName: __ZNSt3__128__exception_guard_exceptionsINS_6vectorINS_12basic_stringIcNS_11char_traitsIcEENS_9allocatorIcEEEENS5_IS7_EEE16__destroy_vectorEEC1B8ue170006ESA_, symObjAddr: 0x1834, symBinAddr: 0x100009884, symSize: 0x34 }
  - { offsetInCU: 0x818D, offset: 0x30E8F, size: 0x8, addend: 0x0, symName: __ZNSt3__128__exception_guard_exceptionsINS_6vectorINS_12basic_stringIcNS_11char_traitsIcEENS_9allocatorIcEEEENS5_IS7_EEE16__destroy_vectorEEC2B8ue170006ESA_, symObjAddr: 0x1868, symBinAddr: 0x1000098B8, symSize: 0x24 }
  - { offsetInCU: 0x81C4, offset: 0x30EC6, size: 0x8, addend: 0x0, symName: __ZNKSt3__16vectorINS_12basic_stringIcNS_11char_traitsIcEENS_9allocatorIcEEEENS4_IS6_EEE8max_sizeEv, symObjAddr: 0x18AC, symBinAddr: 0x1000098DC, symSize: 0x60 }
  - { offsetInCU: 0x81ED, offset: 0x30EEF, size: 0x8, addend: 0x0, symName: __ZNKSt3__16vectorINS_12basic_stringIcNS_11char_traitsIcEENS_9allocatorIcEEEENS4_IS6_EEE20__throw_length_errorB8ue170006Ev, symObjAddr: 0x190C, symBinAddr: 0x10000993C, symSize: 0x1C }
  - { offsetInCU: 0x8213, offset: 0x30F15, size: 0x8, addend: 0x0, symName: __ZNSt3__16vectorINS_12basic_stringIcNS_11char_traitsIcEENS_9allocatorIcEEEENS4_IS6_EEE9__end_capB8ue170006Ev, symObjAddr: 0x1990, symBinAddr: 0x100009998, symSize: 0x28 }
  - { offsetInCU: 0x8239, offset: 0x30F3B, size: 0x8, addend: 0x0, symName: __ZNKSt3__16vectorINS_12basic_stringIcNS_11char_traitsIcEENS_9allocatorIcEEEENS4_IS6_EEE14__annotate_newB8ue170006Em, symObjAddr: 0x19B8, symBinAddr: 0x1000099C0, symSize: 0xC8 }
  - { offsetInCU: 0x8278, offset: 0x30F7A, size: 0x8, addend: 0x0, symName: __ZNSt3__116allocator_traitsINS_9allocatorINS_12basic_stringIcNS_11char_traitsIcEENS1_IcEEEEEEE8max_sizeB8ue170006IS7_vvEEmRKS7_, symObjAddr: 0x1AAC, symBinAddr: 0x100009A88, symSize: 0x28 }
  - { offsetInCU: 0x82A4, offset: 0x30FA6, size: 0x8, addend: 0x0, symName: __ZNKSt3__16vectorINS_12basic_stringIcNS_11char_traitsIcEENS_9allocatorIcEEEENS4_IS6_EEE7__allocB8ue170006Ev, symObjAddr: 0x1AD4, symBinAddr: 0x100009AB0, symSize: 0x28 }
  - { offsetInCU: 0x82D4, offset: 0x30FD6, size: 0x8, addend: 0x0, symName: __ZNKSt3__117__compressed_pairIPNS_12basic_stringIcNS_11char_traitsIcEENS_9allocatorIcEEEENS4_IS6_EEE6secondB8ue170006Ev, symObjAddr: 0x1BB4, symBinAddr: 0x100009AD8, symSize: 0x24 }
  - { offsetInCU: 0x82FA, offset: 0x30FFC, size: 0x8, addend: 0x0, symName: __ZNKSt3__122__compressed_pair_elemINS_9allocatorINS_12basic_stringIcNS_11char_traitsIcEENS1_IcEEEEEELi1ELb1EE5__getB8ue170006Ev, symObjAddr: 0x1BD8, symBinAddr: 0x100009AFC, symSize: 0x14 }
  - { offsetInCU: 0x8320, offset: 0x31022, size: 0x8, addend: 0x0, symName: __ZNSt3__19allocatorINS_12basic_stringIcNS_11char_traitsIcEENS0_IcEEEEE8allocateB8ue170006Em, symObjAddr: 0x1CD8, symBinAddr: 0x100009B10, symSize: 0x5C }
  - { offsetInCU: 0x8354, offset: 0x31056, size: 0x8, addend: 0x0, symName: __ZNSt3__117__compressed_pairIPNS_12basic_stringIcNS_11char_traitsIcEENS_9allocatorIcEEEENS4_IS6_EEE5firstB8ue170006Ev, symObjAddr: 0x1E70, symBinAddr: 0x100009B6C, symSize: 0x24 }
  - { offsetInCU: 0x837A, offset: 0x3107C, size: 0x8, addend: 0x0, symName: __ZNSt3__122__compressed_pair_elemIPNS_12basic_stringIcNS_11char_traitsIcEENS_9allocatorIcEEEELi0ELb0EE5__getB8ue170006Ev, symObjAddr: 0x1E94, symBinAddr: 0x100009B90, symSize: 0x14 }
  - { offsetInCU: 0x83B9, offset: 0x310BB, size: 0x8, addend: 0x0, symName: __ZNSt3__16vectorINS_12basic_stringIcNS_11char_traitsIcEENS_9allocatorIcEEEENS4_IS6_EEE21_ConstructTransactionC1B8ue170006ERS8_m, symObjAddr: 0x1FA4, symBinAddr: 0x100009BA4, symSize: 0x3C }
  - { offsetInCU: 0x8401, offset: 0x31103, size: 0x8, addend: 0x0, symName: __ZNSt3__16vectorINS_12basic_stringIcNS_11char_traitsIcEENS_9allocatorIcEEEENS4_IS6_EEE21_ConstructTransactionD1B8ue170006Ev, symObjAddr: 0x2060, symBinAddr: 0x100009C60, symSize: 0x2C }
  - { offsetInCU: 0x842B, offset: 0x3112D, size: 0x8, addend: 0x0, symName: __ZNSt3__16vectorINS_12basic_stringIcNS_11char_traitsIcEENS_9allocatorIcEEEENS4_IS6_EEE21_ConstructTransactionC2B8ue170006ERS8_m, symObjAddr: 0x208C, symBinAddr: 0x100009C8C, symSize: 0x4C }
  - { offsetInCU: 0x848C, offset: 0x3118E, size: 0x8, addend: 0x0, symName: __ZNSt3__119__unwrap_range_implIPKNS_12basic_stringIcNS_11char_traitsIcEENS_9allocatorIcEEEES8_E8__unwrapB8ue170006ES8_S8_, symObjAddr: 0x2268, symBinAddr: 0x100009E68, symSize: 0x58 }
  - { offsetInCU: 0x84C2, offset: 0x311C4, size: 0x8, addend: 0x0, symName: __ZNSt3__14pairIPKNS_12basic_stringIcNS_11char_traitsIcEENS_9allocatorIcEEEES8_EC1B8ue170006IS8_S8_LPv0EEEOT_OT0_, symObjAddr: 0x22E4, symBinAddr: 0x100009EE4, symSize: 0x3C }
  - { offsetInCU: 0x8521, offset: 0x31223, size: 0x8, addend: 0x0, symName: __ZNSt3__118__unwrap_iter_implIPKNS_12basic_stringIcNS_11char_traitsIcEENS_9allocatorIcEEEELb1EE8__unwrapB8ue170006ES8_, symObjAddr: 0x2320, symBinAddr: 0x100009F20, symSize: 0x24 }
  - { offsetInCU: 0x8544, offset: 0x31246, size: 0x8, addend: 0x0, symName: __ZNSt3__14pairIPKNS_12basic_stringIcNS_11char_traitsIcEENS_9allocatorIcEEEES8_EC2B8ue170006IS8_S8_LPv0EEEOT_OT0_, symObjAddr: 0x2358, symBinAddr: 0x100009F58, symSize: 0x34 }
  - { offsetInCU: 0x85A3, offset: 0x312A5, size: 0x8, addend: 0x0, symName: __ZNSt3__129_AllocatorDestroyRangeReverseINS_9allocatorINS_12basic_stringIcNS_11char_traitsIcEENS1_IcEEEEEEPS6_EC1B8ue170006ERS7_RS8_SB_, symObjAddr: 0x23D8, symBinAddr: 0x100009FD8, symSize: 0x44 }
  - { offsetInCU: 0x85FA, offset: 0x312FC, size: 0x8, addend: 0x0, symName: __ZNSt3__116allocator_traitsINS_9allocatorINS_12basic_stringIcNS_11char_traitsIcEENS1_IcEEEEEEE9constructB8ue170006IS6_JRKS6_EvvEEvRS7_PT_DpOT0_, symObjAddr: 0x241C, symBinAddr: 0x10000A01C, symSize: 0x30 }
  - { offsetInCU: 0x864F, offset: 0x31351, size: 0x8, addend: 0x0, symName: __ZNSt3__128__exception_guard_exceptionsINS_29_AllocatorDestroyRangeReverseINS_9allocatorINS_12basic_stringIcNS_11char_traitsIcEENS2_IcEEEEEEPS7_EEE10__completeB8ue170006Ev, symObjAddr: 0x244C, symBinAddr: 0x10000A04C, symSize: 0x1C }
  - { offsetInCU: 0x8675, offset: 0x31377, size: 0x8, addend: 0x0, symName: __ZNSt3__128__exception_guard_exceptionsINS_29_AllocatorDestroyRangeReverseINS_9allocatorINS_12basic_stringIcNS_11char_traitsIcEENS2_IcEEEEEEPS7_EEED1B8ue170006Ev, symObjAddr: 0x2468, symBinAddr: 0x10000A068, symSize: 0x2C }
  - { offsetInCU: 0x869F, offset: 0x313A1, size: 0x8, addend: 0x0, symName: __ZNSt3__128__exception_guard_exceptionsINS_29_AllocatorDestroyRangeReverseINS_9allocatorINS_12basic_stringIcNS_11char_traitsIcEENS2_IcEEEEEEPS7_EEEC1B8ue170006ESA_, symObjAddr: 0x2494, symBinAddr: 0x10000A094, symSize: 0x34 }
  - { offsetInCU: 0x86D8, offset: 0x313DA, size: 0x8, addend: 0x0, symName: __ZNSt3__128__exception_guard_exceptionsINS_29_AllocatorDestroyRangeReverseINS_9allocatorINS_12basic_stringIcNS_11char_traitsIcEENS2_IcEEEEEEPS7_EEEC2B8ue170006ESA_, symObjAddr: 0x24C8, symBinAddr: 0x10000A0C8, symSize: 0x30 }
  - { offsetInCU: 0x8711, offset: 0x31413, size: 0x8, addend: 0x0, symName: __ZNSt3__129_AllocatorDestroyRangeReverseINS_9allocatorINS_12basic_stringIcNS_11char_traitsIcEENS1_IcEEEEEEPS6_EC2B8ue170006ERS7_RS8_SB_, symObjAddr: 0x24F8, symBinAddr: 0x10000A0F8, symSize: 0x38 }
  - { offsetInCU: 0x8768, offset: 0x3146A, size: 0x8, addend: 0x0, symName: __ZNSt3__128__exception_guard_exceptionsINS_29_AllocatorDestroyRangeReverseINS_9allocatorINS_12basic_stringIcNS_11char_traitsIcEENS2_IcEEEEEEPS7_EEED2B8ue170006Ev, symObjAddr: 0x256C, symBinAddr: 0x10000A16C, symSize: 0x50 }
  - { offsetInCU: 0x8792, offset: 0x31494, size: 0x8, addend: 0x0, symName: __ZNKSt3__129_AllocatorDestroyRangeReverseINS_9allocatorINS_12basic_stringIcNS_11char_traitsIcEENS1_IcEEEEEEPS6_EclB8ue170006Ev, symObjAddr: 0x25BC, symBinAddr: 0x10000A1BC, symSize: 0x68 }
  - { offsetInCU: 0x87B8, offset: 0x314BA, size: 0x8, addend: 0x0, symName: __ZNSt3__116reverse_iteratorIPNS_12basic_stringIcNS_11char_traitsIcEENS_9allocatorIcEEEEEC1B8ue170006ES7_, symObjAddr: 0x2694, symBinAddr: 0x10000A294, symSize: 0x34 }
  - { offsetInCU: 0x87F0, offset: 0x314F2, size: 0x8, addend: 0x0, symName: __ZNSt3__116reverse_iteratorIPNS_12basic_stringIcNS_11char_traitsIcEENS_9allocatorIcEEEEEppB8ue170006Ev, symObjAddr: 0x275C, symBinAddr: 0x10000A334, symSize: 0x20 }
  - { offsetInCU: 0x8816, offset: 0x31518, size: 0x8, addend: 0x0, symName: __ZNKSt3__116reverse_iteratorIPNS_12basic_stringIcNS_11char_traitsIcEENS_9allocatorIcEEEEE4baseB8ue170006Ev, symObjAddr: 0x277C, symBinAddr: 0x10000A354, symSize: 0x18 }
  - { offsetInCU: 0x8841, offset: 0x31543, size: 0x8, addend: 0x0, symName: __ZNSt3__119__to_address_helperINS_16reverse_iteratorIPNS_12basic_stringIcNS_11char_traitsIcEENS_9allocatorIcEEEEEEvE6__callB8ue170006ERKS9_, symObjAddr: 0x27DC, symBinAddr: 0x10000A36C, symSize: 0x38 }
  - { offsetInCU: 0x8864, offset: 0x31566, size: 0x8, addend: 0x0, symName: __ZNKSt3__116reverse_iteratorIPNS_12basic_stringIcNS_11char_traitsIcEENS_9allocatorIcEEEEEptB8ue170006Ev, symObjAddr: 0x2814, symBinAddr: 0x10000A3A4, symSize: 0x2C }
  - { offsetInCU: 0x888A, offset: 0x3158C, size: 0x8, addend: 0x0, symName: __ZNSt3__116reverse_iteratorIPNS_12basic_stringIcNS_11char_traitsIcEENS_9allocatorIcEEEEEC2B8ue170006ES7_, symObjAddr: 0x28F8, symBinAddr: 0x10000A474, symSize: 0x28 }
  - { offsetInCU: 0x88C2, offset: 0x315C4, size: 0x8, addend: 0x0, symName: __ZNSt3__118__unwrap_iter_implIPNS_12basic_stringIcNS_11char_traitsIcEENS_9allocatorIcEEEELb1EE8__unwrapB8ue170006ES7_, symObjAddr: 0x2920, symBinAddr: 0x10000A49C, symSize: 0x24 }
  - { offsetInCU: 0x88E5, offset: 0x315E7, size: 0x8, addend: 0x0, symName: __ZNSt3__118__unwrap_iter_implIPNS_12basic_stringIcNS_11char_traitsIcEENS_9allocatorIcEEEELb1EE8__rewrapB8ue170006ES7_S7_, symObjAddr: 0x2944, symBinAddr: 0x10000A4C0, symSize: 0x58 }
  - { offsetInCU: 0x8916, offset: 0x31618, size: 0x8, addend: 0x0, symName: __ZNSt3__16vectorINS_12basic_stringIcNS_11char_traitsIcEENS_9allocatorIcEEEENS4_IS6_EEE21_ConstructTransactionD2B8ue170006Ev, symObjAddr: 0x299C, symBinAddr: 0x10000A518, symSize: 0x20 }
  - { offsetInCU: 0x8940, offset: 0x31642, size: 0x8, addend: 0x0, symName: __ZNSt3__128__exception_guard_exceptionsINS_6vectorINS_12basic_stringIcNS_11char_traitsIcEENS_9allocatorIcEEEENS5_IS7_EEE16__destroy_vectorEED2B8ue170006Ev, symObjAddr: 0x29BC, symBinAddr: 0x10000A538, symSize: 0x50 }
  - { offsetInCU: 0x896A, offset: 0x3166C, size: 0x8, addend: 0x0, symName: __ZNSt3__16vectorINS_12basic_stringIcNS_11char_traitsIcEENS_9allocatorIcEEEENS4_IS6_EEEC2B8ue170006Ev, symObjAddr: 0x2DA4, symBinAddr: 0x10000A588, symSize: 0x4C }
  - { offsetInCU: 0x8994, offset: 0x31696, size: 0x8, addend: 0x0, symName: __ZNSt3__16vectorINS_12basic_stringIcNS_11char_traitsIcEENS_9allocatorIcEEEENS4_IS6_EEE22__construct_one_at_endB8ue170006IJS6_EEEvDpOT_, symObjAddr: 0x2DF0, symBinAddr: 0x10000A5D4, symSize: 0x90 }
  - { offsetInCU: 0x89E2, offset: 0x316E4, size: 0x8, addend: 0x0, symName: __ZNSt3__16vectorINS_12basic_stringIcNS_11char_traitsIcEENS_9allocatorIcEEEENS4_IS6_EEE24__emplace_back_slow_pathIJS6_EEEvDpOT_, symObjAddr: 0x2E80, symBinAddr: 0x10000A664, symSize: 0xD8 }
  - { offsetInCU: 0x8A43, offset: 0x31745, size: 0x8, addend: 0x0, symName: __ZNSt3__16vectorINS_12basic_stringIcNS_11char_traitsIcEENS_9allocatorIcEEEENS4_IS6_EEE4backB8ue170006Ev, symObjAddr: 0x2F58, symBinAddr: 0x10000A73C, symSize: 0x1C }
  - { offsetInCU: 0x8A69, offset: 0x3176B, size: 0x8, addend: 0x0, symName: __ZNSt3__116allocator_traitsINS_9allocatorINS_12basic_stringIcNS_11char_traitsIcEENS1_IcEEEEEEE9constructB8ue170006IS6_JS6_EvvEEvRS7_PT_DpOT0_, symObjAddr: 0x2F74, symBinAddr: 0x10000A758, symSize: 0x30 }
  - { offsetInCU: 0x8ABE, offset: 0x317C0, size: 0x8, addend: 0x0, symName: __ZNSt3__112basic_stringIcNS_11char_traitsIcEENS_9allocatorIcEEEC1B8ue170006EOS5_, symObjAddr: 0x2FE0, symBinAddr: 0x10000A7C4, symSize: 0x34 }
  - { offsetInCU: 0x8AF7, offset: 0x317F9, size: 0x8, addend: 0x0, symName: __ZNSt3__112basic_stringIcNS_11char_traitsIcEENS_9allocatorIcEEEC2B8ue170006EOS5_, symObjAddr: 0x3014, symBinAddr: 0x10000A7F8, symSize: 0x48 }
  - { offsetInCU: 0x8B2F, offset: 0x31831, size: 0x8, addend: 0x0, symName: __ZNKSt3__16vectorINS_12basic_stringIcNS_11char_traitsIcEENS_9allocatorIcEEEENS4_IS6_EEE11__recommendB8ue170006Em, symObjAddr: 0x305C, symBinAddr: 0x10000A840, symSize: 0xB4 }
  - { offsetInCU: 0x8B85, offset: 0x31887, size: 0x8, addend: 0x0, symName: __ZNSt3__114__split_bufferINS_12basic_stringIcNS_11char_traitsIcEENS_9allocatorIcEEEERNS4_IS6_EEEC1EmmS8_, symObjAddr: 0x3110, symBinAddr: 0x10000A8F4, symSize: 0x44 }
  - { offsetInCU: 0x8BDB, offset: 0x318DD, size: 0x8, addend: 0x0, symName: __ZNSt3__114__split_bufferINS_12basic_stringIcNS_11char_traitsIcEENS_9allocatorIcEEEERNS4_IS6_EEED1Ev, symObjAddr: 0x3264, symBinAddr: 0x10000AA48, symSize: 0x2C }
  - { offsetInCU: 0x8C07, offset: 0x31909, size: 0x8, addend: 0x0, symName: __ZNSt3__114__split_bufferINS_12basic_stringIcNS_11char_traitsIcEENS_9allocatorIcEEEERNS4_IS6_EEEC2EmmS8_, symObjAddr: 0x3310, symBinAddr: 0x10000AAF4, symSize: 0xE0 }
  - { offsetInCU: 0x8C7A, offset: 0x3197C, size: 0x8, addend: 0x0, symName: __ZNSt3__117__compressed_pairIPNS_12basic_stringIcNS_11char_traitsIcEENS_9allocatorIcEEEERNS4_IS6_EEEC1B8ue170006IDnS9_EEOT_OT0_, symObjAddr: 0x33F0, symBinAddr: 0x10000ABD4, symSize: 0x3C }
  - { offsetInCU: 0x8CD2, offset: 0x319D4, size: 0x8, addend: 0x0, symName: __ZNSt3__114__split_bufferINS_12basic_stringIcNS_11char_traitsIcEENS_9allocatorIcEEEERNS4_IS6_EEE7__allocB8ue170006Ev, symObjAddr: 0x342C, symBinAddr: 0x10000AC10, symSize: 0x28 }
  - { offsetInCU: 0x8CF8, offset: 0x319FA, size: 0x8, addend: 0x0, symName: __ZNSt3__114__split_bufferINS_12basic_stringIcNS_11char_traitsIcEENS_9allocatorIcEEEERNS4_IS6_EEE9__end_capB8ue170006Ev, symObjAddr: 0x3454, symBinAddr: 0x10000AC38, symSize: 0x28 }
  - { offsetInCU: 0x8D1E, offset: 0x31A20, size: 0x8, addend: 0x0, symName: __ZNSt3__117__compressed_pairIPNS_12basic_stringIcNS_11char_traitsIcEENS_9allocatorIcEEEERNS4_IS6_EEEC2B8ue170006IDnS9_EEOT_OT0_, symObjAddr: 0x347C, symBinAddr: 0x10000AC60, symSize: 0x48 }
  - { offsetInCU: 0x8D76, offset: 0x31A78, size: 0x8, addend: 0x0, symName: __ZNSt3__122__compressed_pair_elemIRNS_9allocatorINS_12basic_stringIcNS_11char_traitsIcEENS1_IcEEEEEELi1ELb0EEC2B8ue170006IS8_vEEOT_, symObjAddr: 0x34C4, symBinAddr: 0x10000ACA8, symSize: 0x20 }
  - { offsetInCU: 0x8DB8, offset: 0x31ABA, size: 0x8, addend: 0x0, symName: __ZNSt3__117__compressed_pairIPNS_12basic_stringIcNS_11char_traitsIcEENS_9allocatorIcEEEERNS4_IS6_EEE6secondB8ue170006Ev, symObjAddr: 0x34E4, symBinAddr: 0x10000ACC8, symSize: 0x28 }
  - { offsetInCU: 0x8DDE, offset: 0x31AE0, size: 0x8, addend: 0x0, symName: __ZNSt3__122__compressed_pair_elemIRNS_9allocatorINS_12basic_stringIcNS_11char_traitsIcEENS1_IcEEEEEELi1ELb0EE5__getB8ue170006Ev, symObjAddr: 0x350C, symBinAddr: 0x10000ACF0, symSize: 0x18 }
  - { offsetInCU: 0x8E04, offset: 0x31B06, size: 0x8, addend: 0x0, symName: __ZNSt3__117__compressed_pairIPNS_12basic_stringIcNS_11char_traitsIcEENS_9allocatorIcEEEERNS4_IS6_EEE5firstB8ue170006Ev, symObjAddr: 0x3524, symBinAddr: 0x10000AD08, symSize: 0x24 }
  - { offsetInCU: 0x8E2A, offset: 0x31B2C, size: 0x8, addend: 0x0, symName: __ZNSt3__129_AllocatorDestroyRangeReverseINS_9allocatorINS_12basic_stringIcNS_11char_traitsIcEENS1_IcEEEEEENS_16reverse_iteratorIPS6_EEEC1B8ue170006ERS7_RSA_SD_, symObjAddr: 0x36F4, symBinAddr: 0x10000AED8, symSize: 0x44 }
  - { offsetInCU: 0x8E81, offset: 0x31B83, size: 0x8, addend: 0x0, symName: __ZNKSt3__116reverse_iteratorIPNS_12basic_stringIcNS_11char_traitsIcEENS_9allocatorIcEEEEEdeB8ue170006Ev, symObjAddr: 0x3738, symBinAddr: 0x10000AF1C, symSize: 0x28 }
  - { offsetInCU: 0x8EB6, offset: 0x31BB8, size: 0x8, addend: 0x0, symName: __ZNSt3__128__exception_guard_exceptionsINS_29_AllocatorDestroyRangeReverseINS_9allocatorINS_12basic_stringIcNS_11char_traitsIcEENS2_IcEEEEEENS_16reverse_iteratorIPS7_EEEEE10__completeB8ue170006Ev, symObjAddr: 0x3760, symBinAddr: 0x10000AF44, symSize: 0x1C }
  - { offsetInCU: 0x8EDC, offset: 0x31BDE, size: 0x8, addend: 0x0, symName: __ZNSt3__128__exception_guard_exceptionsINS_29_AllocatorDestroyRangeReverseINS_9allocatorINS_12basic_stringIcNS_11char_traitsIcEENS2_IcEEEEEENS_16reverse_iteratorIPS7_EEEEED1B8ue170006Ev, symObjAddr: 0x377C, symBinAddr: 0x10000AF60, symSize: 0x2C }
  - { offsetInCU: 0x8F06, offset: 0x31C08, size: 0x8, addend: 0x0, symName: __ZNSt3__128__exception_guard_exceptionsINS_29_AllocatorDestroyRangeReverseINS_9allocatorINS_12basic_stringIcNS_11char_traitsIcEENS2_IcEEEEEENS_16reverse_iteratorIPS7_EEEEEC1B8ue170006ESC_, symObjAddr: 0x37A8, symBinAddr: 0x10000AF8C, symSize: 0x34 }
  - { offsetInCU: 0x8F3F, offset: 0x31C41, size: 0x8, addend: 0x0, symName: __ZNSt3__128__exception_guard_exceptionsINS_29_AllocatorDestroyRangeReverseINS_9allocatorINS_12basic_stringIcNS_11char_traitsIcEENS2_IcEEEEEENS_16reverse_iteratorIPS7_EEEEEC2B8ue170006ESC_, symObjAddr: 0x37DC, symBinAddr: 0x10000AFC0, symSize: 0x30 }
  - { offsetInCU: 0x8F78, offset: 0x31C7A, size: 0x8, addend: 0x0, symName: __ZNSt3__129_AllocatorDestroyRangeReverseINS_9allocatorINS_12basic_stringIcNS_11char_traitsIcEENS1_IcEEEEEENS_16reverse_iteratorIPS6_EEEC2B8ue170006ERS7_RSA_SD_, symObjAddr: 0x380C, symBinAddr: 0x10000AFF0, symSize: 0x38 }
  - { offsetInCU: 0x8FCF, offset: 0x31CD1, size: 0x8, addend: 0x0, symName: __ZNSt3__128__exception_guard_exceptionsINS_29_AllocatorDestroyRangeReverseINS_9allocatorINS_12basic_stringIcNS_11char_traitsIcEENS2_IcEEEEEENS_16reverse_iteratorIPS7_EEEEED2B8ue170006Ev, symObjAddr: 0x3844, symBinAddr: 0x10000B028, symSize: 0x50 }
  - { offsetInCU: 0x8FF9, offset: 0x31CFB, size: 0x8, addend: 0x0, symName: __ZNKSt3__129_AllocatorDestroyRangeReverseINS_9allocatorINS_12basic_stringIcNS_11char_traitsIcEENS1_IcEEEEEENS_16reverse_iteratorIPS6_EEEclB8ue170006Ev, symObjAddr: 0x3894, symBinAddr: 0x10000B078, symSize: 0xB4 }
  - { offsetInCU: 0x9020, offset: 0x31D22, size: 0x8, addend: 0x0, symName: __ZNSt3__116reverse_iteratorINS0_IPNS_12basic_stringIcNS_11char_traitsIcEENS_9allocatorIcEEEEEEEC1B8ue170006ES8_, symObjAddr: 0x39B8, symBinAddr: 0x10000B19C, symSize: 0x3C }
  - { offsetInCU: 0x9058, offset: 0x31D5A, size: 0x8, addend: 0x0, symName: __ZNSt3__116reverse_iteratorINS0_IPNS_12basic_stringIcNS_11char_traitsIcEENS_9allocatorIcEEEEEEEppB8ue170006Ev, symObjAddr: 0x3A78, symBinAddr: 0x10000B25C, symSize: 0x30 }
  - { offsetInCU: 0x907E, offset: 0x31D80, size: 0x8, addend: 0x0, symName: __ZNKSt3__116reverse_iteratorINS0_IPNS_12basic_stringIcNS_11char_traitsIcEENS_9allocatorIcEEEEEEE4baseB8ue170006Ev, symObjAddr: 0x3AA8, symBinAddr: 0x10000B28C, symSize: 0x24 }
  - { offsetInCU: 0x90A9, offset: 0x31DAB, size: 0x8, addend: 0x0, symName: __ZNSt3__119__to_address_helperINS_16reverse_iteratorINS1_IPNS_12basic_stringIcNS_11char_traitsIcEENS_9allocatorIcEEEEEEEEvE6__callB8ue170006ERKSA_, symObjAddr: 0x3ACC, symBinAddr: 0x10000B2B0, symSize: 0x38 }
  - { offsetInCU: 0x90CC, offset: 0x31DCE, size: 0x8, addend: 0x0, symName: __ZNKSt3__116reverse_iteratorINS0_IPNS_12basic_stringIcNS_11char_traitsIcEENS_9allocatorIcEEEEEEEptB8ue170006Ev, symObjAddr: 0x3B04, symBinAddr: 0x10000B2E8, symSize: 0x4C }
  - { offsetInCU: 0x90F2, offset: 0x31DF4, size: 0x8, addend: 0x0, symName: __ZNSt3__116reverse_iteratorIPNS_12basic_stringIcNS_11char_traitsIcEENS_9allocatorIcEEEEEpLB8ue170006El, symObjAddr: 0x3C00, symBinAddr: 0x10000B3E4, symSize: 0x30 }
  - { offsetInCU: 0x9126, offset: 0x31E28, size: 0x8, addend: 0x0, symName: __ZNSt3__116reverse_iteratorIPNS_12basic_stringIcNS_11char_traitsIcEENS_9allocatorIcEEEEEmmB8ue170006Ev, symObjAddr: 0x3C30, symBinAddr: 0x10000B414, symSize: 0x20 }
  - { offsetInCU: 0x914C, offset: 0x31E4E, size: 0x8, addend: 0x0, symName: __ZNSt3__116reverse_iteratorINS0_IPNS_12basic_stringIcNS_11char_traitsIcEENS_9allocatorIcEEEEEEEC2B8ue170006ES8_, symObjAddr: 0x3C50, symBinAddr: 0x10000B434, symSize: 0x2C }
  - { offsetInCU: 0x9184, offset: 0x31E86, size: 0x8, addend: 0x0, symName: __ZNSt3__114__split_bufferINS_12basic_stringIcNS_11char_traitsIcEENS_9allocatorIcEEEERNS4_IS6_EEED2Ev, symObjAddr: 0x3C7C, symBinAddr: 0x10000B460, symSize: 0x8C }
  - { offsetInCU: 0x91B0, offset: 0x31EB2, size: 0x8, addend: 0x0, symName: __ZNSt3__114__split_bufferINS_12basic_stringIcNS_11char_traitsIcEENS_9allocatorIcEEEERNS4_IS6_EEE5clearB8ue170006Ev, symObjAddr: 0x3D08, symBinAddr: 0x10000B4EC, symSize: 0x28 }
  - { offsetInCU: 0x91D6, offset: 0x31ED8, size: 0x8, addend: 0x0, symName: __ZNKSt3__114__split_bufferINS_12basic_stringIcNS_11char_traitsIcEENS_9allocatorIcEEEERNS4_IS6_EEE8capacityB8ue170006Ev, symObjAddr: 0x3D30, symBinAddr: 0x10000B514, symSize: 0x40 }
  - { offsetInCU: 0x91FC, offset: 0x31EFE, size: 0x8, addend: 0x0, symName: __ZNSt3__114__split_bufferINS_12basic_stringIcNS_11char_traitsIcEENS_9allocatorIcEEEERNS4_IS6_EEE17__destruct_at_endB8ue170006EPS6_, symObjAddr: 0x3D70, symBinAddr: 0x10000B554, symSize: 0x2C }
  - { offsetInCU: 0x922F, offset: 0x31F31, size: 0x8, addend: 0x0, symName: __ZNSt3__114__split_bufferINS_12basic_stringIcNS_11char_traitsIcEENS_9allocatorIcEEEERNS4_IS6_EEE17__destruct_at_endB8ue170006EPS6_NS_17integral_constantIbLb0EEE, symObjAddr: 0x3D9C, symBinAddr: 0x10000B580, symSize: 0x80 }
  - { offsetInCU: 0x9271, offset: 0x31F73, size: 0x8, addend: 0x0, symName: __ZNKSt3__114__split_bufferINS_12basic_stringIcNS_11char_traitsIcEENS_9allocatorIcEEEERNS4_IS6_EEE9__end_capB8ue170006Ev, symObjAddr: 0x3E1C, symBinAddr: 0x10000B600, symSize: 0x28 }
  - { offsetInCU: 0x9297, offset: 0x31F99, size: 0x8, addend: 0x0, symName: __ZNKSt3__117__compressed_pairIPNS_12basic_stringIcNS_11char_traitsIcEENS_9allocatorIcEEEERNS4_IS6_EEE5firstB8ue170006Ev, symObjAddr: 0x3E44, symBinAddr: 0x10000B628, symSize: 0x24 }
  - { offsetInCU: 0x92BD, offset: 0x31FBF, size: 0x8, addend: 0x0, symName: __ZNSt3__112basic_stringIcNS_11char_traitsIcEENS_9allocatorIcEEE15__make_iteratorB8ue170006EPc, symObjAddr: 0x3EA8, symBinAddr: 0x10000B64C, symSize: 0x30 }
  - { offsetInCU: 0x92F2, offset: 0x31FF4, size: 0x8, addend: 0x0, symName: __ZNSt3__112basic_stringIcNS_11char_traitsIcEENS_9allocatorIcEEE13__get_pointerB8ue170006Ev, symObjAddr: 0x3ED8, symBinAddr: 0x10000B67C, symSize: 0x54 }
  - { offsetInCU: 0x9318, offset: 0x3201A, size: 0x8, addend: 0x0, symName: __ZNSt3__111__wrap_iterIPcEC1B8ue170006ES1_, symObjAddr: 0x3F2C, symBinAddr: 0x10000B6D0, symSize: 0x34 }
  - { offsetInCU: 0x9350, offset: 0x32052, size: 0x8, addend: 0x0, symName: __ZNSt3__111__wrap_iterIPcEC2B8ue170006ES1_, symObjAddr: 0x3F60, symBinAddr: 0x10000B704, symSize: 0x20 }
  - { offsetInCU: 0x9388, offset: 0x3208A, size: 0x8, addend: 0x0, symName: __ZNSt3__112basic_stringIcNS_11char_traitsIcEENS_9allocatorIcEEE18__get_long_pointerB8ue170006Ev, symObjAddr: 0x3F80, symBinAddr: 0x10000B724, symSize: 0x28 }
  - { offsetInCU: 0x93AE, offset: 0x320B0, size: 0x8, addend: 0x0, symName: __ZNSt3__112basic_stringIcNS_11char_traitsIcEENS_9allocatorIcEEE19__get_short_pointerB8ue170006Ev, symObjAddr: 0x3FA8, symBinAddr: 0x10000B74C, symSize: 0x28 }
  - { offsetInCU: 0x93D4, offset: 0x320D6, size: 0x8, addend: 0x0, symName: __ZNSt3__114pointer_traitsIPcE10pointer_toB8ue170006ERc, symObjAddr: 0x3FD0, symBinAddr: 0x10000B774, symSize: 0x14 }
  - { offsetInCU: 0x93F7, offset: 0x320F9, size: 0x8, addend: 0x0, symName: __ZNKSt3__111__wrap_iterIPcE4baseB8ue170006Ev, symObjAddr: 0x402C, symBinAddr: 0x10000B7D0, symSize: 0x18 }
  - { offsetInCU: 0x69EB, offset: 0x38BA9, size: 0x8, addend: 0x0, symName: __ZNSt3__1plB8ue170006IcNS_11char_traitsIcEENS_9allocatorIcEEEENS_12basic_stringIT_T0_T1_EEOS9_PKS6_, symObjAddr: 0x2700, symBinAddr: 0x10000DDF4, symSize: 0x40 }
  - { offsetInCU: 0x6ABD, offset: 0x38C7B, size: 0x8, addend: 0x0, symName: __ZNSt3__130__uninitialized_allocator_copyB8ue170006INS_9allocatorINS_12basic_stringIcNS_11char_traitsIcEENS1_IcEEEEEEPS6_S8_S8_EET2_RT_T0_T1_S9_, symObjAddr: 0x4BBC, symBinAddr: 0x10000E6EC, symSize: 0x80 }
  - { offsetInCU: 0x6B5A, offset: 0x38D18, size: 0x8, addend: 0x0, symName: __ZNSt3__114__unwrap_rangeB8ue170006IPNS_12basic_stringIcNS_11char_traitsIcEENS_9allocatorIcEEEES7_EEDaT_T0_, symObjAddr: 0x4C3C, symBinAddr: 0x10000E76C, symSize: 0x3C }
  - { offsetInCU: 0x6BA6, offset: 0x38D64, size: 0x8, addend: 0x0, symName: __ZNSt3__135__uninitialized_allocator_copy_implB8ue170006INS_9allocatorINS_12basic_stringIcNS_11char_traitsIcEENS1_IcEEEEEEPS6_S8_S8_EET2_RT_T0_T1_S9_, symObjAddr: 0x4C78, symBinAddr: 0x10000E7A8, symSize: 0xF4 }
  - { offsetInCU: 0x6D61, offset: 0x38F1F, size: 0x8, addend: 0x0, symName: __ZNSt3__112construct_atB8ue170006INS_12basic_stringIcNS_11char_traitsIcEENS_9allocatorIcEEEEJRS6_EPS6_EEPT_SA_DpOT0_, symObjAddr: 0x4E64, symBinAddr: 0x10000E994, symSize: 0x3C }
  - { offsetInCU: 0x6DD3, offset: 0x38F91, size: 0x8, addend: 0x0, symName: __ZNSt3__18distanceB8ue170006IPNS_12basic_stringIcNS_11char_traitsIcEENS_9allocatorIcEEEEEENS_15iterator_traitsIT_E15difference_typeES9_S9_, symObjAddr: 0x5330, symBinAddr: 0x10000EC84, symSize: 0x2C }
  - { offsetInCU: 0x6E16, offset: 0x38FD4, size: 0x8, addend: 0x0, symName: __ZNSt3__14nextB8ue170006IPNS_12basic_stringIcNS_11char_traitsIcEENS_9allocatorIcEEEEEENS_9enable_ifIXsr29__has_input_iterator_categoryIT_EE5valueES9_E4typeES9_NS_15iterator_traitsIS9_E15difference_typeE, symObjAddr: 0x535C, symBinAddr: 0x10000ECB0, symSize: 0x34 }
  - { offsetInCU: 0x6E59, offset: 0x39017, size: 0x8, addend: 0x0, symName: __ZNSt3__14copyB8ue170006IPNS_12basic_stringIcNS_11char_traitsIcEENS_9allocatorIcEEEES7_EET0_T_S9_S8_, symObjAddr: 0x5390, symBinAddr: 0x10000ECE4, symSize: 0x40 }
  - { offsetInCU: 0x6EB3, offset: 0x39071, size: 0x8, addend: 0x0, symName: __ZNSt3__16__copyB8ue170006INS_17_ClassicAlgPolicyEPNS_12basic_stringIcNS_11char_traitsIcEENS_9allocatorIcEEEES8_S8_EENS_4pairIT0_T2_EESA_T1_SB_, symObjAddr: 0x53D0, symBinAddr: 0x10000ED24, symSize: 0x44 }
  - { offsetInCU: 0x6F1F, offset: 0x390DD, size: 0x8, addend: 0x0, symName: __ZNSt3__123__dispatch_copy_or_moveB8ue170006INS_17_ClassicAlgPolicyENS_11__copy_loopIS1_EENS_14__copy_trivialEPNS_12basic_stringIcNS_11char_traitsIcEENS_9allocatorIcEEEESB_SB_EENS_4pairIT2_T4_EESD_T3_SE_, symObjAddr: 0x55A8, symBinAddr: 0x10000EE48, symSize: 0x44 }
  - { offsetInCU: 0x6F9D, offset: 0x3915B, size: 0x8, addend: 0x0, symName: __ZNSt3__121__unwrap_and_dispatchB8ue170006INS_10__overloadINS_11__copy_loopINS_17_ClassicAlgPolicyEEENS_14__copy_trivialEEEPNS_12basic_stringIcNS_11char_traitsIcEENS_9allocatorIcEEEESD_SD_Li0EEENS_4pairIT0_T2_EESF_T1_SG_, symObjAddr: 0x55EC, symBinAddr: 0x10000EE8C, symSize: 0xB4 }
  - { offsetInCU: 0x7088, offset: 0x39246, size: 0x8, addend: 0x0, symName: __ZNSt3__19make_pairB8ue170006IPNS_12basic_stringIcNS_11char_traitsIcEENS_9allocatorIcEEEES7_EENS_4pairINS_18__unwrap_ref_decayIT_E4typeENS9_IT0_E4typeEEEOSA_OSD_, symObjAddr: 0x5728, symBinAddr: 0x10000EFC8, symSize: 0x38 }
  - { offsetInCU: 0x70D7, offset: 0x39295, size: 0x8, addend: 0x0, symName: __ZNSt3__114__rewrap_rangeB8ue170006IPNS_12basic_stringIcNS_11char_traitsIcEENS_9allocatorIcEEEES7_S7_EET0_S8_T1_, symObjAddr: 0x5760, symBinAddr: 0x10000F000, symSize: 0x2C }
  - { offsetInCU: 0x712C, offset: 0x392EA, size: 0x8, addend: 0x0, symName: __ZNSt3__110__distanceB8ue170006IPNS_12basic_stringIcNS_11char_traitsIcEENS_9allocatorIcEEEEEENS_15iterator_traitsIT_E15difference_typeES9_S9_NS_26random_access_iterator_tagE, symObjAddr: 0x594C, symBinAddr: 0x10000F16C, symSize: 0x28 }
  - { offsetInCU: 0x717A, offset: 0x39338, size: 0x8, addend: 0x0, symName: __ZNSt3__116__do_string_hashB8ue170006IPKcEEmT_S3_, symObjAddr: 0x725C, symBinAddr: 0x100010428, symSize: 0x3C }
  - { offsetInCU: 0x71C0, offset: 0x3937E, size: 0x8, addend: 0x0, symName: __ZNSt3__110__loadwordB8ue170006ImEET_PKv, symObjAddr: 0x7CCC, symBinAddr: 0x100010E1C, symSize: 0x20 }
  - { offsetInCU: 0x7204, offset: 0x393C2, size: 0x8, addend: 0x0, symName: __ZNSt3__14swapB8ue170006ImEENS_9enable_ifIXaasr21is_move_constructibleIT_EE5valuesr18is_move_assignableIS2_EE5valueEvE4typeERS2_S5_, symObjAddr: 0x7E88, symBinAddr: 0x100010FD8, symSize: 0x3C }
  - { offsetInCU: 0x7256, offset: 0x39414, size: 0x8, addend: 0x0, symName: __ZNSt3__110__loadwordB8ue170006IjEET_PKv, symObjAddr: 0x7F18, symBinAddr: 0x100011068, symSize: 0x20 }
  - { offsetInCU: 0x729A, offset: 0x39458, size: 0x8, addend: 0x0, symName: __ZNSt3__17launderB8ue170006IKNS_4pairIKNS_12basic_stringIcNS_11char_traitsIcEENS_9allocatorIcEEEE14BooleanSettingEEEEPT_SD_, symObjAddr: 0x8218, symBinAddr: 0x1000111D0, symSize: 0x24 }
  - { offsetInCU: 0x72D1, offset: 0x3948F, size: 0x8, addend: 0x0, symName: __ZNSt3__19__launderB8ue170006IKNS_4pairIKNS_12basic_stringIcNS_11char_traitsIcEENS_9allocatorIcEEEE14BooleanSettingEEEEPT_SD_, symObjAddr: 0x823C, symBinAddr: 0x1000111F4, symSize: 0x14 }
  - { offsetInCU: 0x7308, offset: 0x394C6, size: 0x8, addend: 0x0, symName: __ZNSt3__116__constrain_hashB8ue170006Emm, symObjAddr: 0x8250, symBinAddr: 0x100011208, symSize: 0x98 }
  - { offsetInCU: 0x7342, offset: 0x39500, size: 0x8, addend: 0x0, symName: __ZNSt3__116__is_hash_power2B8ue170006Em, symObjAddr: 0x83B8, symBinAddr: 0x100011370, symSize: 0x50 }
  - { offsetInCU: 0x736E, offset: 0x3952C, size: 0x8, addend: 0x0, symName: __ZNSt3__1eqB8ue170006INS_9allocatorIcEEEEbRKNS_12basic_stringIcNS_11char_traitsIcEET_EES9_, symObjAddr: 0x848C, symBinAddr: 0x10001142C, symSize: 0x148 }
  - { offsetInCU: 0x73E1, offset: 0x3959F, size: 0x8, addend: 0x0, symName: __ZNSt3__116__next_hash_pow2B8ue170006Em, symObjAddr: 0x8A70, symBinAddr: 0x100011A10, symSize: 0x6C }
  - { offsetInCU: 0x740D, offset: 0x395CB, size: 0x8, addend: 0x0, symName: __ZNSt3__112__libcpp_clzB8ue170006Em, symObjAddr: 0x8C24, symBinAddr: 0x100011BC4, symSize: 0x1C }
  - { offsetInCU: 0x747E, offset: 0x3963C, size: 0x8, addend: 0x0, symName: __ZNSt3__112construct_atB8ue170006INS_4pairIKNS_12basic_stringIcNS_11char_traitsIcEENS_9allocatorIcEEEE14BooleanSettingEEJRKSA_EPSA_EEPT_SF_DpOT0_, symObjAddr: 0x9694, symBinAddr: 0x100012634, symSize: 0x3C }
  - { offsetInCU: 0x74F0, offset: 0x396AE, size: 0x8, addend: 0x0, symName: __ZNSt3__1eqB8ue170006ERKNS_25__hash_map_const_iteratorINS_21__hash_const_iteratorIPNS_11__hash_nodeINS_17__hash_value_typeINS_12basic_stringIcNS_11char_traitsIcEENS_9allocatorIcEEEE14BooleanSettingEEPvEEEEEESI_, symObjAddr: 0x9960, symBinAddr: 0x100012900, symSize: 0x30 }
  - { offsetInCU: 0x752D, offset: 0x396EB, size: 0x8, addend: 0x0, symName: __ZNSt3__1eqB8ue170006ERKNS_21__hash_const_iteratorIPNS_11__hash_nodeINS_17__hash_value_typeINS_12basic_stringIcNS_11char_traitsIcEENS_9allocatorIcEEEE14BooleanSettingEEPvEEEESG_, symObjAddr: 0x9A08, symBinAddr: 0x1000129A8, symSize: 0x30 }
  - { offsetInCU: 0x75D0, offset: 0x3978E, size: 0x8, addend: 0x0, symName: __ZNSt3__1eqB8ue170006ERKNS_19__hash_map_iteratorINS_15__hash_iteratorIPNS_11__hash_nodeINS_17__hash_value_typeINS_12basic_stringIcNS_11char_traitsIcEENS_9allocatorIcEEEE14BooleanSettingEEPvEEEEEESI_, symObjAddr: 0x9F2C, symBinAddr: 0x100012DE8, symSize: 0x30 }
  - { offsetInCU: 0x760D, offset: 0x397CB, size: 0x8, addend: 0x0, symName: __ZNSt3__1eqB8ue170006ERKNS_15__hash_iteratorIPNS_11__hash_nodeINS_17__hash_value_typeINS_12basic_stringIcNS_11char_traitsIcEENS_9allocatorIcEEEE14BooleanSettingEEPvEEEESG_, symObjAddr: 0xA1F0, symBinAddr: 0x1000130AC, symSize: 0x30 }
  - { offsetInCU: 0x9DE8, offset: 0x3BFA6, size: 0x8, addend: 0x0, symName: __ZN8SettingsC2Ev, symObjAddr: 0x0, symBinAddr: 0x10000B7E8, symSize: 0x22F8 }
  - { offsetInCU: 0x9E15, offset: 0x3BFD3, size: 0x8, addend: 0x0, symName: __ZNSt3__113unordered_mapINS_12basic_stringIcNS_11char_traitsIcEENS_9allocatorIcEEEE14BooleanSettingNS_4hashIS6_EENS_8equal_toIS6_EENS4_INS_4pairIKS6_S7_EEEEEC1B8ue170006Ev, symObjAddr: 0x22F8, symBinAddr: 0x10000DAE0, symSize: 0x2C }
  - { offsetInCU: 0x9E44, offset: 0x3C002, size: 0x8, addend: 0x0, symName: __ZNSt3__14pairIKNS_12basic_stringIcNS_11char_traitsIcEENS_9allocatorIcEEEE14BooleanSettingEC1B8ue170006ILb1ELPv0EEERS7_RKS8_, symObjAddr: 0x2394, symBinAddr: 0x10000DB0C, symSize: 0x3C }
  - { offsetInCU: 0x9E9B, offset: 0x3C059, size: 0x8, addend: 0x0, symName: __ZNSt3__113unordered_mapINS_12basic_stringIcNS_11char_traitsIcEENS_9allocatorIcEEEE14BooleanSettingNS_4hashIS6_EENS_8equal_toIS6_EENS4_INS_4pairIKS6_S7_EEEEEaSESt16initializer_listISE_E, symObjAddr: 0x23D0, symBinAddr: 0x10000DB48, symSize: 0x60 }
  - { offsetInCU: 0x9ED7, offset: 0x3C095, size: 0x8, addend: 0x0, symName: __ZN8SettingsC1Ev, symObjAddr: 0x24B4, symBinAddr: 0x10000DBA8, symSize: 0x2C }
  - { offsetInCU: 0x9F03, offset: 0x3C0C1, size: 0x8, addend: 0x0, symName: __ZNK8Settings9isEnabledERKNSt3__112basic_stringIcNS0_11char_traitsIcEENS0_9allocatorIcEEEE, symObjAddr: 0x24E0, symBinAddr: 0x10000DBD4, symSize: 0x140 }
  - { offsetInCU: 0x9F39, offset: 0x3C0F7, size: 0x8, addend: 0x0, symName: __ZNKSt3__113unordered_mapINS_12basic_stringIcNS_11char_traitsIcEENS_9allocatorIcEEEE14BooleanSettingNS_4hashIS6_EENS_8equal_toIS6_EENS4_INS_4pairIKS6_S7_EEEEE8containsB8ue170006ERSD_, symObjAddr: 0x2620, symBinAddr: 0x10000DD14, symSize: 0x64 }
  - { offsetInCU: 0x9F6E, offset: 0x3C12C, size: 0x8, addend: 0x0, symName: __ZNKSt3__113unordered_mapINS_12basic_stringIcNS_11char_traitsIcEENS_9allocatorIcEEEE14BooleanSettingNS_4hashIS6_EENS_8equal_toIS6_EENS4_INS_4pairIKS6_S7_EEEEE2atERSD_, symObjAddr: 0x2684, symBinAddr: 0x10000DD78, symSize: 0x7C }
  - { offsetInCU: 0x9FB4, offset: 0x3C172, size: 0x8, addend: 0x0, symName: __ZNSt16invalid_argumentC1B8ue170006ERKNSt3__112basic_stringIcNS0_11char_traitsIcEENS0_9allocatorIcEEEE, symObjAddr: 0x2740, symBinAddr: 0x10000DE34, symSize: 0x34 }
  - { offsetInCU: 0x9FEC, offset: 0x3C1AA, size: 0x8, addend: 0x0, symName: __ZNK8Settings14getDisplayNameERKNSt3__112basic_stringIcNS0_11char_traitsIcEENS0_9allocatorIcEEEE, symObjAddr: 0x2774, symBinAddr: 0x10000DE68, symSize: 0x13C }
  - { offsetInCU: 0xA022, offset: 0x3C1E0, size: 0x8, addend: 0x0, symName: __ZNK8Settings14getDescriptionERKNSt3__112basic_stringIcNS0_11char_traitsIcEENS0_9allocatorIcEEEE, symObjAddr: 0x28B0, symBinAddr: 0x10000DFA4, symSize: 0x13C }
  - { offsetInCU: 0xA058, offset: 0x3C216, size: 0x8, addend: 0x0, symName: __ZN8Settings13updateSettingERKNSt3__112basic_stringIcNS0_11char_traitsIcEENS0_9allocatorIcEEEERK14BooleanSetting, symObjAddr: 0x29EC, symBinAddr: 0x10000E0E0, symSize: 0x14C }
  - { offsetInCU: 0xA09C, offset: 0x3C25A, size: 0x8, addend: 0x0, symName: __ZNSt3__113unordered_mapINS_12basic_stringIcNS_11char_traitsIcEENS_9allocatorIcEEEE14BooleanSettingNS_4hashIS6_EENS_8equal_toIS6_EENS4_INS_4pairIKS6_S7_EEEEE2atERSD_, symObjAddr: 0x2B38, symBinAddr: 0x10000E22C, symSize: 0x7C }
  - { offsetInCU: 0xA0E2, offset: 0x3C2A0, size: 0x8, addend: 0x0, symName: __ZN14BooleanSettingaSERKS_, symObjAddr: 0x2BB4, symBinAddr: 0x10000E2A8, symSize: 0x60 }
  - { offsetInCU: 0xA140, offset: 0x3C2FE, size: 0x8, addend: 0x0, symName: __ZNSt3__14pairIKNS_12basic_stringIcNS_11char_traitsIcEENS_9allocatorIcEEEE14BooleanSettingEC2B8ue170006ILb1ELPv0EEERS7_RKS8_, symObjAddr: 0x47D8, symBinAddr: 0x10000E308, symSize: 0x70 }
  - { offsetInCU: 0xA197, offset: 0x3C355, size: 0x8, addend: 0x0, symName: __ZN14BooleanSettingC1ERKS_, symObjAddr: 0x4848, symBinAddr: 0x10000E378, symSize: 0x34 }
  - { offsetInCU: 0xA1CC, offset: 0x3C38A, size: 0x8, addend: 0x0, symName: __ZN14BooleanSettingC2ERKS_, symObjAddr: 0x487C, symBinAddr: 0x10000E3AC, symSize: 0x8C }
  - { offsetInCU: 0xA201, offset: 0x3C3BF, size: 0x8, addend: 0x0, symName: __ZNSt3__16vectorINS_12basic_stringIcNS_11char_traitsIcEENS_9allocatorIcEEEENS4_IS6_EEEC1ERKS8_, symObjAddr: 0x4908, symBinAddr: 0x10000E438, symSize: 0x34 }
  - { offsetInCU: 0xA23C, offset: 0x3C3FA, size: 0x8, addend: 0x0, symName: __ZNSt3__16vectorINS_12basic_stringIcNS_11char_traitsIcEENS_9allocatorIcEEEENS4_IS6_EEEC2ERKS8_, symObjAddr: 0x493C, symBinAddr: 0x10000E46C, symSize: 0x94 }
  - { offsetInCU: 0xA277, offset: 0x3C435, size: 0x8, addend: 0x0, symName: __ZNSt3__116allocator_traitsINS_9allocatorINS_12basic_stringIcNS_11char_traitsIcEENS1_IcEEEEEEE37select_on_container_copy_constructionB8ue170006IS7_vvEES7_RKS7_, symObjAddr: 0x49D0, symBinAddr: 0x10000E500, symSize: 0x10 }
  - { offsetInCU: 0xA2AB, offset: 0x3C469, size: 0x8, addend: 0x0, symName: __ZNSt3__117__compressed_pairIPNS_12basic_stringIcNS_11char_traitsIcEENS_9allocatorIcEEEENS4_IS6_EEEC1B8ue170006IDnS8_EEOT_OT0_, symObjAddr: 0x49E0, symBinAddr: 0x10000E510, symSize: 0x3C }
  - { offsetInCU: 0xA303, offset: 0x3C4C1, size: 0x8, addend: 0x0, symName: __ZNSt3__16vectorINS_12basic_stringIcNS_11char_traitsIcEENS_9allocatorIcEEEENS4_IS6_EEE16__init_with_sizeB8ue170006IPS6_SA_EEvT_T0_m, symObjAddr: 0x4A1C, symBinAddr: 0x10000E54C, symSize: 0xB8 }
  - { offsetInCU: 0xA377, offset: 0x3C535, size: 0x8, addend: 0x0, symName: __ZNSt3__117__compressed_pairIPNS_12basic_stringIcNS_11char_traitsIcEENS_9allocatorIcEEEENS4_IS6_EEEC2B8ue170006IDnS8_EEOT_OT0_, symObjAddr: 0x4AD4, symBinAddr: 0x10000E604, symSize: 0x44 }
  - { offsetInCU: 0xA3CF, offset: 0x3C58D, size: 0x8, addend: 0x0, symName: __ZNSt3__122__compressed_pair_elemINS_9allocatorINS_12basic_stringIcNS_11char_traitsIcEENS1_IcEEEEEELi1ELb1EEC2B8ue170006IS7_vEEOT_, symObjAddr: 0x4B18, symBinAddr: 0x10000E648, symSize: 0x18 }
  - { offsetInCU: 0xA411, offset: 0x3C5CF, size: 0x8, addend: 0x0, symName: __ZNSt3__16vectorINS_12basic_stringIcNS_11char_traitsIcEENS_9allocatorIcEEEENS4_IS6_EEE18__construct_at_endIPS6_SA_EEvT_T0_m, symObjAddr: 0x4B30, symBinAddr: 0x10000E660, symSize: 0x8C }
  - { offsetInCU: 0xA4A0, offset: 0x3C65E, size: 0x8, addend: 0x0, symName: __ZNSt3__119__unwrap_range_implIPNS_12basic_stringIcNS_11char_traitsIcEENS_9allocatorIcEEEES7_E8__unwrapB8ue170006ES7_S7_, symObjAddr: 0x4D6C, symBinAddr: 0x10000E89C, symSize: 0x58 }
  - { offsetInCU: 0xA4D6, offset: 0x3C694, size: 0x8, addend: 0x0, symName: __ZNSt3__14pairIPNS_12basic_stringIcNS_11char_traitsIcEENS_9allocatorIcEEEES7_EC1B8ue170006IS7_S7_LPv0EEEOT_OT0_, symObjAddr: 0x4DC4, symBinAddr: 0x10000E8F4, symSize: 0x3C }
  - { offsetInCU: 0xA535, offset: 0x3C6F3, size: 0x8, addend: 0x0, symName: __ZNSt3__14pairIPNS_12basic_stringIcNS_11char_traitsIcEENS_9allocatorIcEEEES7_EC2B8ue170006IS7_S7_LPv0EEEOT_OT0_, symObjAddr: 0x4E00, symBinAddr: 0x10000E930, symSize: 0x34 }
  - { offsetInCU: 0xA594, offset: 0x3C752, size: 0x8, addend: 0x0, symName: __ZNSt3__116allocator_traitsINS_9allocatorINS_12basic_stringIcNS_11char_traitsIcEENS1_IcEEEEEEE9constructB8ue170006IS6_JRS6_EvvEEvRS7_PT_DpOT0_, symObjAddr: 0x4E34, symBinAddr: 0x10000E964, symSize: 0x30 }
  - { offsetInCU: 0xA5E9, offset: 0x3C7A7, size: 0x8, addend: 0x0, symName: __ZNSt16invalid_argumentC2B8ue170006ERKNSt3__112basic_stringIcNS0_11char_traitsIcEENS0_9allocatorIcEEEE, symObjAddr: 0x507C, symBinAddr: 0x10000E9D0, symSize: 0x4C }
  - { offsetInCU: 0xA621, offset: 0x3C7DF, size: 0x8, addend: 0x0, symName: __ZNSt3__16vectorINS_12basic_stringIcNS_11char_traitsIcEENS_9allocatorIcEEEENS4_IS6_EEEaSB8ue170006ERKS8_, symObjAddr: 0x50C8, symBinAddr: 0x10000EA1C, symSize: 0x68 }
  - { offsetInCU: 0xA658, offset: 0x3C816, size: 0x8, addend: 0x0, symName: __ZNSt3__16vectorINS_12basic_stringIcNS_11char_traitsIcEENS_9allocatorIcEEEENS4_IS6_EEE19__copy_assign_allocB8ue170006ERKS8_, symObjAddr: 0x5130, symBinAddr: 0x10000EA84, symSize: 0x2C }
  - { offsetInCU: 0xA68D, offset: 0x3C84B, size: 0x8, addend: 0x0, symName: __ZNSt3__16vectorINS_12basic_stringIcNS_11char_traitsIcEENS_9allocatorIcEEEENS4_IS6_EEE6assignIPS6_Li0EEEvT_SB_, symObjAddr: 0x515C, symBinAddr: 0x10000EAB0, symSize: 0x5C }
  - { offsetInCU: 0xA6E2, offset: 0x3C8A0, size: 0x8, addend: 0x0, symName: __ZNSt3__16vectorINS_12basic_stringIcNS_11char_traitsIcEENS_9allocatorIcEEEENS4_IS6_EEE19__copy_assign_allocB8ue170006ERKS8_NS_17integral_constantIbLb0EEE, symObjAddr: 0x51B8, symBinAddr: 0x10000EB0C, symSize: 0x14 }
  - { offsetInCU: 0xA720, offset: 0x3C8DE, size: 0x8, addend: 0x0, symName: __ZNSt3__16vectorINS_12basic_stringIcNS_11char_traitsIcEENS_9allocatorIcEEEENS4_IS6_EEE18__assign_with_sizeB8ue170006IPS6_SA_EEvT_T0_l, symObjAddr: 0x51CC, symBinAddr: 0x10000EB20, symSize: 0x164 }
  - { offsetInCU: 0xA7D0, offset: 0x3C98E, size: 0x8, addend: 0x0, symName: __ZNSt3__16vectorINS_12basic_stringIcNS_11char_traitsIcEENS_9allocatorIcEEEENS4_IS6_EEE17__destruct_at_endB8ue170006EPS6_, symObjAddr: 0x5414, symBinAddr: 0x10000ED68, symSize: 0x4C }
  - { offsetInCU: 0xA814, offset: 0x3C9D2, size: 0x8, addend: 0x0, symName: __ZNSt3__16vectorINS_12basic_stringIcNS_11char_traitsIcEENS_9allocatorIcEEEENS4_IS6_EEE13__vdeallocateEv, symObjAddr: 0x5460, symBinAddr: 0x10000EDB4, symSize: 0x94 }
  - { offsetInCU: 0xA846, offset: 0x3CA04, size: 0x8, addend: 0x0, symName: __ZNKSt3__111__copy_loopINS_17_ClassicAlgPolicyEEclB8ue170006IPNS_12basic_stringIcNS_11char_traitsIcEENS_9allocatorIcEEEESA_SA_EENS_4pairIT_T1_EESC_T0_SD_, symObjAddr: 0x56A0, symBinAddr: 0x10000EF40, symSize: 0x88 }
  - { offsetInCU: 0xA8B1, offset: 0x3CA6F, size: 0x8, addend: 0x0, symName: __ZNSt3__119__unwrap_range_implIPNS_12basic_stringIcNS_11char_traitsIcEENS_9allocatorIcEEEES7_E8__rewrapB8ue170006ES7_S7_, symObjAddr: 0x578C, symBinAddr: 0x10000F02C, symSize: 0x2C }
  - { offsetInCU: 0xA8E2, offset: 0x3CAA0, size: 0x8, addend: 0x0, symName: __ZNKSt3__16vectorINS_12basic_stringIcNS_11char_traitsIcEENS_9allocatorIcEEEENS4_IS6_EEE17__annotate_shrinkB8ue170006Em, symObjAddr: 0x57B8, symBinAddr: 0x10000F058, symSize: 0xD0 }
  - { offsetInCU: 0xA917, offset: 0x3CAD5, size: 0x8, addend: 0x0, symName: __ZNSt3__16vectorINS_12basic_stringIcNS_11char_traitsIcEENS_9allocatorIcEEEENS4_IS6_EEE5clearB8ue170006Ev, symObjAddr: 0x5888, symBinAddr: 0x10000F128, symSize: 0x44 }
  - { offsetInCU: 0xA94C, offset: 0x3CB0A, size: 0x8, addend: 0x0, symName: __ZNSt3__113unordered_mapINS_12basic_stringIcNS_11char_traitsIcEENS_9allocatorIcEEEE14BooleanSettingNS_4hashIS6_EENS_8equal_toIS6_EENS4_INS_4pairIKS6_S7_EEEEEC2B8ue170006Ev, symObjAddr: 0x5974, symBinAddr: 0x10000F194, symSize: 0x2C }
  - { offsetInCU: 0xA976, offset: 0x3CB34, size: 0x8, addend: 0x0, symName: __ZNSt3__112__hash_tableINS_17__hash_value_typeINS_12basic_stringIcNS_11char_traitsIcEENS_9allocatorIcEEEE14BooleanSettingEENS_22__unordered_map_hasherIS7_S9_NS_4hashIS7_EENS_8equal_toIS7_EELb1EEENS_21__unordered_map_equalIS7_S9_SE_SC_Lb1EEENS5_IS9_EEEC1Ev, symObjAddr: 0x59A0, symBinAddr: 0x10000F1C0, symSize: 0x2C }
  - { offsetInCU: 0xA9A2, offset: 0x3CB60, size: 0x8, addend: 0x0, symName: __ZNSt3__112__hash_tableINS_17__hash_value_typeINS_12basic_stringIcNS_11char_traitsIcEENS_9allocatorIcEEEE14BooleanSettingEENS_22__unordered_map_hasherIS7_S9_NS_4hashIS7_EENS_8equal_toIS7_EELb1EEENS_21__unordered_map_equalIS7_S9_SE_SC_Lb1EEENS5_IS9_EEEC2Ev, symObjAddr: 0x59CC, symBinAddr: 0x10000F1EC, symSize: 0x7C }
  - { offsetInCU: 0xA9CE, offset: 0x3CB8C, size: 0x8, addend: 0x0, symName: __ZNSt3__110unique_ptrIA_PNS_16__hash_node_baseIPNS_11__hash_nodeINS_17__hash_value_typeINS_12basic_stringIcNS_11char_traitsIcEENS_9allocatorIcEEEE14BooleanSettingEEPvEEEENS_25__bucket_list_deallocatorINS7_ISG_EEEEEC1B8ue170006ILb1EvEEv, symObjAddr: 0x5A48, symBinAddr: 0x10000F268, symSize: 0x2C }
  - { offsetInCU: 0xAA03, offset: 0x3CBC1, size: 0x8, addend: 0x0, symName: __ZNSt3__117__compressed_pairINS_16__hash_node_baseIPNS_11__hash_nodeINS_17__hash_value_typeINS_12basic_stringIcNS_11char_traitsIcEENS_9allocatorIcEEEE14BooleanSettingEEPvEEEENS7_ISD_EEEC1B8ue170006ILb1EvEEv, symObjAddr: 0x5A74, symBinAddr: 0x10000F294, symSize: 0x2C }
  - { offsetInCU: 0xAA3D, offset: 0x3CBFB, size: 0x8, addend: 0x0, symName: __ZNSt3__117__compressed_pairImNS_22__unordered_map_hasherINS_12basic_stringIcNS_11char_traitsIcEENS_9allocatorIcEEEENS_17__hash_value_typeIS7_14BooleanSettingEENS_4hashIS7_EENS_8equal_toIS7_EELb1EEEEC1B8ue170006IiNS_18__default_init_tagEEEOT_OT0_, symObjAddr: 0x5AA0, symBinAddr: 0x10000F2C0, symSize: 0x3C }
  - { offsetInCU: 0xAA9A, offset: 0x3CC58, size: 0x8, addend: 0x0, symName: __ZNSt3__117__compressed_pairIfNS_21__unordered_map_equalINS_12basic_stringIcNS_11char_traitsIcEENS_9allocatorIcEEEENS_17__hash_value_typeIS7_14BooleanSettingEENS_8equal_toIS7_EENS_4hashIS7_EELb1EEEEC1B8ue170006IfNS_18__default_init_tagEEEOT_OT0_, symObjAddr: 0x5ADC, symBinAddr: 0x10000F2FC, symSize: 0x3C }
  - { offsetInCU: 0xAAF2, offset: 0x3CCB0, size: 0x8, addend: 0x0, symName: __ZNSt3__110unique_ptrIA_PNS_16__hash_node_baseIPNS_11__hash_nodeINS_17__hash_value_typeINS_12basic_stringIcNS_11char_traitsIcEENS_9allocatorIcEEEE14BooleanSettingEEPvEEEENS_25__bucket_list_deallocatorINS7_ISG_EEEEEC2B8ue170006ILb1EvEEv, symObjAddr: 0x5B18, symBinAddr: 0x10000F338, symSize: 0x3C }
  - { offsetInCU: 0xAB2C, offset: 0x3CCEA, size: 0x8, addend: 0x0, symName: __ZNSt3__117__compressed_pairIPPNS_16__hash_node_baseIPNS_11__hash_nodeINS_17__hash_value_typeINS_12basic_stringIcNS_11char_traitsIcEENS_9allocatorIcEEEE14BooleanSettingEEPvEEEENS_25__bucket_list_deallocatorINS7_ISG_EEEEEC1B8ue170006INS_16__value_init_tagESN_EEOT_OT0_, symObjAddr: 0x5B54, symBinAddr: 0x10000F374, symSize: 0x3C }
  - { offsetInCU: 0xAB84, offset: 0x3CD42, size: 0x8, addend: 0x0, symName: __ZNSt3__117__compressed_pairIPPNS_16__hash_node_baseIPNS_11__hash_nodeINS_17__hash_value_typeINS_12basic_stringIcNS_11char_traitsIcEENS_9allocatorIcEEEE14BooleanSettingEEPvEEEENS_25__bucket_list_deallocatorINS7_ISG_EEEEEC2B8ue170006INS_16__value_init_tagESN_EEOT_OT0_, symObjAddr: 0x5B90, symBinAddr: 0x10000F3B0, symSize: 0x40 }
  - { offsetInCU: 0xABDC, offset: 0x3CD9A, size: 0x8, addend: 0x0, symName: __ZNSt3__122__compressed_pair_elemIPPNS_16__hash_node_baseIPNS_11__hash_nodeINS_17__hash_value_typeINS_12basic_stringIcNS_11char_traitsIcEENS_9allocatorIcEEEE14BooleanSettingEEPvEEEELi0ELb0EEC2B8ue170006ENS_16__value_init_tagE, symObjAddr: 0x5BD0, symBinAddr: 0x10000F3F0, symSize: 0x18 }
  - { offsetInCU: 0xAC11, offset: 0x3CDCF, size: 0x8, addend: 0x0, symName: __ZNSt3__122__compressed_pair_elemINS_25__bucket_list_deallocatorINS_9allocatorIPNS_16__hash_node_baseIPNS_11__hash_nodeINS_17__hash_value_typeINS_12basic_stringIcNS_11char_traitsIcEENS2_IcEEEE14BooleanSettingEEPvEEEEEEEELi1ELb0EEC2B8ue170006ENS_16__value_init_tagE, symObjAddr: 0x5BE8, symBinAddr: 0x10000F408, symSize: 0x2C }
  - { offsetInCU: 0xAC46, offset: 0x3CE04, size: 0x8, addend: 0x0, symName: __ZNSt3__125__bucket_list_deallocatorINS_9allocatorIPNS_16__hash_node_baseIPNS_11__hash_nodeINS_17__hash_value_typeINS_12basic_stringIcNS_11char_traitsIcEENS1_IcEEEE14BooleanSettingEEPvEEEEEEEC1B8ue170006Ev, symObjAddr: 0x5C14, symBinAddr: 0x10000F434, symSize: 0x2C }
  - { offsetInCU: 0xAC70, offset: 0x3CE2E, size: 0x8, addend: 0x0, symName: __ZNSt3__125__bucket_list_deallocatorINS_9allocatorIPNS_16__hash_node_baseIPNS_11__hash_nodeINS_17__hash_value_typeINS_12basic_stringIcNS_11char_traitsIcEENS1_IcEEEE14BooleanSettingEEPvEEEEEEEC2B8ue170006Ev, symObjAddr: 0x5C40, symBinAddr: 0x10000F460, symSize: 0x40 }
  - { offsetInCU: 0xAC9A, offset: 0x3CE58, size: 0x8, addend: 0x0, symName: __ZNSt3__117__compressed_pairImNS_9allocatorIPNS_16__hash_node_baseIPNS_11__hash_nodeINS_17__hash_value_typeINS_12basic_stringIcNS_11char_traitsIcEENS1_IcEEEE14BooleanSettingEEPvEEEEEEEC1B8ue170006IiNS_18__default_init_tagEEEOT_OT0_, symObjAddr: 0x5C80, symBinAddr: 0x10000F4A0, symSize: 0x3C }
  - { offsetInCU: 0xACF2, offset: 0x3CEB0, size: 0x8, addend: 0x0, symName: __ZNSt3__117__compressed_pairImNS_9allocatorIPNS_16__hash_node_baseIPNS_11__hash_nodeINS_17__hash_value_typeINS_12basic_stringIcNS_11char_traitsIcEENS1_IcEEEE14BooleanSettingEEPvEEEEEEEC2B8ue170006IiNS_18__default_init_tagEEEOT_OT0_, symObjAddr: 0x5CBC, symBinAddr: 0x10000F4DC, symSize: 0x40 }
  - { offsetInCU: 0xAD4A, offset: 0x3CF08, size: 0x8, addend: 0x0, symName: __ZNSt3__122__compressed_pair_elemImLi0ELb0EEC2B8ue170006IivEEOT_, symObjAddr: 0x5CFC, symBinAddr: 0x10000F51C, symSize: 0x24 }
  - { offsetInCU: 0xAD8C, offset: 0x3CF4A, size: 0x8, addend: 0x0, symName: __ZNSt3__122__compressed_pair_elemINS_9allocatorIPNS_16__hash_node_baseIPNS_11__hash_nodeINS_17__hash_value_typeINS_12basic_stringIcNS_11char_traitsIcEENS1_IcEEEE14BooleanSettingEEPvEEEEEELi1ELb1EEC2B8ue170006ENS_18__default_init_tagE, symObjAddr: 0x5D20, symBinAddr: 0x10000F540, symSize: 0x2C }
  - { offsetInCU: 0xADC1, offset: 0x3CF7F, size: 0x8, addend: 0x0, symName: __ZNSt3__19allocatorIPNS_16__hash_node_baseIPNS_11__hash_nodeINS_17__hash_value_typeINS_12basic_stringIcNS_11char_traitsIcEENS0_IcEEEE14BooleanSettingEEPvEEEEEC2B8ue170006Ev, symObjAddr: 0x5D4C, symBinAddr: 0x10000F56C, symSize: 0x2C }
  - { offsetInCU: 0xADEB, offset: 0x3CFA9, size: 0x8, addend: 0x0, symName: __ZNSt3__116__non_trivial_ifILb1ENS_9allocatorIPNS_16__hash_node_baseIPNS_11__hash_nodeINS_17__hash_value_typeINS_12basic_stringIcNS_11char_traitsIcEENS1_IcEEEE14BooleanSettingEEPvEEEEEEEC2B8ue170006Ev, symObjAddr: 0x5D78, symBinAddr: 0x10000F598, symSize: 0x14 }
  - { offsetInCU: 0xAE15, offset: 0x3CFD3, size: 0x8, addend: 0x0, symName: __ZNSt3__117__compressed_pairINS_16__hash_node_baseIPNS_11__hash_nodeINS_17__hash_value_typeINS_12basic_stringIcNS_11char_traitsIcEENS_9allocatorIcEEEE14BooleanSettingEEPvEEEENS7_ISD_EEEC2B8ue170006ILb1EvEEv, symObjAddr: 0x5D8C, symBinAddr: 0x10000F5AC, symSize: 0x34 }
  - { offsetInCU: 0xAE4A, offset: 0x3D008, size: 0x8, addend: 0x0, symName: __ZNSt3__122__compressed_pair_elemINS_16__hash_node_baseIPNS_11__hash_nodeINS_17__hash_value_typeINS_12basic_stringIcNS_11char_traitsIcEENS_9allocatorIcEEEE14BooleanSettingEEPvEEEELi0ELb0EEC2B8ue170006ENS_16__value_init_tagE, symObjAddr: 0x5DC0, symBinAddr: 0x10000F5E0, symSize: 0x2C }
  - { offsetInCU: 0xAE7F, offset: 0x3D03D, size: 0x8, addend: 0x0, symName: __ZNSt3__122__compressed_pair_elemINS_9allocatorINS_11__hash_nodeINS_17__hash_value_typeINS_12basic_stringIcNS_11char_traitsIcEENS1_IcEEEE14BooleanSettingEEPvEEEELi1ELb1EEC2B8ue170006ENS_16__value_init_tagE, symObjAddr: 0x5DEC, symBinAddr: 0x10000F60C, symSize: 0x2C }
  - { offsetInCU: 0xAEB4, offset: 0x3D072, size: 0x8, addend: 0x0, symName: __ZNSt3__116__hash_node_baseIPNS_11__hash_nodeINS_17__hash_value_typeINS_12basic_stringIcNS_11char_traitsIcEENS_9allocatorIcEEEE14BooleanSettingEEPvEEEC1B8ue170006Ev, symObjAddr: 0x5E18, symBinAddr: 0x10000F638, symSize: 0x2C }
  - { offsetInCU: 0xAEDE, offset: 0x3D09C, size: 0x8, addend: 0x0, symName: __ZNSt3__116__hash_node_baseIPNS_11__hash_nodeINS_17__hash_value_typeINS_12basic_stringIcNS_11char_traitsIcEENS_9allocatorIcEEEE14BooleanSettingEEPvEEEC2B8ue170006Ev, symObjAddr: 0x5E44, symBinAddr: 0x10000F664, symSize: 0x18 }
  - { offsetInCU: 0xAF08, offset: 0x3D0C6, size: 0x8, addend: 0x0, symName: __ZNSt3__19allocatorINS_11__hash_nodeINS_17__hash_value_typeINS_12basic_stringIcNS_11char_traitsIcEENS0_IcEEEE14BooleanSettingEEPvEEEC2B8ue170006Ev, symObjAddr: 0x5E5C, symBinAddr: 0x10000F67C, symSize: 0x2C }
  - { offsetInCU: 0xAF32, offset: 0x3D0F0, size: 0x8, addend: 0x0, symName: __ZNSt3__116__non_trivial_ifILb1ENS_9allocatorINS_11__hash_nodeINS_17__hash_value_typeINS_12basic_stringIcNS_11char_traitsIcEENS1_IcEEEE14BooleanSettingEEPvEEEEEC2B8ue170006Ev, symObjAddr: 0x5E88, symBinAddr: 0x10000F6A8, symSize: 0x14 }
  - { offsetInCU: 0xAF5C, offset: 0x3D11A, size: 0x8, addend: 0x0, symName: __ZNSt3__117__compressed_pairImNS_22__unordered_map_hasherINS_12basic_stringIcNS_11char_traitsIcEENS_9allocatorIcEEEENS_17__hash_value_typeIS7_14BooleanSettingEENS_4hashIS7_EENS_8equal_toIS7_EELb1EEEEC2B8ue170006IiNS_18__default_init_tagEEEOT_OT0_, symObjAddr: 0x5E9C, symBinAddr: 0x10000F6BC, symSize: 0x40 }
  - { offsetInCU: 0xAFB4, offset: 0x3D172, size: 0x8, addend: 0x0, symName: __ZNSt3__122__compressed_pair_elemINS_22__unordered_map_hasherINS_12basic_stringIcNS_11char_traitsIcEENS_9allocatorIcEEEENS_17__hash_value_typeIS7_14BooleanSettingEENS_4hashIS7_EENS_8equal_toIS7_EELb1EEELi1ELb1EEC2B8ue170006ENS_18__default_init_tagE, symObjAddr: 0x5EDC, symBinAddr: 0x10000F6FC, symSize: 0x2C }
  - { offsetInCU: 0xAFE9, offset: 0x3D1A7, size: 0x8, addend: 0x0, symName: __ZNSt3__122__unordered_map_hasherINS_12basic_stringIcNS_11char_traitsIcEENS_9allocatorIcEEEENS_17__hash_value_typeIS6_14BooleanSettingEENS_4hashIS6_EENS_8equal_toIS6_EELb1EEC2B8ue170006Ev, symObjAddr: 0x5F08, symBinAddr: 0x10000F728, symSize: 0x14 }
  - { offsetInCU: 0xB013, offset: 0x3D1D1, size: 0x8, addend: 0x0, symName: __ZNSt3__117__compressed_pairIfNS_21__unordered_map_equalINS_12basic_stringIcNS_11char_traitsIcEENS_9allocatorIcEEEENS_17__hash_value_typeIS7_14BooleanSettingEENS_8equal_toIS7_EENS_4hashIS7_EELb1EEEEC2B8ue170006IfNS_18__default_init_tagEEEOT_OT0_, symObjAddr: 0x5F1C, symBinAddr: 0x10000F73C, symSize: 0x40 }
  - { offsetInCU: 0xB06B, offset: 0x3D229, size: 0x8, addend: 0x0, symName: __ZNSt3__122__compressed_pair_elemIfLi0ELb0EEC2B8ue170006IfvEEOT_, symObjAddr: 0x5F5C, symBinAddr: 0x10000F77C, symSize: 0x24 }
  - { offsetInCU: 0xB0AD, offset: 0x3D26B, size: 0x8, addend: 0x0, symName: __ZNSt3__122__compressed_pair_elemINS_21__unordered_map_equalINS_12basic_stringIcNS_11char_traitsIcEENS_9allocatorIcEEEENS_17__hash_value_typeIS7_14BooleanSettingEENS_8equal_toIS7_EENS_4hashIS7_EELb1EEELi1ELb1EEC2B8ue170006ENS_18__default_init_tagE, symObjAddr: 0x5F80, symBinAddr: 0x10000F7A0, symSize: 0x2C }
  - { offsetInCU: 0xB0E2, offset: 0x3D2A0, size: 0x8, addend: 0x0, symName: __ZNSt3__121__unordered_map_equalINS_12basic_stringIcNS_11char_traitsIcEENS_9allocatorIcEEEENS_17__hash_value_typeIS6_14BooleanSettingEENS_8equal_toIS6_EENS_4hashIS6_EELb1EEC2B8ue170006Ev, symObjAddr: 0x5FAC, symBinAddr: 0x10000F7CC, symSize: 0x14 }
  - { offsetInCU: 0xB10C, offset: 0x3D2CA, size: 0x8, addend: 0x0, symName: __ZNSt3__112__hash_tableINS_17__hash_value_typeINS_12basic_stringIcNS_11char_traitsIcEENS_9allocatorIcEEEE14BooleanSettingEENS_22__unordered_map_hasherIS7_S9_NS_4hashIS7_EENS_8equal_toIS7_EELb1EEENS_21__unordered_map_equalIS7_S9_SE_SC_Lb1EEENS5_IS9_EEE15__assign_uniqueIPKNS_4pairIKS7_S8_EEEEvT_SQ_, symObjAddr: 0x6600, symBinAddr: 0x10000F7E0, symSize: 0x1B4 }
  - { offsetInCU: 0xB185, offset: 0x3D343, size: 0x8, addend: 0x0, symName: __ZNKSt16initializer_listINSt3__14pairIKNS0_12basic_stringIcNS0_11char_traitsIcEENS0_9allocatorIcEEEE14BooleanSettingEEE5beginB8ue170006Ev, symObjAddr: 0x67B4, symBinAddr: 0x10000F994, symSize: 0x18 }
  - { offsetInCU: 0xB1AB, offset: 0x3D369, size: 0x8, addend: 0x0, symName: __ZNKSt16initializer_listINSt3__14pairIKNS0_12basic_stringIcNS0_11char_traitsIcEENS0_9allocatorIcEEEE14BooleanSettingEEE3endB8ue170006Ev, symObjAddr: 0x67CC, symBinAddr: 0x10000F9AC, symSize: 0x28 }
  - { offsetInCU: 0xB1D1, offset: 0x3D38F, size: 0x8, addend: 0x0, symName: __ZNKSt3__112__hash_tableINS_17__hash_value_typeINS_12basic_stringIcNS_11char_traitsIcEENS_9allocatorIcEEEE14BooleanSettingEENS_22__unordered_map_hasherIS7_S9_NS_4hashIS7_EENS_8equal_toIS7_EELb1EEENS_21__unordered_map_equalIS7_S9_SE_SC_Lb1EEENS5_IS9_EEE12bucket_countB8ue170006Ev, symObjAddr: 0x67F4, symBinAddr: 0x10000F9D4, symSize: 0x28 }
  - { offsetInCU: 0xB1F7, offset: 0x3D3B5, size: 0x8, addend: 0x0, symName: __ZNSt3__112__hash_tableINS_17__hash_value_typeINS_12basic_stringIcNS_11char_traitsIcEENS_9allocatorIcEEEE14BooleanSettingEENS_22__unordered_map_hasherIS7_S9_NS_4hashIS7_EENS_8equal_toIS7_EELb1EEENS_21__unordered_map_equalIS7_S9_SE_SC_Lb1EEENS5_IS9_EEE8__detachEv, symObjAddr: 0x681C, symBinAddr: 0x10000F9FC, symSize: 0xB4 }
  - { offsetInCU: 0xB252, offset: 0x3D410, size: 0x8, addend: 0x0, symName: __ZNSt3__117__hash_value_typeINS_12basic_stringIcNS_11char_traitsIcEENS_9allocatorIcEEEE14BooleanSettingEaSB8ue170006IRKNS_4pairIKS6_S7_EEvEERS8_OT_, symObjAddr: 0x68D0, symBinAddr: 0x10000FAB0, symSize: 0x54 }
  - { offsetInCU: 0xB291, offset: 0x3D44F, size: 0x8, addend: 0x0, symName: __ZNSt3__112__hash_tableINS_17__hash_value_typeINS_12basic_stringIcNS_11char_traitsIcEENS_9allocatorIcEEEE14BooleanSettingEENS_22__unordered_map_hasherIS7_S9_NS_4hashIS7_EENS_8equal_toIS7_EELb1EEENS_21__unordered_map_equalIS7_S9_SE_SC_Lb1EEENS5_IS9_EEE20__node_insert_uniqueEPNS_11__hash_nodeIS9_PvEE, symObjAddr: 0x6924, symBinAddr: 0x10000FB04, symSize: 0xC4 }
  - { offsetInCU: 0xB2E6, offset: 0x3D4A4, size: 0x8, addend: 0x0, symName: __ZNSt3__112__hash_tableINS_17__hash_value_typeINS_12basic_stringIcNS_11char_traitsIcEENS_9allocatorIcEEEE14BooleanSettingEENS_22__unordered_map_hasherIS7_S9_NS_4hashIS7_EENS_8equal_toIS7_EELb1EEENS_21__unordered_map_equalIS7_S9_SE_SC_Lb1EEENS5_IS9_EEE15__insert_uniqueB8ue170006ERKNS_4pairIKS7_S8_EE, symObjAddr: 0x69E8, symBinAddr: 0x10000FBC8, symSize: 0x50 }
  - { offsetInCU: 0xB31B, offset: 0x3D4D9, size: 0x8, addend: 0x0, symName: __ZNKSt3__110unique_ptrIA_PNS_16__hash_node_baseIPNS_11__hash_nodeINS_17__hash_value_typeINS_12basic_stringIcNS_11char_traitsIcEENS_9allocatorIcEEEE14BooleanSettingEEPvEEEENS_25__bucket_list_deallocatorINS7_ISG_EEEEE11get_deleterB8ue170006Ev, symObjAddr: 0x6A38, symBinAddr: 0x10000FC18, symSize: 0x24 }
  - { offsetInCU: 0xB341, offset: 0x3D4FF, size: 0x8, addend: 0x0, symName: __ZNKSt3__125__bucket_list_deallocatorINS_9allocatorIPNS_16__hash_node_baseIPNS_11__hash_nodeINS_17__hash_value_typeINS_12basic_stringIcNS_11char_traitsIcEENS1_IcEEEE14BooleanSettingEEPvEEEEEEE4sizeB8ue170006Ev, symObjAddr: 0x6A5C, symBinAddr: 0x10000FC3C, symSize: 0x28 }
  - { offsetInCU: 0xB367, offset: 0x3D525, size: 0x8, addend: 0x0, symName: __ZNKSt3__117__compressed_pairIPPNS_16__hash_node_baseIPNS_11__hash_nodeINS_17__hash_value_typeINS_12basic_stringIcNS_11char_traitsIcEENS_9allocatorIcEEEE14BooleanSettingEEPvEEEENS_25__bucket_list_deallocatorINS7_ISG_EEEEE6secondB8ue170006Ev, symObjAddr: 0x6A84, symBinAddr: 0x10000FC64, symSize: 0x28 }
  - { offsetInCU: 0xB38D, offset: 0x3D54B, size: 0x8, addend: 0x0, symName: __ZNKSt3__122__compressed_pair_elemINS_25__bucket_list_deallocatorINS_9allocatorIPNS_16__hash_node_baseIPNS_11__hash_nodeINS_17__hash_value_typeINS_12basic_stringIcNS_11char_traitsIcEENS2_IcEEEE14BooleanSettingEEPvEEEEEEEELi1ELb0EE5__getB8ue170006Ev, symObjAddr: 0x6AAC, symBinAddr: 0x10000FC8C, symSize: 0x14 }
  - { offsetInCU: 0xB3B3, offset: 0x3D571, size: 0x8, addend: 0x0, symName: __ZNKSt3__117__compressed_pairImNS_9allocatorIPNS_16__hash_node_baseIPNS_11__hash_nodeINS_17__hash_value_typeINS_12basic_stringIcNS_11char_traitsIcEENS1_IcEEEE14BooleanSettingEEPvEEEEEEE5firstB8ue170006Ev, symObjAddr: 0x6AC0, symBinAddr: 0x10000FCA0, symSize: 0x24 }
  - { offsetInCU: 0xB3D9, offset: 0x3D597, size: 0x8, addend: 0x0, symName: __ZNKSt3__110unique_ptrIA_PNS_16__hash_node_baseIPNS_11__hash_nodeINS_17__hash_value_typeINS_12basic_stringIcNS_11char_traitsIcEENS_9allocatorIcEEEE14BooleanSettingEEPvEEEENS_25__bucket_list_deallocatorINS7_ISG_EEEEEixB8ue170006Em, symObjAddr: 0x6AF8, symBinAddr: 0x10000FCC4, symSize: 0x34 }
  - { offsetInCU: 0xB40E, offset: 0x3D5CC, size: 0x8, addend: 0x0, symName: __ZNSt3__112__hash_tableINS_17__hash_value_typeINS_12basic_stringIcNS_11char_traitsIcEENS_9allocatorIcEEEE14BooleanSettingEENS_22__unordered_map_hasherIS7_S9_NS_4hashIS7_EENS_8equal_toIS7_EELb1EEENS_21__unordered_map_equalIS7_S9_SE_SC_Lb1EEENS5_IS9_EEE4sizeB8ue170006Ev, symObjAddr: 0x6B2C, symBinAddr: 0x10000FCF8, symSize: 0x28 }
  - { offsetInCU: 0xB434, offset: 0x3D5F2, size: 0x8, addend: 0x0, symName: __ZNKSt3__117__compressed_pairIPPNS_16__hash_node_baseIPNS_11__hash_nodeINS_17__hash_value_typeINS_12basic_stringIcNS_11char_traitsIcEENS_9allocatorIcEEEE14BooleanSettingEEPvEEEENS_25__bucket_list_deallocatorINS7_ISG_EEEEE5firstB8ue170006Ev, symObjAddr: 0x6B54, symBinAddr: 0x10000FD20, symSize: 0x24 }
  - { offsetInCU: 0xB45A, offset: 0x3D618, size: 0x8, addend: 0x0, symName: __ZNKSt3__122__compressed_pair_elemIPPNS_16__hash_node_baseIPNS_11__hash_nodeINS_17__hash_value_typeINS_12basic_stringIcNS_11char_traitsIcEENS_9allocatorIcEEEE14BooleanSettingEEPvEEEELi0ELb0EE5__getB8ue170006Ev, symObjAddr: 0x6B78, symBinAddr: 0x10000FD44, symSize: 0x14 }
  - { offsetInCU: 0xB480, offset: 0x3D63E, size: 0x8, addend: 0x0, symName: __ZNSt3__117__compressed_pairImNS_22__unordered_map_hasherINS_12basic_stringIcNS_11char_traitsIcEENS_9allocatorIcEEEENS_17__hash_value_typeIS7_14BooleanSettingEENS_4hashIS7_EENS_8equal_toIS7_EELb1EEEE5firstB8ue170006Ev, symObjAddr: 0x6B8C, symBinAddr: 0x10000FD58, symSize: 0x24 }
  - { offsetInCU: 0xB4A6, offset: 0x3D664, size: 0x8, addend: 0x0, symName: __ZNSt3__117__hash_value_typeINS_12basic_stringIcNS_11char_traitsIcEENS_9allocatorIcEEEE14BooleanSettingE5__refB8ue170006Ev, symObjAddr: 0x6BB0, symBinAddr: 0x10000FD7C, symSize: 0x44 }
  - { offsetInCU: 0xB4DB, offset: 0x3D699, size: 0x8, addend: 0x0, symName: __ZNSt3__14pairIRNS_12basic_stringIcNS_11char_traitsIcEENS_9allocatorIcEEEER14BooleanSettingEaSB8ue170006IKS6_S8_LPv0EEERSA_RKNS0_IT_T0_EE, symObjAddr: 0x6BF4, symBinAddr: 0x10000FDC0, symSize: 0x4C }
  - { offsetInCU: 0xB529, offset: 0x3D6E7, size: 0x8, addend: 0x0, symName: __ZNSt3__14pairIRNS_12basic_stringIcNS_11char_traitsIcEENS_9allocatorIcEEEER14BooleanSettingEC1B8ue170006ILb1ELPv0EEES7_S9_, symObjAddr: 0x6C40, symBinAddr: 0x10000FE0C, symSize: 0x3C }
  - { offsetInCU: 0xB580, offset: 0x3D73E, size: 0x8, addend: 0x0, symName: __ZNSt3__14pairIRNS_12basic_stringIcNS_11char_traitsIcEENS_9allocatorIcEEEER14BooleanSettingEC2B8ue170006ILb1ELPv0EEES7_S9_, symObjAddr: 0x6C7C, symBinAddr: 0x10000FE48, symSize: 0x2C }
  - { offsetInCU: 0xB5D7, offset: 0x3D795, size: 0x8, addend: 0x0, symName: __ZNSt3__112__hash_tableINS_17__hash_value_typeINS_12basic_stringIcNS_11char_traitsIcEENS_9allocatorIcEEEE14BooleanSettingEENS_22__unordered_map_hasherIS7_S9_NS_4hashIS7_EENS_8equal_toIS7_EELb1EEENS_21__unordered_map_equalIS7_S9_SE_SC_Lb1EEENS5_IS9_EEE13hash_functionB8ue170006Ev, symObjAddr: 0x6CA8, symBinAddr: 0x10000FE74, symSize: 0x28 }
  - { offsetInCU: 0xB5FD, offset: 0x3D7BB, size: 0x8, addend: 0x0, symName: __ZNKSt3__122__unordered_map_hasherINS_12basic_stringIcNS_11char_traitsIcEENS_9allocatorIcEEEENS_17__hash_value_typeIS6_14BooleanSettingEENS_4hashIS6_EENS_8equal_toIS6_EELb1EEclB8ue170006ERKS9_, symObjAddr: 0x6CD0, symBinAddr: 0x10000FE9C, symSize: 0x3C }
  - { offsetInCU: 0xB632, offset: 0x3D7F0, size: 0x8, addend: 0x0, symName: __ZNSt3__112__hash_tableINS_17__hash_value_typeINS_12basic_stringIcNS_11char_traitsIcEENS_9allocatorIcEEEE14BooleanSettingEENS_22__unordered_map_hasherIS7_S9_NS_4hashIS7_EENS_8equal_toIS7_EELb1EEENS_21__unordered_map_equalIS7_S9_SE_SC_Lb1EEENS5_IS9_EEE28__node_insert_unique_prepareB8ue170006EmRS9_, symObjAddr: 0x6D0C, symBinAddr: 0x10000FED8, symSize: 0x290 }
  - { offsetInCU: 0xB6B3, offset: 0x3D871, size: 0x8, addend: 0x0, symName: __ZNKSt3__116__hash_node_baseIPNS_11__hash_nodeINS_17__hash_value_typeINS_12basic_stringIcNS_11char_traitsIcEENS_9allocatorIcEEEE14BooleanSettingEEPvEEE6__hashB8ue170006Ev, symObjAddr: 0x6F9C, symBinAddr: 0x100010168, symSize: 0x18 }
  - { offsetInCU: 0xB6D9, offset: 0x3D897, size: 0x8, addend: 0x0, symName: __ZNSt3__112__hash_tableINS_17__hash_value_typeINS_12basic_stringIcNS_11char_traitsIcEENS_9allocatorIcEEEE14BooleanSettingEENS_22__unordered_map_hasherIS7_S9_NS_4hashIS7_EENS_8equal_toIS7_EELb1EEENS_21__unordered_map_equalIS7_S9_SE_SC_Lb1EEENS5_IS9_EEE28__node_insert_unique_performB8ue170006EPNS_11__hash_nodeIS9_PvEE, symObjAddr: 0x6FB4, symBinAddr: 0x100010180, symSize: 0x154 }
  - { offsetInCU: 0xB73D, offset: 0x3D8FB, size: 0x8, addend: 0x0, symName: __ZNSt3__116__hash_node_baseIPNS_11__hash_nodeINS_17__hash_value_typeINS_12basic_stringIcNS_11char_traitsIcEENS_9allocatorIcEEEE14BooleanSettingEEPvEEE5__ptrB8ue170006Ev, symObjAddr: 0x7108, symBinAddr: 0x1000102D4, symSize: 0x24 }
  - { offsetInCU: 0xB763, offset: 0x3D921, size: 0x8, addend: 0x0, symName: __ZNSt3__115__hash_iteratorIPNS_11__hash_nodeINS_17__hash_value_typeINS_12basic_stringIcNS_11char_traitsIcEENS_9allocatorIcEEEE14BooleanSettingEEPvEEEC1B8ue170006EPNS_16__hash_node_baseISD_EE, symObjAddr: 0x712C, symBinAddr: 0x1000102F8, symSize: 0x34 }
  - { offsetInCU: 0xB7A6, offset: 0x3D964, size: 0x8, addend: 0x0, symName: __ZNSt3__14pairINS_15__hash_iteratorIPNS_11__hash_nodeINS_17__hash_value_typeINS_12basic_stringIcNS_11char_traitsIcEENS_9allocatorIcEEEE14BooleanSettingEEPvEEEEbEC1B8ue170006ISF_RbLSC_0EEEOT_OT0_, symObjAddr: 0x7160, symBinAddr: 0x10001032C, symSize: 0x3C }
  - { offsetInCU: 0xB805, offset: 0x3D9C3, size: 0x8, addend: 0x0, symName: __ZNSt3__117__compressed_pairImNS_22__unordered_map_hasherINS_12basic_stringIcNS_11char_traitsIcEENS_9allocatorIcEEEENS_17__hash_value_typeIS7_14BooleanSettingEENS_4hashIS7_EENS_8equal_toIS7_EELb1EEEE6secondB8ue170006Ev, symObjAddr: 0x719C, symBinAddr: 0x100010368, symSize: 0x24 }
  - { offsetInCU: 0xB82B, offset: 0x3D9E9, size: 0x8, addend: 0x0, symName: __ZNSt3__122__compressed_pair_elemINS_22__unordered_map_hasherINS_12basic_stringIcNS_11char_traitsIcEENS_9allocatorIcEEEENS_17__hash_value_typeIS7_14BooleanSettingEENS_4hashIS7_EENS_8equal_toIS7_EELb1EEELi1ELb1EE5__getB8ue170006Ev, symObjAddr: 0x71C0, symBinAddr: 0x10001038C, symSize: 0x14 }
  - { offsetInCU: 0xB851, offset: 0x3DA0F, size: 0x8, addend: 0x0, symName: __ZNKSt3__113__string_hashIcNS_9allocatorIcEEEclB8ue170006ERKNS_12basic_stringIcNS_11char_traitsIcEES2_EE, symObjAddr: 0x71D4, symBinAddr: 0x1000103A0, symSize: 0x64 }
  - { offsetInCU: 0xB886, offset: 0x3DA44, size: 0x8, addend: 0x0, symName: __ZNKSt3__117__hash_value_typeINS_12basic_stringIcNS_11char_traitsIcEENS_9allocatorIcEEEE14BooleanSettingE11__get_valueB8ue170006Ev, symObjAddr: 0x7238, symBinAddr: 0x100010404, symSize: 0x24 }
  - { offsetInCU: 0xB8AC, offset: 0x3DA6A, size: 0x8, addend: 0x0, symName: __ZNKSt3__121__murmur2_or_cityhashImLm64EEclB8ue170006EPKvm, symObjAddr: 0x7314, symBinAddr: 0x100010464, symSize: 0x410 }
  - { offsetInCU: 0xB94C, offset: 0x3DB0A, size: 0x8, addend: 0x0, symName: __ZNSt3__121__murmur2_or_cityhashImLm64EE18__hash_len_0_to_16B8ue170006EPKcm, symObjAddr: 0x7724, symBinAddr: 0x100010874, symSize: 0x1C0 }
  - { offsetInCU: 0xBA2E, offset: 0x3DBEC, size: 0x8, addend: 0x0, symName: __ZNSt3__121__murmur2_or_cityhashImLm64EE19__hash_len_17_to_32B8ue170006EPKcm, symObjAddr: 0x78E4, symBinAddr: 0x100010A34, symSize: 0x130 }
  - { offsetInCU: 0xBA9B, offset: 0x3DC59, size: 0x8, addend: 0x0, symName: __ZNSt3__121__murmur2_or_cityhashImLm64EE19__hash_len_33_to_64B8ue170006EPKcm, symObjAddr: 0x7A14, symBinAddr: 0x100010B64, symSize: 0x2B8 }
  - { offsetInCU: 0xBB56, offset: 0x3DD14, size: 0x8, addend: 0x0, symName: __ZNSt3__121__murmur2_or_cityhashImLm64EE13__hash_len_16B8ue170006Emm, symObjAddr: 0x7CEC, symBinAddr: 0x100010E3C, symSize: 0x80 }
  - { offsetInCU: 0xBBB4, offset: 0x3DD72, size: 0x8, addend: 0x0, symName: __ZNSt3__121__murmur2_or_cityhashImLm64EE29__weak_hash_len_32_with_seedsB8ue170006EPKcmm, symObjAddr: 0x7D6C, symBinAddr: 0x100010EBC, symSize: 0x88 }
  - { offsetInCU: 0xBBF3, offset: 0x3DDB1, size: 0x8, addend: 0x0, symName: __ZNSt3__121__murmur2_or_cityhashImLm64EE8__rotateB8ue170006Emi, symObjAddr: 0x7DF4, symBinAddr: 0x100010F44, symSize: 0x64 }
  - { offsetInCU: 0xBC24, offset: 0x3DDE2, size: 0x8, addend: 0x0, symName: __ZNSt3__14pairImmEaSB8ue170006EOS1_, symObjAddr: 0x7E58, symBinAddr: 0x100010FA8, symSize: 0x30 }
  - { offsetInCU: 0xBC59, offset: 0x3DE17, size: 0x8, addend: 0x0, symName: __ZNSt3__121__murmur2_or_cityhashImLm64EE11__shift_mixB8ue170006Em, symObjAddr: 0x7EC4, symBinAddr: 0x100011014, symSize: 0x1C }
  - { offsetInCU: 0xBC7C, offset: 0x3DE3A, size: 0x8, addend: 0x0, symName: __ZNSt3__121__murmur2_or_cityhashImLm64EE22__rotate_by_at_least_1B8ue170006Emi, symObjAddr: 0x7EE0, symBinAddr: 0x100011030, symSize: 0x38 }
  - { offsetInCU: 0xBCAD, offset: 0x3DE6B, size: 0x8, addend: 0x0, symName: __ZNSt3__121__murmur2_or_cityhashImLm64EE29__weak_hash_len_32_with_seedsB8ue170006Emmmmmm, symObjAddr: 0x7F38, symBinAddr: 0x100011088, symSize: 0xD8 }
  - { offsetInCU: 0xBD2A, offset: 0x3DEE8, size: 0x8, addend: 0x0, symName: __ZNSt3__14pairImmEC1B8ue170006ImmLPv0EEEOT_OT0_, symObjAddr: 0x8010, symBinAddr: 0x100011160, symSize: 0x3C }
  - { offsetInCU: 0xBD89, offset: 0x3DF47, size: 0x8, addend: 0x0, symName: __ZNSt3__14pairImmEC2B8ue170006ImmLPv0EEEOT_OT0_, symObjAddr: 0x804C, symBinAddr: 0x10001119C, symSize: 0x34 }
  - { offsetInCU: 0xBDE8, offset: 0x3DFA6, size: 0x8, addend: 0x0, symName: __ZNSt3__112__hash_tableINS_17__hash_value_typeINS_12basic_stringIcNS_11char_traitsIcEENS_9allocatorIcEEEE14BooleanSettingEENS_22__unordered_map_hasherIS7_S9_NS_4hashIS7_EENS_8equal_toIS7_EELb1EEENS_21__unordered_map_equalIS7_S9_SE_SC_Lb1EEENS5_IS9_EEE6key_eqB8ue170006Ev, symObjAddr: 0x82E8, symBinAddr: 0x1000112A0, symSize: 0x28 }
  - { offsetInCU: 0xBE0E, offset: 0x3DFCC, size: 0x8, addend: 0x0, symName: __ZNKSt3__121__unordered_map_equalINS_12basic_stringIcNS_11char_traitsIcEENS_9allocatorIcEEEENS_17__hash_value_typeIS6_14BooleanSettingEENS_8equal_toIS6_EENS_4hashIS6_EELb1EEclB8ue170006ERKS9_SG_, symObjAddr: 0x8310, symBinAddr: 0x1000112C8, symSize: 0x54 }
  - { offsetInCU: 0xBE52, offset: 0x3E010, size: 0x8, addend: 0x0, symName: __ZNSt3__112__hash_tableINS_17__hash_value_typeINS_12basic_stringIcNS_11char_traitsIcEENS_9allocatorIcEEEE14BooleanSettingEENS_22__unordered_map_hasherIS7_S9_NS_4hashIS7_EENS_8equal_toIS7_EELb1EEENS_21__unordered_map_equalIS7_S9_SE_SC_Lb1EEENS5_IS9_EEE15max_load_factorB8ue170006Ev, symObjAddr: 0x8364, symBinAddr: 0x10001131C, symSize: 0x28 }
  - { offsetInCU: 0xBE78, offset: 0x3E036, size: 0x8, addend: 0x0, symName: __ZNSt3__112__hash_tableINS_17__hash_value_typeINS_12basic_stringIcNS_11char_traitsIcEENS_9allocatorIcEEEE14BooleanSettingEENS_22__unordered_map_hasherIS7_S9_NS_4hashIS7_EENS_8equal_toIS7_EELb1EEENS_21__unordered_map_equalIS7_S9_SE_SC_Lb1EEENS5_IS9_EEE15__rehash_uniqueB8ue170006Em, symObjAddr: 0x838C, symBinAddr: 0x100011344, symSize: 0x2C }
  - { offsetInCU: 0xBEAD, offset: 0x3E06B, size: 0x8, addend: 0x0, symName: __ZNSt3__117__compressed_pairIfNS_21__unordered_map_equalINS_12basic_stringIcNS_11char_traitsIcEENS_9allocatorIcEEEENS_17__hash_value_typeIS7_14BooleanSettingEENS_8equal_toIS7_EENS_4hashIS7_EELb1EEEE6secondB8ue170006Ev, symObjAddr: 0x8420, symBinAddr: 0x1000113C0, symSize: 0x24 }
  - { offsetInCU: 0xBED3, offset: 0x3E091, size: 0x8, addend: 0x0, symName: __ZNSt3__122__compressed_pair_elemINS_21__unordered_map_equalINS_12basic_stringIcNS_11char_traitsIcEENS_9allocatorIcEEEENS_17__hash_value_typeIS7_14BooleanSettingEENS_8equal_toIS7_EENS_4hashIS7_EELb1EEELi1ELb1EE5__getB8ue170006Ev, symObjAddr: 0x8444, symBinAddr: 0x1000113E4, symSize: 0x14 }
  - { offsetInCU: 0xBEF9, offset: 0x3E0B7, size: 0x8, addend: 0x0, symName: __ZNKSt3__18equal_toINS_12basic_stringIcNS_11char_traitsIcEENS_9allocatorIcEEEEEclB8ue170006ERKS6_S9_, symObjAddr: 0x8458, symBinAddr: 0x1000113F8, symSize: 0x34 }
  - { offsetInCU: 0xBF3D, offset: 0x3E0FB, size: 0x8, addend: 0x0, symName: __ZNSt3__111char_traitsIcE7compareB8ue170006EPKcS3_m, symObjAddr: 0x85D4, symBinAddr: 0x100011574, symSize: 0x34 }
  - { offsetInCU: 0xBF7C, offset: 0x3E13A, size: 0x8, addend: 0x0, symName: __ZNSt3__117__compressed_pairIfNS_21__unordered_map_equalINS_12basic_stringIcNS_11char_traitsIcEENS_9allocatorIcEEEENS_17__hash_value_typeIS7_14BooleanSettingEENS_8equal_toIS7_EENS_4hashIS7_EELb1EEEE5firstB8ue170006Ev, symObjAddr: 0x8608, symBinAddr: 0x1000115A8, symSize: 0x24 }
  - { offsetInCU: 0xBFA2, offset: 0x3E160, size: 0x8, addend: 0x0, symName: __ZNSt3__122__compressed_pair_elemIfLi0ELb0EE5__getB8ue170006Ev, symObjAddr: 0x862C, symBinAddr: 0x1000115CC, symSize: 0x14 }
  - { offsetInCU: 0xBFC8, offset: 0x3E186, size: 0x8, addend: 0x0, symName: __ZNSt3__112__hash_tableINS_17__hash_value_typeINS_12basic_stringIcNS_11char_traitsIcEENS_9allocatorIcEEEE14BooleanSettingEENS_22__unordered_map_hasherIS7_S9_NS_4hashIS7_EENS_8equal_toIS7_EELb1EEENS_21__unordered_map_equalIS7_S9_SE_SC_Lb1EEENS5_IS9_EEE8__rehashILb1EEEvm, symObjAddr: 0x8640, symBinAddr: 0x1000115E0, symSize: 0x1A8 }
  - { offsetInCU: 0xC018, offset: 0x3E1D6, size: 0x8, addend: 0x0, symName: __ZNSt3__112__hash_tableINS_17__hash_value_typeINS_12basic_stringIcNS_11char_traitsIcEENS_9allocatorIcEEEE14BooleanSettingEENS_22__unordered_map_hasherIS7_S9_NS_4hashIS7_EENS_8equal_toIS7_EELb1EEENS_21__unordered_map_equalIS7_S9_SE_SC_Lb1EEENS5_IS9_EEE11__do_rehashILb1EEEvm, symObjAddr: 0x87E8, symBinAddr: 0x100011788, symSize: 0x288 }
  - { offsetInCU: 0xC0FB, offset: 0x3E2B9, size: 0x8, addend: 0x0, symName: __ZNSt3__110unique_ptrIA_PNS_16__hash_node_baseIPNS_11__hash_nodeINS_17__hash_value_typeINS_12basic_stringIcNS_11char_traitsIcEENS_9allocatorIcEEEE14BooleanSettingEEPvEEEENS_25__bucket_list_deallocatorINS7_ISG_EEEEE11get_deleterB8ue170006Ev, symObjAddr: 0x8ADC, symBinAddr: 0x100011A7C, symSize: 0x24 }
  - { offsetInCU: 0xC121, offset: 0x3E2DF, size: 0x8, addend: 0x0, symName: __ZNSt3__110unique_ptrIA_PNS_16__hash_node_baseIPNS_11__hash_nodeINS_17__hash_value_typeINS_12basic_stringIcNS_11char_traitsIcEENS_9allocatorIcEEEE14BooleanSettingEEPvEEEENS_25__bucket_list_deallocatorINS7_ISG_EEEEE5resetB8ue170006IPSG_EENS_9enable_ifIXsr28_CheckArrayPointerConversionIT_EE5valueEvE4typeESP_, symObjAddr: 0x8B00, symBinAddr: 0x100011AA0, symSize: 0x78 }
  - { offsetInCU: 0xC16E, offset: 0x3E32C, size: 0x8, addend: 0x0, symName: __ZNSt3__116allocator_traitsINS_9allocatorIPNS_16__hash_node_baseIPNS_11__hash_nodeINS_17__hash_value_typeINS_12basic_stringIcNS_11char_traitsIcEENS1_IcEEEE14BooleanSettingEEPvEEEEEEE8allocateB8ue170006ERSH_m, symObjAddr: 0x8B78, symBinAddr: 0x100011B18, symSize: 0x2C }
  - { offsetInCU: 0xC1A1, offset: 0x3E35F, size: 0x8, addend: 0x0, symName: __ZNSt3__19allocatorIPNS_16__hash_node_baseIPNS_11__hash_nodeINS_17__hash_value_typeINS_12basic_stringIcNS_11char_traitsIcEENS0_IcEEEE14BooleanSettingEEPvEEEEE8allocateB8ue170006Em, symObjAddr: 0x8BA4, symBinAddr: 0x100011B44, symSize: 0x58 }
  - { offsetInCU: 0xC1DF, offset: 0x3E39D, size: 0x8, addend: 0x0, symName: __ZNSt3__116allocator_traitsINS_9allocatorIPNS_16__hash_node_baseIPNS_11__hash_nodeINS_17__hash_value_typeINS_12basic_stringIcNS_11char_traitsIcEENS1_IcEEEE14BooleanSettingEEPvEEEEEEE8max_sizeB8ue170006ISH_vvEEmRKSH_, symObjAddr: 0x8BFC, symBinAddr: 0x100011B9C, symSize: 0x28 }
  - { offsetInCU: 0xC20B, offset: 0x3E3C9, size: 0x8, addend: 0x0, symName: __ZNSt3__115__hash_iteratorIPNS_11__hash_nodeINS_17__hash_value_typeINS_12basic_stringIcNS_11char_traitsIcEENS_9allocatorIcEEEE14BooleanSettingEEPvEEEC2B8ue170006EPNS_16__hash_node_baseISD_EE, symObjAddr: 0x8C40, symBinAddr: 0x100011BE0, symSize: 0x20 }
  - { offsetInCU: 0xC244, offset: 0x3E402, size: 0x8, addend: 0x0, symName: __ZNSt3__14pairINS_15__hash_iteratorIPNS_11__hash_nodeINS_17__hash_value_typeINS_12basic_stringIcNS_11char_traitsIcEENS_9allocatorIcEEEE14BooleanSettingEEPvEEEEbEC2B8ue170006ISF_RbLSC_0EEEOT_OT0_, symObjAddr: 0x8C60, symBinAddr: 0x100011C00, symSize: 0x38 }
  - { offsetInCU: 0xC2A3, offset: 0x3E461, size: 0x8, addend: 0x0, symName: __ZNSt3__112__hash_tableINS_17__hash_value_typeINS_12basic_stringIcNS_11char_traitsIcEENS_9allocatorIcEEEE14BooleanSettingEENS_22__unordered_map_hasherIS7_S9_NS_4hashIS7_EENS_8equal_toIS7_EELb1EEENS_21__unordered_map_equalIS7_S9_SE_SC_Lb1EEENS5_IS9_EEE25__emplace_unique_key_argsIS7_JRKNS_4pairIKS7_S8_EEEEENSL_INS_15__hash_iteratorIPNS_11__hash_nodeIS9_PvEEEEbEERKT_DpOT0_, symObjAddr: 0x8C98, symBinAddr: 0x100011C38, symSize: 0x4A0 }
  - { offsetInCU: 0xC383, offset: 0x3E541, size: 0x8, addend: 0x0, symName: __ZNSt3__122__hash_key_value_typesINS_17__hash_value_typeINS_12basic_stringIcNS_11char_traitsIcEENS_9allocatorIcEEEE14BooleanSettingEEE9__get_keyB8ue170006ERKNS_4pairIKS7_S8_EE, symObjAddr: 0x9138, symBinAddr: 0x1000120D8, symSize: 0x14 }
  - { offsetInCU: 0xC3A6, offset: 0x3E564, size: 0x8, addend: 0x0, symName: __ZNKSt3__122__unordered_map_hasherINS_12basic_stringIcNS_11char_traitsIcEENS_9allocatorIcEEEENS_17__hash_value_typeIS6_14BooleanSettingEENS_4hashIS6_EENS_8equal_toIS6_EELb1EEclB8ue170006ERKS6_, symObjAddr: 0x914C, symBinAddr: 0x1000120EC, symSize: 0x2C }
  - { offsetInCU: 0xC3DB, offset: 0x3E599, size: 0x8, addend: 0x0, symName: __ZNKSt3__121__unordered_map_equalINS_12basic_stringIcNS_11char_traitsIcEENS_9allocatorIcEEEENS_17__hash_value_typeIS6_14BooleanSettingEENS_8equal_toIS6_EENS_4hashIS6_EELb1EEclB8ue170006ERKS9_RKS6_, symObjAddr: 0x9178, symBinAddr: 0x100012118, symSize: 0x48 }
  - { offsetInCU: 0xC41F, offset: 0x3E5DD, size: 0x8, addend: 0x0, symName: __ZNSt3__112__hash_tableINS_17__hash_value_typeINS_12basic_stringIcNS_11char_traitsIcEENS_9allocatorIcEEEE14BooleanSettingEENS_22__unordered_map_hasherIS7_S9_NS_4hashIS7_EENS_8equal_toIS7_EELb1EEENS_21__unordered_map_equalIS7_S9_SE_SC_Lb1EEENS5_IS9_EEE21__construct_node_hashIRKNS_4pairIKS7_S8_EEJEEENS_10unique_ptrINS_11__hash_nodeIS9_PvEENS_22__hash_node_destructorINS5_IST_EEEEEEmOT_DpOT0_, symObjAddr: 0x91C0, symBinAddr: 0x100012160, symSize: 0x140 }
  - { offsetInCU: 0xC492, offset: 0x3E650, size: 0x8, addend: 0x0, symName: __ZNKSt3__110unique_ptrINS_11__hash_nodeINS_17__hash_value_typeINS_12basic_stringIcNS_11char_traitsIcEENS_9allocatorIcEEEE14BooleanSettingEEPvEENS_22__hash_node_destructorINS6_ISC_EEEEEptB8ue170006Ev, symObjAddr: 0x9300, symBinAddr: 0x1000122A0, symSize: 0x28 }
  - { offsetInCU: 0xC4B8, offset: 0x3E676, size: 0x8, addend: 0x0, symName: __ZNKSt3__110unique_ptrINS_11__hash_nodeINS_17__hash_value_typeINS_12basic_stringIcNS_11char_traitsIcEENS_9allocatorIcEEEE14BooleanSettingEEPvEENS_22__hash_node_destructorINS6_ISC_EEEEE3getB8ue170006Ev, symObjAddr: 0x9328, symBinAddr: 0x1000122C8, symSize: 0x28 }
  - { offsetInCU: 0xC4DE, offset: 0x3E69C, size: 0x8, addend: 0x0, symName: __ZNSt3__110unique_ptrINS_11__hash_nodeINS_17__hash_value_typeINS_12basic_stringIcNS_11char_traitsIcEENS_9allocatorIcEEEE14BooleanSettingEEPvEENS_22__hash_node_destructorINS6_ISC_EEEEE7releaseB8ue170006Ev, symObjAddr: 0x9350, symBinAddr: 0x1000122F0, symSize: 0x44 }
  - { offsetInCU: 0xC513, offset: 0x3E6D1, size: 0x8, addend: 0x0, symName: __ZNSt3__110unique_ptrINS_11__hash_nodeINS_17__hash_value_typeINS_12basic_stringIcNS_11char_traitsIcEENS_9allocatorIcEEEE14BooleanSettingEEPvEENS_22__hash_node_destructorINS6_ISC_EEEEED1B8ue170006Ev, symObjAddr: 0x9394, symBinAddr: 0x100012334, symSize: 0x2C }
  - { offsetInCU: 0xC53D, offset: 0x3E6FB, size: 0x8, addend: 0x0, symName: __ZNSt3__116allocator_traitsINS_9allocatorINS_11__hash_nodeINS_17__hash_value_typeINS_12basic_stringIcNS_11char_traitsIcEENS1_IcEEEE14BooleanSettingEEPvEEEEE8allocateB8ue170006ERSD_m, symObjAddr: 0x93C0, symBinAddr: 0x100012360, symSize: 0x2C }
  - { offsetInCU: 0xC570, offset: 0x3E72E, size: 0x8, addend: 0x0, symName: __ZNSt3__122__hash_node_destructorINS_9allocatorINS_11__hash_nodeINS_17__hash_value_typeINS_12basic_stringIcNS_11char_traitsIcEENS1_IcEEEE14BooleanSettingEEPvEEEEEC1B8ue170006ERSD_b, symObjAddr: 0x93EC, symBinAddr: 0x10001238C, symSize: 0x48 }
  - { offsetInCU: 0xC5BD, offset: 0x3E77B, size: 0x8, addend: 0x0, symName: __ZNSt3__110unique_ptrINS_11__hash_nodeINS_17__hash_value_typeINS_12basic_stringIcNS_11char_traitsIcEENS_9allocatorIcEEEE14BooleanSettingEEPvEENS_22__hash_node_destructorINS6_ISC_EEEEEC1B8ue170006ILb1EvEEPSC_NS_16__dependent_typeINS_27__unique_ptr_deleter_sfinaeISF_EEXT_EE20__good_rval_ref_typeE, symObjAddr: 0x9434, symBinAddr: 0x1000123D4, symSize: 0x3C }
  - { offsetInCU: 0xC60E, offset: 0x3E7CC, size: 0x8, addend: 0x0, symName: __ZNSt3__116allocator_traitsINS_9allocatorINS_11__hash_nodeINS_17__hash_value_typeINS_12basic_stringIcNS_11char_traitsIcEENS1_IcEEEE14BooleanSettingEEPvEEEEE9constructB8ue170006INS_4pairIKS8_S9_EEJRKSI_EvvEEvRSD_PT_DpOT0_, symObjAddr: 0x9470, symBinAddr: 0x100012410, symSize: 0x30 }
  - { offsetInCU: 0xC663, offset: 0x3E821, size: 0x8, addend: 0x0, symName: __ZNSt3__110unique_ptrINS_11__hash_nodeINS_17__hash_value_typeINS_12basic_stringIcNS_11char_traitsIcEENS_9allocatorIcEEEE14BooleanSettingEEPvEENS_22__hash_node_destructorINS6_ISC_EEEEE11get_deleterB8ue170006Ev, symObjAddr: 0x94A0, symBinAddr: 0x100012440, symSize: 0x24 }
  - { offsetInCU: 0xC689, offset: 0x3E847, size: 0x8, addend: 0x0, symName: __ZNSt3__19allocatorINS_11__hash_nodeINS_17__hash_value_typeINS_12basic_stringIcNS_11char_traitsIcEENS0_IcEEEE14BooleanSettingEEPvEEE8allocateB8ue170006Em, symObjAddr: 0x94C4, symBinAddr: 0x100012464, symSize: 0x5C }
  - { offsetInCU: 0xC6C7, offset: 0x3E885, size: 0x8, addend: 0x0, symName: __ZNSt3__116allocator_traitsINS_9allocatorINS_11__hash_nodeINS_17__hash_value_typeINS_12basic_stringIcNS_11char_traitsIcEENS1_IcEEEE14BooleanSettingEEPvEEEEE8max_sizeB8ue170006ISD_vvEEmRKSD_, symObjAddr: 0x9520, symBinAddr: 0x1000124C0, symSize: 0x28 }
  - { offsetInCU: 0xC6F3, offset: 0x3E8B1, size: 0x8, addend: 0x0, symName: __ZNSt3__122__hash_node_destructorINS_9allocatorINS_11__hash_nodeINS_17__hash_value_typeINS_12basic_stringIcNS_11char_traitsIcEENS1_IcEEEE14BooleanSettingEEPvEEEEEC2B8ue170006ERSD_b, symObjAddr: 0x9548, symBinAddr: 0x1000124E8, symSize: 0x38 }
  - { offsetInCU: 0xC73B, offset: 0x3E8F9, size: 0x8, addend: 0x0, symName: __ZNSt3__110unique_ptrINS_11__hash_nodeINS_17__hash_value_typeINS_12basic_stringIcNS_11char_traitsIcEENS_9allocatorIcEEEE14BooleanSettingEEPvEENS_22__hash_node_destructorINS6_ISC_EEEEEC2B8ue170006ILb1EvEEPSC_NS_16__dependent_typeINS_27__unique_ptr_deleter_sfinaeISF_EEXT_EE20__good_rval_ref_typeE, symObjAddr: 0x9580, symBinAddr: 0x100012520, symSize: 0x48 }
  - { offsetInCU: 0xC78C, offset: 0x3E94A, size: 0x8, addend: 0x0, symName: __ZNSt3__117__compressed_pairIPNS_11__hash_nodeINS_17__hash_value_typeINS_12basic_stringIcNS_11char_traitsIcEENS_9allocatorIcEEEE14BooleanSettingEEPvEENS_22__hash_node_destructorINS6_ISC_EEEEEC1B8ue170006IRSD_SG_EEOT_OT0_, symObjAddr: 0x95C8, symBinAddr: 0x100012568, symSize: 0x3C }
  - { offsetInCU: 0xC7E4, offset: 0x3E9A2, size: 0x8, addend: 0x0, symName: __ZNSt3__117__compressed_pairIPNS_11__hash_nodeINS_17__hash_value_typeINS_12basic_stringIcNS_11char_traitsIcEENS_9allocatorIcEEEE14BooleanSettingEEPvEENS_22__hash_node_destructorINS6_ISC_EEEEEC2B8ue170006IRSD_SG_EEOT_OT0_, symObjAddr: 0x9604, symBinAddr: 0x1000125A4, symSize: 0x48 }
  - { offsetInCU: 0xC83C, offset: 0x3E9FA, size: 0x8, addend: 0x0, symName: __ZNSt3__122__compressed_pair_elemIPNS_11__hash_nodeINS_17__hash_value_typeINS_12basic_stringIcNS_11char_traitsIcEENS_9allocatorIcEEEE14BooleanSettingEEPvEELi0ELb0EEC2B8ue170006IRSD_vEEOT_, symObjAddr: 0x964C, symBinAddr: 0x1000125EC, symSize: 0x24 }
  - { offsetInCU: 0xC87E, offset: 0x3EA3C, size: 0x8, addend: 0x0, symName: __ZNSt3__122__compressed_pair_elemINS_22__hash_node_destructorINS_9allocatorINS_11__hash_nodeINS_17__hash_value_typeINS_12basic_stringIcNS_11char_traitsIcEENS2_IcEEEE14BooleanSettingEEPvEEEEEELi1ELb0EEC2B8ue170006ISF_vEEOT_, symObjAddr: 0x9670, symBinAddr: 0x100012610, symSize: 0x24 }
  - { offsetInCU: 0xC8C0, offset: 0x3EA7E, size: 0x8, addend: 0x0, symName: __ZNSt3__14pairIKNS_12basic_stringIcNS_11char_traitsIcEENS_9allocatorIcEEEE14BooleanSettingEC1B8ue170006ERKS9_, symObjAddr: 0x96D0, symBinAddr: 0x100012670, symSize: 0x34 }
  - { offsetInCU: 0xC8F5, offset: 0x3EAB3, size: 0x8, addend: 0x0, symName: __ZNSt3__14pairIKNS_12basic_stringIcNS_11char_traitsIcEENS_9allocatorIcEEEE14BooleanSettingEC2B8ue170006ERKS9_, symObjAddr: 0x9704, symBinAddr: 0x1000126A4, symSize: 0x70 }
  - { offsetInCU: 0xC92A, offset: 0x3EAE8, size: 0x8, addend: 0x0, symName: __ZNSt3__117__compressed_pairIPNS_11__hash_nodeINS_17__hash_value_typeINS_12basic_stringIcNS_11char_traitsIcEENS_9allocatorIcEEEE14BooleanSettingEEPvEENS_22__hash_node_destructorINS6_ISC_EEEEE6secondB8ue170006Ev, symObjAddr: 0x9774, symBinAddr: 0x100012714, symSize: 0x28 }
  - { offsetInCU: 0xC950, offset: 0x3EB0E, size: 0x8, addend: 0x0, symName: __ZNSt3__122__compressed_pair_elemINS_22__hash_node_destructorINS_9allocatorINS_11__hash_nodeINS_17__hash_value_typeINS_12basic_stringIcNS_11char_traitsIcEENS2_IcEEEE14BooleanSettingEEPvEEEEEELi1ELb0EE5__getB8ue170006Ev, symObjAddr: 0x979C, symBinAddr: 0x10001273C, symSize: 0x14 }
  - { offsetInCU: 0xC976, offset: 0x3EB34, size: 0x8, addend: 0x0, symName: __ZNKSt3__117__compressed_pairIPNS_11__hash_nodeINS_17__hash_value_typeINS_12basic_stringIcNS_11char_traitsIcEENS_9allocatorIcEEEE14BooleanSettingEEPvEENS_22__hash_node_destructorINS6_ISC_EEEEE5firstB8ue170006Ev, symObjAddr: 0x97B0, symBinAddr: 0x100012750, symSize: 0x24 }
  - { offsetInCU: 0xC99C, offset: 0x3EB5A, size: 0x8, addend: 0x0, symName: __ZNKSt3__122__compressed_pair_elemIPNS_11__hash_nodeINS_17__hash_value_typeINS_12basic_stringIcNS_11char_traitsIcEENS_9allocatorIcEEEE14BooleanSettingEEPvEELi0ELb0EE5__getB8ue170006Ev, symObjAddr: 0x97D4, symBinAddr: 0x100012774, symSize: 0x14 }
  - { offsetInCU: 0xC9C2, offset: 0x3EB80, size: 0x8, addend: 0x0, symName: __ZNSt3__117__compressed_pairIPNS_11__hash_nodeINS_17__hash_value_typeINS_12basic_stringIcNS_11char_traitsIcEENS_9allocatorIcEEEE14BooleanSettingEEPvEENS_22__hash_node_destructorINS6_ISC_EEEEE5firstB8ue170006Ev, symObjAddr: 0x97E8, symBinAddr: 0x100012788, symSize: 0x24 }
  - { offsetInCU: 0xC9E8, offset: 0x3EBA6, size: 0x8, addend: 0x0, symName: __ZNSt3__122__compressed_pair_elemIPNS_11__hash_nodeINS_17__hash_value_typeINS_12basic_stringIcNS_11char_traitsIcEENS_9allocatorIcEEEE14BooleanSettingEEPvEELi0ELb0EE5__getB8ue170006Ev, symObjAddr: 0x980C, symBinAddr: 0x1000127AC, symSize: 0x14 }
  - { offsetInCU: 0xCA0E, offset: 0x3EBCC, size: 0x8, addend: 0x0, symName: __ZNSt3__110unique_ptrINS_11__hash_nodeINS_17__hash_value_typeINS_12basic_stringIcNS_11char_traitsIcEENS_9allocatorIcEEEE14BooleanSettingEEPvEENS_22__hash_node_destructorINS6_ISC_EEEEED2B8ue170006Ev, symObjAddr: 0x9820, symBinAddr: 0x1000127C0, symSize: 0x30 }
  - { offsetInCU: 0xCA38, offset: 0x3EBF6, size: 0x8, addend: 0x0, symName: __ZNSt3__110unique_ptrINS_11__hash_nodeINS_17__hash_value_typeINS_12basic_stringIcNS_11char_traitsIcEENS_9allocatorIcEEEE14BooleanSettingEEPvEENS_22__hash_node_destructorINS6_ISC_EEEEE5resetB8ue170006EPSC_, symObjAddr: 0x9850, symBinAddr: 0x1000127F0, symSize: 0x78 }
  - { offsetInCU: 0xCA7C, offset: 0x3EC3A, size: 0x8, addend: 0x0, symName: __ZNSt3__122__hash_node_destructorINS_9allocatorINS_11__hash_nodeINS_17__hash_value_typeINS_12basic_stringIcNS_11char_traitsIcEENS1_IcEEEE14BooleanSettingEEPvEEEEEclB8ue170006EPSC_, symObjAddr: 0x98C8, symBinAddr: 0x100012868, symSize: 0x98 }
  - { offsetInCU: 0xCAB1, offset: 0x3EC6F, size: 0x8, addend: 0x0, symName: __ZNKSt3__113unordered_mapINS_12basic_stringIcNS_11char_traitsIcEENS_9allocatorIcEEEE14BooleanSettingNS_4hashIS6_EENS_8equal_toIS6_EENS4_INS_4pairIKS6_S7_EEEEE4findB8ue170006ERSD_, symObjAddr: 0x9990, symBinAddr: 0x100012930, symSize: 0x40 }
  - { offsetInCU: 0xCAE6, offset: 0x3ECA4, size: 0x8, addend: 0x0, symName: __ZNKSt3__113unordered_mapINS_12basic_stringIcNS_11char_traitsIcEENS_9allocatorIcEEEE14BooleanSettingNS_4hashIS6_EENS_8equal_toIS6_EENS4_INS_4pairIKS6_S7_EEEEE3endB8ue170006Ev, symObjAddr: 0x99D0, symBinAddr: 0x100012970, symSize: 0x38 }
  - { offsetInCU: 0xCB0C, offset: 0x3ECCA, size: 0x8, addend: 0x0, symName: __ZNKSt3__112__hash_tableINS_17__hash_value_typeINS_12basic_stringIcNS_11char_traitsIcEENS_9allocatorIcEEEE14BooleanSettingEENS_22__unordered_map_hasherIS7_S9_NS_4hashIS7_EENS_8equal_toIS7_EELb1EEENS_21__unordered_map_equalIS7_S9_SE_SC_Lb1EEENS5_IS9_EEE4findIS7_EENS_21__hash_const_iteratorIPNS_11__hash_nodeIS9_PvEEEERKT_, symObjAddr: 0x9A38, symBinAddr: 0x1000129D8, symSize: 0x1B8 }
  - { offsetInCU: 0xCB96, offset: 0x3ED54, size: 0x8, addend: 0x0, symName: __ZNSt3__125__hash_map_const_iteratorINS_21__hash_const_iteratorIPNS_11__hash_nodeINS_17__hash_value_typeINS_12basic_stringIcNS_11char_traitsIcEENS_9allocatorIcEEEE14BooleanSettingEEPvEEEEEC1B8ue170006ESF_, symObjAddr: 0x9BF0, symBinAddr: 0x100012B90, symSize: 0x34 }
  - { offsetInCU: 0xCBCF, offset: 0x3ED8D, size: 0x8, addend: 0x0, symName: __ZNKSt3__112__hash_tableINS_17__hash_value_typeINS_12basic_stringIcNS_11char_traitsIcEENS_9allocatorIcEEEE14BooleanSettingEENS_22__unordered_map_hasherIS7_S9_NS_4hashIS7_EENS_8equal_toIS7_EELb1EEENS_21__unordered_map_equalIS7_S9_SE_SC_Lb1EEENS5_IS9_EEE13hash_functionB8ue170006Ev, symObjAddr: 0x9C24, symBinAddr: 0x100012BC4, symSize: 0x28 }
  - { offsetInCU: 0xCBF5, offset: 0x3EDB3, size: 0x8, addend: 0x0, symName: __ZNKSt3__112__hash_tableINS_17__hash_value_typeINS_12basic_stringIcNS_11char_traitsIcEENS_9allocatorIcEEEE14BooleanSettingEENS_22__unordered_map_hasherIS7_S9_NS_4hashIS7_EENS_8equal_toIS7_EELb1EEENS_21__unordered_map_equalIS7_S9_SE_SC_Lb1EEENS5_IS9_EEE6key_eqB8ue170006Ev, symObjAddr: 0x9C4C, symBinAddr: 0x100012BEC, symSize: 0x28 }
  - { offsetInCU: 0xCC1B, offset: 0x3EDD9, size: 0x8, addend: 0x0, symName: __ZNSt3__121__hash_const_iteratorIPNS_11__hash_nodeINS_17__hash_value_typeINS_12basic_stringIcNS_11char_traitsIcEENS_9allocatorIcEEEE14BooleanSettingEEPvEEEC1B8ue170006EPNS_16__hash_node_baseISD_EE, symObjAddr: 0x9C74, symBinAddr: 0x100012C14, symSize: 0x34 }
  - { offsetInCU: 0xCC54, offset: 0x3EE12, size: 0x8, addend: 0x0, symName: __ZNKSt3__112__hash_tableINS_17__hash_value_typeINS_12basic_stringIcNS_11char_traitsIcEENS_9allocatorIcEEEE14BooleanSettingEENS_22__unordered_map_hasherIS7_S9_NS_4hashIS7_EENS_8equal_toIS7_EELb1EEENS_21__unordered_map_equalIS7_S9_SE_SC_Lb1EEENS5_IS9_EEE3endEv, symObjAddr: 0x9CA8, symBinAddr: 0x100012C48, symSize: 0x2C }
  - { offsetInCU: 0xCC7C, offset: 0x3EE3A, size: 0x8, addend: 0x0, symName: __ZNKSt3__117__compressed_pairImNS_22__unordered_map_hasherINS_12basic_stringIcNS_11char_traitsIcEENS_9allocatorIcEEEENS_17__hash_value_typeIS7_14BooleanSettingEENS_4hashIS7_EENS_8equal_toIS7_EELb1EEEE6secondB8ue170006Ev, symObjAddr: 0x9CD4, symBinAddr: 0x100012C74, symSize: 0x24 }
  - { offsetInCU: 0xCCA2, offset: 0x3EE60, size: 0x8, addend: 0x0, symName: __ZNKSt3__122__compressed_pair_elemINS_22__unordered_map_hasherINS_12basic_stringIcNS_11char_traitsIcEENS_9allocatorIcEEEENS_17__hash_value_typeIS7_14BooleanSettingEENS_4hashIS7_EENS_8equal_toIS7_EELb1EEELi1ELb1EE5__getB8ue170006Ev, symObjAddr: 0x9CF8, symBinAddr: 0x100012C98, symSize: 0x14 }
  - { offsetInCU: 0xCCC8, offset: 0x3EE86, size: 0x8, addend: 0x0, symName: __ZNKSt3__117__compressed_pairIfNS_21__unordered_map_equalINS_12basic_stringIcNS_11char_traitsIcEENS_9allocatorIcEEEENS_17__hash_value_typeIS7_14BooleanSettingEENS_8equal_toIS7_EENS_4hashIS7_EELb1EEEE6secondB8ue170006Ev, symObjAddr: 0x9D0C, symBinAddr: 0x100012CAC, symSize: 0x24 }
  - { offsetInCU: 0xCCEE, offset: 0x3EEAC, size: 0x8, addend: 0x0, symName: __ZNKSt3__122__compressed_pair_elemINS_21__unordered_map_equalINS_12basic_stringIcNS_11char_traitsIcEENS_9allocatorIcEEEENS_17__hash_value_typeIS7_14BooleanSettingEENS_8equal_toIS7_EENS_4hashIS7_EELb1EEELi1ELb1EE5__getB8ue170006Ev, symObjAddr: 0x9D30, symBinAddr: 0x100012CD0, symSize: 0x14 }
  - { offsetInCU: 0xCD14, offset: 0x3EED2, size: 0x8, addend: 0x0, symName: __ZNSt3__121__hash_const_iteratorIPNS_11__hash_nodeINS_17__hash_value_typeINS_12basic_stringIcNS_11char_traitsIcEENS_9allocatorIcEEEE14BooleanSettingEEPvEEEC2B8ue170006EPNS_16__hash_node_baseISD_EE, symObjAddr: 0x9D44, symBinAddr: 0x100012CE4, symSize: 0x20 }
  - { offsetInCU: 0xCD4D, offset: 0x3EF0B, size: 0x8, addend: 0x0, symName: __ZNSt3__125__hash_map_const_iteratorINS_21__hash_const_iteratorIPNS_11__hash_nodeINS_17__hash_value_typeINS_12basic_stringIcNS_11char_traitsIcEENS_9allocatorIcEEEE14BooleanSettingEEPvEEEEEC2B8ue170006ESF_, symObjAddr: 0x9D64, symBinAddr: 0x100012D04, symSize: 0x20 }
  - { offsetInCU: 0xCD86, offset: 0x3EF44, size: 0x8, addend: 0x0, symName: __ZNKSt3__125__hash_map_const_iteratorINS_21__hash_const_iteratorIPNS_11__hash_nodeINS_17__hash_value_typeINS_12basic_stringIcNS_11char_traitsIcEENS_9allocatorIcEEEE14BooleanSettingEEPvEEEEEptB8ue170006Ev, symObjAddr: 0x9DE8, symBinAddr: 0x100012D24, symSize: 0x2C }
  - { offsetInCU: 0xCDAC, offset: 0x3EF6A, size: 0x8, addend: 0x0, symName: __ZNSt3__114pointer_traitsIPKNS_4pairIKNS_12basic_stringIcNS_11char_traitsIcEENS_9allocatorIcEEEE14BooleanSettingEEE10pointer_toB8ue170006ERSB_, symObjAddr: 0x9E94, symBinAddr: 0x100012D50, symSize: 0x14 }
  - { offsetInCU: 0xCDCF, offset: 0x3EF8D, size: 0x8, addend: 0x0, symName: __ZNKSt3__121__hash_const_iteratorIPNS_11__hash_nodeINS_17__hash_value_typeINS_12basic_stringIcNS_11char_traitsIcEENS_9allocatorIcEEEE14BooleanSettingEEPvEEEptB8ue170006Ev, symObjAddr: 0x9EA8, symBinAddr: 0x100012D64, symSize: 0x30 }
  - { offsetInCU: 0xCDF5, offset: 0x3EFB3, size: 0x8, addend: 0x0, symName: __ZNSt3__114pointer_traitsIPKNS_17__hash_value_typeINS_12basic_stringIcNS_11char_traitsIcEENS_9allocatorIcEEEE14BooleanSettingEEE10pointer_toB8ue170006ERSA_, symObjAddr: 0x9ED8, symBinAddr: 0x100012D94, symSize: 0x14 }
  - { offsetInCU: 0xCE18, offset: 0x3EFD6, size: 0x8, addend: 0x0, symName: __ZNSt3__113unordered_mapINS_12basic_stringIcNS_11char_traitsIcEENS_9allocatorIcEEEE14BooleanSettingNS_4hashIS6_EENS_8equal_toIS6_EENS4_INS_4pairIKS6_S7_EEEEE4findB8ue170006ERSD_, symObjAddr: 0x9EEC, symBinAddr: 0x100012DA8, symSize: 0x40 }
  - { offsetInCU: 0xCE4D, offset: 0x3F00B, size: 0x8, addend: 0x0, symName: __ZNSt3__113unordered_mapINS_12basic_stringIcNS_11char_traitsIcEENS_9allocatorIcEEEE14BooleanSettingNS_4hashIS6_EENS_8equal_toIS6_EENS4_INS_4pairIKS6_S7_EEEEE3endB8ue170006Ev, symObjAddr: 0x9F5C, symBinAddr: 0x100012E18, symSize: 0x38 }
  - { offsetInCU: 0xCE73, offset: 0x3F031, size: 0x8, addend: 0x0, symName: __ZNKSt3__119__hash_map_iteratorINS_15__hash_iteratorIPNS_11__hash_nodeINS_17__hash_value_typeINS_12basic_stringIcNS_11char_traitsIcEENS_9allocatorIcEEEE14BooleanSettingEEPvEEEEEptB8ue170006Ev, symObjAddr: 0x9F94, symBinAddr: 0x100012E50, symSize: 0x2C }
  - { offsetInCU: 0xCE99, offset: 0x3F057, size: 0x8, addend: 0x0, symName: __ZNSt3__112__hash_tableINS_17__hash_value_typeINS_12basic_stringIcNS_11char_traitsIcEENS_9allocatorIcEEEE14BooleanSettingEENS_22__unordered_map_hasherIS7_S9_NS_4hashIS7_EENS_8equal_toIS7_EELb1EEENS_21__unordered_map_equalIS7_S9_SE_SC_Lb1EEENS5_IS9_EEE4findIS7_EENS_15__hash_iteratorIPNS_11__hash_nodeIS9_PvEEEERKT_, symObjAddr: 0x9FC0, symBinAddr: 0x100012E7C, symSize: 0x1B0 }
  - { offsetInCU: 0xCF23, offset: 0x3F0E1, size: 0x8, addend: 0x0, symName: __ZNSt3__119__hash_map_iteratorINS_15__hash_iteratorIPNS_11__hash_nodeINS_17__hash_value_typeINS_12basic_stringIcNS_11char_traitsIcEENS_9allocatorIcEEEE14BooleanSettingEEPvEEEEEC1B8ue170006ESF_, symObjAddr: 0xA170, symBinAddr: 0x10001302C, symSize: 0x34 }
  - { offsetInCU: 0xCF5C, offset: 0x3F11A, size: 0x8, addend: 0x0, symName: __ZNSt3__112__hash_tableINS_17__hash_value_typeINS_12basic_stringIcNS_11char_traitsIcEENS_9allocatorIcEEEE14BooleanSettingEENS_22__unordered_map_hasherIS7_S9_NS_4hashIS7_EENS_8equal_toIS7_EELb1EEENS_21__unordered_map_equalIS7_S9_SE_SC_Lb1EEENS5_IS9_EEE3endEv, symObjAddr: 0xA1A4, symBinAddr: 0x100013060, symSize: 0x2C }
  - { offsetInCU: 0xCF84, offset: 0x3F142, size: 0x8, addend: 0x0, symName: __ZNSt3__119__hash_map_iteratorINS_15__hash_iteratorIPNS_11__hash_nodeINS_17__hash_value_typeINS_12basic_stringIcNS_11char_traitsIcEENS_9allocatorIcEEEE14BooleanSettingEEPvEEEEEC2B8ue170006ESF_, symObjAddr: 0xA1D0, symBinAddr: 0x10001308C, symSize: 0x20 }
  - { offsetInCU: 0xCFBD, offset: 0x3F17B, size: 0x8, addend: 0x0, symName: __ZNSt3__114pointer_traitsIPNS_4pairIKNS_12basic_stringIcNS_11char_traitsIcEENS_9allocatorIcEEEE14BooleanSettingEEE10pointer_toB8ue170006ERSA_, symObjAddr: 0xA220, symBinAddr: 0x1000130DC, symSize: 0x14 }
  - { offsetInCU: 0xCFE0, offset: 0x3F19E, size: 0x8, addend: 0x0, symName: __ZNKSt3__115__hash_iteratorIPNS_11__hash_nodeINS_17__hash_value_typeINS_12basic_stringIcNS_11char_traitsIcEENS_9allocatorIcEEEE14BooleanSettingEEPvEEEptB8ue170006Ev, symObjAddr: 0xA234, symBinAddr: 0x1000130F0, symSize: 0x30 }
  - { offsetInCU: 0xD006, offset: 0x3F1C4, size: 0x8, addend: 0x0, symName: __ZNSt3__114pointer_traitsIPNS_17__hash_value_typeINS_12basic_stringIcNS_11char_traitsIcEENS_9allocatorIcEEEE14BooleanSettingEEE10pointer_toB8ue170006ERS9_, symObjAddr: 0xA264, symBinAddr: 0x100013120, symSize: 0x14 }
  - { offsetInCU: 0xC137, offset: 0x4B44E, size: 0x8, addend: 0x0, symName: __ZNSt3__17advanceB8ue170006IPNS_10shared_ptrI6ActionEEllvEEvRT_T0_, symObjAddr: 0x2C90, symBinAddr: 0x1000159EC, symSize: 0x38 }
  - { offsetInCU: 0xF8A5, offset: 0x4EBBC, size: 0x8, addend: 0x0, symName: __ZNSt3__111make_sharedB8ue170006I23FixedPositionMoveActionJR10ScreenSizeR8PositionEvEENS_10shared_ptrIT_EEDpOT0_, symObjAddr: 0x364, symBinAddr: 0x100013498, symSize: 0x48 }
  - { offsetInCU: 0xFB18, offset: 0x4EE2F, size: 0x8, addend: 0x0, symName: __ZNSt3__111make_sharedB8ue170006I18CharwiseMoveActionJR10ScreenSize9DirectionEvEENS_10shared_ptrIT_EEDpOT0_, symObjAddr: 0xFD8, symBinAddr: 0x1000140E0, symSize: 0x48 }
  - { offsetInCU: 0xFD8B, offset: 0x4F0A2, size: 0x8, addend: 0x0, symName: __ZNSt3__111make_sharedB8ue170006I12IndentActionJiEvEENS_10shared_ptrIT_EEDpOT0_, symObjAddr: 0x1080, symBinAddr: 0x100014188, symSize: 0x40 }
  - { offsetInCU: 0xFFEA, offset: 0x4F301, size: 0x8, addend: 0x0, symName: __ZNSt3__111make_sharedB8ue170006I14UnindentActionJiEvEENS_10shared_ptrIT_EEDpOT0_, symObjAddr: 0x1154, symBinAddr: 0x100014228, symSize: 0x40 }
  - { offsetInCU: 0x10249, offset: 0x4F560, size: 0x8, addend: 0x0, symName: __ZNSt3__122__make_exception_guardB8ue170006INS_6vectorINS_10shared_ptrI6ActionEENS_9allocatorIS4_EEE16__destroy_vectorEEENS_28__exception_guard_exceptionsIT_EESA_, symObjAddr: 0x190C, symBinAddr: 0x1000149D4, symSize: 0x40 }
  - { offsetInCU: 0x1027E, offset: 0x4F595, size: 0x8, addend: 0x0, symName: __ZNSt3__119__allocate_at_leastB8ue170006INS_9allocatorINS_10shared_ptrI6ActionEEEEEENS_19__allocation_resultINS_16allocator_traitsIT_E7pointerEEERS8_m, symObjAddr: 0x1C44, symBinAddr: 0x100014D0C, symSize: 0x40 }
  - { offsetInCU: 0x102C1, offset: 0x4F5D8, size: 0x8, addend: 0x0, symName: __ZNSt3__130__uninitialized_allocator_copyB8ue170006INS_9allocatorINS_10shared_ptrI6ActionEEEEPKS4_S7_PS4_EET2_RT_T0_T1_S9_, symObjAddr: 0x22DC, symBinAddr: 0x1000150A8, symSize: 0x80 }
  - { offsetInCU: 0x1035E, offset: 0x4F675, size: 0x8, addend: 0x0, symName: __ZNSt3__114__unwrap_rangeB8ue170006IPKNS_10shared_ptrI6ActionEES5_EEDaT_T0_, symObjAddr: 0x23CC, symBinAddr: 0x100015198, symSize: 0x3C }
  - { offsetInCU: 0x103AA, offset: 0x4F6C1, size: 0x8, addend: 0x0, symName: __ZNSt3__135__uninitialized_allocator_copy_implB8ue170006INS_9allocatorINS_10shared_ptrI6ActionEEEEPKS4_S7_PS4_EET2_RT_T0_T1_S9_, symObjAddr: 0x2408, symBinAddr: 0x1000151D4, symSize: 0xF4 }
  - { offsetInCU: 0x10448, offset: 0x4F75F, size: 0x8, addend: 0x0, symName: __ZNSt3__113__unwrap_iterB8ue170006IPNS_10shared_ptrI6ActionEENS_18__unwrap_iter_implIS4_Lb1EEELi0EEEDTclsrT0_8__unwrapclsr3stdE7declvalIT_EEEES8_, symObjAddr: 0x24FC, symBinAddr: 0x1000152C8, symSize: 0x24 }
  - { offsetInCU: 0x1048C, offset: 0x4F7A3, size: 0x8, addend: 0x0, symName: __ZNSt3__113__rewrap_iterB8ue170006IPNS_10shared_ptrI6ActionEES4_NS_18__unwrap_iter_implIS4_Lb1EEEEET_S7_T0_, symObjAddr: 0x2520, symBinAddr: 0x1000152EC, symSize: 0x3C }
  - { offsetInCU: 0x105E4, offset: 0x4F8FB, size: 0x8, addend: 0x0, symName: __ZNSt3__113__unwrap_iterB8ue170006IPKNS_10shared_ptrI6ActionEENS_18__unwrap_iter_implIS5_Lb1EEELi0EEEDTclsrT0_8__unwrapclsr3stdE7declvalIT_EEEES9_, symObjAddr: 0x25B4, symBinAddr: 0x100015380, symSize: 0x24 }
  - { offsetInCU: 0x1067B, offset: 0x4F992, size: 0x8, addend: 0x0, symName: __ZNSt3__112__to_addressB8ue170006IKNS_10shared_ptrI6ActionEEEEPT_S6_, symObjAddr: 0x2638, symBinAddr: 0x100015404, symSize: 0x14 }
  - { offsetInCU: 0x106B0, offset: 0x4F9C7, size: 0x8, addend: 0x0, symName: __ZNSt3__122__make_exception_guardB8ue170006INS_29_AllocatorDestroyRangeReverseINS_9allocatorINS_10shared_ptrI6ActionEEEEPS5_EEEENS_28__exception_guard_exceptionsIT_EESA_, symObjAddr: 0x2680, symBinAddr: 0x10001544C, symSize: 0x4C }
  - { offsetInCU: 0x1070D, offset: 0x4FA24, size: 0x8, addend: 0x0, symName: __ZNSt3__112construct_atB8ue170006INS_10shared_ptrI6ActionEEJRKS3_EPS3_EEPT_S8_DpOT0_, symObjAddr: 0x2824, symBinAddr: 0x1000155F0, symSize: 0x3C }
  - { offsetInCU: 0x1077F, offset: 0x4FA96, size: 0x8, addend: 0x0, symName: __ZNSt3__134__libcpp_atomic_refcount_incrementB8ue170006IlEET_RS1_, symObjAddr: 0x2950, symBinAddr: 0x10001571C, symSize: 0x30 }
  - { offsetInCU: 0x107B4, offset: 0x4FACB, size: 0x8, addend: 0x0, symName: __ZNSt3__119__allocator_destroyB8ue170006INS_9allocatorINS_10shared_ptrI6ActionEEEENS_16reverse_iteratorIPS4_EES8_EEvRT_T0_T1_, symObjAddr: 0x2A38, symBinAddr: 0x100015804, symSize: 0x70 }
  - { offsetInCU: 0x10817, offset: 0x4FB2E, size: 0x8, addend: 0x0, symName: __ZNSt3__1neB8ue170006IPNS_10shared_ptrI6ActionEES4_EEbRKNS_16reverse_iteratorIT_EERKNS5_IT0_EE, symObjAddr: 0x2ADC, symBinAddr: 0x1000158A8, symSize: 0x48 }
  - { offsetInCU: 0x10863, offset: 0x4FB7A, size: 0x8, addend: 0x0, symName: __ZNSt3__112__to_addressB8ue170006INS_16reverse_iteratorIPNS_10shared_ptrI6ActionEEEEvEEu7__decayIDTclsr19__to_address_helperIT_EE6__callclsr3stdE7declvalIRKS7_EEEEES9_, symObjAddr: 0x2B4C, symBinAddr: 0x1000158F0, symSize: 0x24 }
  - { offsetInCU: 0x108C3, offset: 0x4FBDA, size: 0x8, addend: 0x0, symName: __ZNSt3__14prevB8ue170006IPNS_10shared_ptrI6ActionEEEENS_9enable_ifIXsr29__has_input_iterator_categoryIT_EE5valueES6_E4typeES6_NS_15iterator_traitsIS6_E15difference_typeE, symObjAddr: 0x2C54, symBinAddr: 0x1000159B0, symSize: 0x3C }
  - { offsetInCU: 0x10906, offset: 0x4FC1D, size: 0x8, addend: 0x0, symName: __ZNSt3__19__advanceB8ue170006IPNS_10shared_ptrI6ActionEEEEvRT_NS_15iterator_traitsIS5_E15difference_typeENS_26random_access_iterator_tagE, symObjAddr: 0x2CDC, symBinAddr: 0x100015A24, symSize: 0x28 }
  - { offsetInCU: 0x109A3, offset: 0x4FCBA, size: 0x8, addend: 0x0, symName: __ZNSt3__115allocate_sharedB8ue170006I23FixedPositionMoveActionNS_9allocatorIS1_EEJR10ScreenSizeR8PositionEvEENS_10shared_ptrIT_EERKT0_DpOT1_, symObjAddr: 0x3594, symBinAddr: 0x100015E7C, symSize: 0xA0 }
  - { offsetInCU: 0x10D6D, offset: 0x50084, size: 0x8, addend: 0x0, symName: __ZNSt3__112construct_atB8ue170006I23FixedPositionMoveActionJR10ScreenSizeR8PositionEPS1_EEPT_S8_DpOT0_, symObjAddr: 0x3D0C, symBinAddr: 0x1000165F4, symSize: 0x5C }
  - { offsetInCU: 0x10DF2, offset: 0x50109, size: 0x8, addend: 0x0, symName: __ZNSt3__110destroy_atB8ue170006I23FixedPositionMoveActionLi0EEEvPT_, symObjAddr: 0x3E04, symBinAddr: 0x1000166EC, symSize: 0x24 }
  - { offsetInCU: 0x10E29, offset: 0x50140, size: 0x8, addend: 0x0, symName: __ZNSt3__112__destroy_atB8ue170006I23FixedPositionMoveActionLi0EEEvPT_, symObjAddr: 0x3E28, symBinAddr: 0x100016710, symSize: 0x2C }
  - { offsetInCU: 0x10E93, offset: 0x501AA, size: 0x8, addend: 0x0, symName: __ZNSt3__115allocate_sharedB8ue170006I18CharwiseMoveActionNS_9allocatorIS1_EEJR10ScreenSize9DirectionEvEENS_10shared_ptrIT_EERKT0_DpOT1_, symObjAddr: 0x40D4, symBinAddr: 0x1000169BC, symSize: 0xA0 }
  - { offsetInCU: 0x1125D, offset: 0x50574, size: 0x8, addend: 0x0, symName: __ZNSt3__112construct_atB8ue170006I18CharwiseMoveActionJR10ScreenSize9DirectionEPS1_EEPT_S7_DpOT0_, symObjAddr: 0x47C8, symBinAddr: 0x1000170B0, symSize: 0x54 }
  - { offsetInCU: 0x112E2, offset: 0x505F9, size: 0x8, addend: 0x0, symName: __ZNSt3__110destroy_atB8ue170006I18CharwiseMoveActionLi0EEEvPT_, symObjAddr: 0x48B8, symBinAddr: 0x1000171A0, symSize: 0x24 }
  - { offsetInCU: 0x11319, offset: 0x50630, size: 0x8, addend: 0x0, symName: __ZNSt3__112__destroy_atB8ue170006I18CharwiseMoveActionLi0EEEvPT_, symObjAddr: 0x48DC, symBinAddr: 0x1000171C4, symSize: 0x2C }
  - { offsetInCU: 0x11383, offset: 0x5069A, size: 0x8, addend: 0x0, symName: __ZNSt3__115allocate_sharedB8ue170006I12IndentActionNS_9allocatorIS1_EEJiEvEENS_10shared_ptrIT_EERKT0_DpOT1_, symObjAddr: 0x4B88, symBinAddr: 0x100017470, symSize: 0x98 }
  - { offsetInCU: 0x1172F, offset: 0x50A46, size: 0x8, addend: 0x0, symName: __ZNSt3__112construct_atB8ue170006I12IndentActionJiEPS1_EEPT_S4_DpOT0_, symObjAddr: 0x525C, symBinAddr: 0x100017B44, symSize: 0x40 }
  - { offsetInCU: 0x117A1, offset: 0x50AB8, size: 0x8, addend: 0x0, symName: __ZNSt3__110destroy_atB8ue170006I12IndentActionLi0EEEvPT_, symObjAddr: 0x5338, symBinAddr: 0x100017C20, symSize: 0x24 }
  - { offsetInCU: 0x117D8, offset: 0x50AEF, size: 0x8, addend: 0x0, symName: __ZNSt3__112__destroy_atB8ue170006I12IndentActionLi0EEEvPT_, symObjAddr: 0x535C, symBinAddr: 0x100017C44, symSize: 0x2C }
  - { offsetInCU: 0x11842, offset: 0x50B59, size: 0x8, addend: 0x0, symName: __ZNSt3__115allocate_sharedB8ue170006I14UnindentActionNS_9allocatorIS1_EEJiEvEENS_10shared_ptrIT_EERKT0_DpOT1_, symObjAddr: 0x5608, symBinAddr: 0x100017EF0, symSize: 0x98 }
  - { offsetInCU: 0x11BEE, offset: 0x50F05, size: 0x8, addend: 0x0, symName: __ZNSt3__112construct_atB8ue170006I14UnindentActionJiEPS1_EEPT_S4_DpOT0_, symObjAddr: 0x5CDC, symBinAddr: 0x1000185C4, symSize: 0x40 }
  - { offsetInCU: 0x11C60, offset: 0x50F77, size: 0x8, addend: 0x0, symName: __ZNSt3__110destroy_atB8ue170006I14UnindentActionLi0EEEvPT_, symObjAddr: 0x5DB8, symBinAddr: 0x1000186A0, symSize: 0x24 }
  - { offsetInCU: 0x11C97, offset: 0x50FAE, size: 0x8, addend: 0x0, symName: __ZNSt3__112__destroy_atB8ue170006I14UnindentActionLi0EEEvPT_, symObjAddr: 0x5DDC, symBinAddr: 0x1000186C4, symSize: 0x2C }
  - { offsetInCU: 0x154AF, offset: 0x547C6, size: 0x8, addend: 0x0, symName: __ZN8ToolMode18parseMouseMovementE8Position10ScreenSizeS1_, symObjAddr: 0x0, symBinAddr: 0x100013134, symSize: 0x2C8 }
  - { offsetInCU: 0x15526, offset: 0x5483D, size: 0x8, addend: 0x0, symName: __ZNSt3__18optionalI8ModeTypeEC1B8ue170006IS1_Li0EEEOT_, symObjAddr: 0x2C8, symBinAddr: 0x1000133FC, symSize: 0x34 }
  - { offsetInCU: 0x1556E, offset: 0x54885, size: 0x8, addend: 0x0, symName: __ZNSt3__16vectorINS_10shared_ptrI6ActionEENS_9allocatorIS3_EEEC1B8ue170006Ev, symObjAddr: 0x2FC, symBinAddr: 0x100013430, symSize: 0x2C }
  - { offsetInCU: 0x15598, offset: 0x548AF, size: 0x8, addend: 0x0, symName: __ZN8PositionC1Eii, symObjAddr: 0x328, symBinAddr: 0x10001345C, symSize: 0x3C }
  - { offsetInCU: 0x15601, offset: 0x54918, size: 0x8, addend: 0x0, symName: __ZNSt3__110shared_ptrI6ActionEC1B8ue170006I23FixedPositionMoveActionvEEONS0_IT_EE, symObjAddr: 0x3AC, symBinAddr: 0x1000134E0, symSize: 0x34 }
  - { offsetInCU: 0x15644, offset: 0x5495B, size: 0x8, addend: 0x0, symName: __ZNSt3__16vectorINS_10shared_ptrI6ActionEENS_9allocatorIS3_EEEC1B8ue170006ESt16initializer_listIS3_E, symObjAddr: 0x3E0, symBinAddr: 0x100013514, symSize: 0x3C }
  - { offsetInCU: 0x1567F, offset: 0x54996, size: 0x8, addend: 0x0, symName: __ZNSt3__110shared_ptrI23FixedPositionMoveActionED1B8ue170006Ev, symObjAddr: 0x448, symBinAddr: 0x100013550, symSize: 0x2C }
  - { offsetInCU: 0x156A9, offset: 0x549C0, size: 0x8, addend: 0x0, symName: __ZN8ToolMode15parseSpecialKeyE10SpecialKey14ParsingContext, symObjAddr: 0x474, symBinAddr: 0x10001357C, symSize: 0xB4C }
  - { offsetInCU: 0x15714, offset: 0x54A2B, size: 0x8, addend: 0x0, symName: __ZNSt3__110shared_ptrI6ActionEC1B8ue170006I18CharwiseMoveActionvEEONS0_IT_EE, symObjAddr: 0x1020, symBinAddr: 0x100014128, symSize: 0x34 }
  - { offsetInCU: 0x15757, offset: 0x54A6E, size: 0x8, addend: 0x0, symName: __ZNSt3__110shared_ptrI18CharwiseMoveActionED1B8ue170006Ev, symObjAddr: 0x1054, symBinAddr: 0x10001415C, symSize: 0x2C }
  - { offsetInCU: 0x157A9, offset: 0x54AC0, size: 0x8, addend: 0x0, symName: __ZNSt3__110shared_ptrI6ActionEC1B8ue170006I12IndentActionvEEONS0_IT_EE, symObjAddr: 0x10F4, symBinAddr: 0x1000141C8, symSize: 0x34 }
  - { offsetInCU: 0x157EC, offset: 0x54B03, size: 0x8, addend: 0x0, symName: __ZNSt3__110shared_ptrI12IndentActionED1B8ue170006Ev, symObjAddr: 0x1128, symBinAddr: 0x1000141FC, symSize: 0x2C }
  - { offsetInCU: 0x15839, offset: 0x54B50, size: 0x8, addend: 0x0, symName: __ZNSt3__110shared_ptrI6ActionEC1B8ue170006I14UnindentActionvEEONS0_IT_EE, symObjAddr: 0x1194, symBinAddr: 0x100014268, symSize: 0x34 }
  - { offsetInCU: 0x1587C, offset: 0x54B93, size: 0x8, addend: 0x0, symName: __ZNSt3__110shared_ptrI14UnindentActionED1B8ue170006Ev, symObjAddr: 0x11C8, symBinAddr: 0x10001429C, symSize: 0x2C }
  - { offsetInCU: 0x158A6, offset: 0x54BBD, size: 0x8, addend: 0x0, symName: __ZN8ToolMode18parseStandardInputEi14ParsingContext, symObjAddr: 0x11F4, symBinAddr: 0x1000142C8, symSize: 0x5C }
  - { offsetInCU: 0x158EB, offset: 0x54C02, size: 0x8, addend: 0x0, symName: __ZN8ToolMode10parseInputE5Input14ParsingContext, symObjAddr: 0x1250, symBinAddr: 0x100014324, symSize: 0x158 }
  - { offsetInCU: 0x15931, offset: 0x54C48, size: 0x8, addend: 0x0, symName: __ZNKSt3__123__optional_storage_baseI8PositionLb0EE9has_valueB8ue170006Ev, symObjAddr: 0x13A8, symBinAddr: 0x10001447C, symSize: 0x1C }
  - { offsetInCU: 0x15957, offset: 0x54C6E, size: 0x8, addend: 0x0, symName: __ZNRSt3__18optionalI8PositionEdeB8ue170006Ev, symObjAddr: 0x13C4, symBinAddr: 0x100014498, symSize: 0x24 }
  - { offsetInCU: 0x1597D, offset: 0x54C94, size: 0x8, addend: 0x0, symName: __ZNKSt3__123__optional_storage_baseI10SpecialKeyLb0EE9has_valueB8ue170006Ev, symObjAddr: 0x13E8, symBinAddr: 0x1000144BC, symSize: 0x1C }
  - { offsetInCU: 0x159A3, offset: 0x54CBA, size: 0x8, addend: 0x0, symName: __ZNRSt3__18optionalI10SpecialKeyEdeB8ue170006Ev, symObjAddr: 0x1404, symBinAddr: 0x1000144D8, symSize: 0x24 }
  - { offsetInCU: 0x159C9, offset: 0x54CE0, size: 0x8, addend: 0x0, symName: __ZNKSt3__123__optional_storage_baseIcLb0EE9has_valueB8ue170006Ev, symObjAddr: 0x1428, symBinAddr: 0x1000144FC, symSize: 0x1C }
  - { offsetInCU: 0x159EF, offset: 0x54D06, size: 0x8, addend: 0x0, symName: __ZNRSt3__18optionalIcEdeB8ue170006Ev, symObjAddr: 0x1444, symBinAddr: 0x100014518, symSize: 0x24 }
  - { offsetInCU: 0x15A15, offset: 0x54D2C, size: 0x8, addend: 0x0, symName: __ZN8ToolModeD1Ev, symObjAddr: 0x1468, symBinAddr: 0x10001453C, symSize: 0x2C }
  - { offsetInCU: 0x15A3F, offset: 0x54D56, size: 0x8, addend: 0x0, symName: __ZN8ToolModeD0Ev, symObjAddr: 0x1494, symBinAddr: 0x100014568, symSize: 0x30 }
  - { offsetInCU: 0x15A69, offset: 0x54D80, size: 0x8, addend: 0x0, symName: __ZNK8ToolMode12getModeLabelEv, symObjAddr: 0x14C4, symBinAddr: 0x100014598, symSize: 0x3C }
  - { offsetInCU: 0x15A8F, offset: 0x54DA6, size: 0x8, addend: 0x0, symName: __ZNSt3__18optionalI8ModeTypeEC2B8ue170006IS1_Li0EEEOT_, symObjAddr: 0x1500, symBinAddr: 0x1000145D4, symSize: 0x34 }
  - { offsetInCU: 0x15ADC, offset: 0x54DF3, size: 0x8, addend: 0x0, symName: __ZNSt3__127__optional_move_assign_baseI8ModeTypeLb1EECI2NS_24__optional_destruct_baseIS1_Lb1EEEIJS1_EEENS_10in_place_tEDpOT_, symObjAddr: 0x1534, symBinAddr: 0x100014608, symSize: 0x34 }
  - { offsetInCU: 0x15B20, offset: 0x54E37, size: 0x8, addend: 0x0, symName: __ZNSt3__127__optional_copy_assign_baseI8ModeTypeLb1EECI2NS_24__optional_destruct_baseIS1_Lb1EEEIJS1_EEENS_10in_place_tEDpOT_, symObjAddr: 0x1568, symBinAddr: 0x10001463C, symSize: 0x34 }
  - { offsetInCU: 0x15B64, offset: 0x54E7B, size: 0x8, addend: 0x0, symName: __ZNSt3__120__optional_move_baseI8ModeTypeLb1EECI2NS_24__optional_destruct_baseIS1_Lb1EEEIJS1_EEENS_10in_place_tEDpOT_, symObjAddr: 0x159C, symBinAddr: 0x100014670, symSize: 0x34 }
  - { offsetInCU: 0x15BA8, offset: 0x54EBF, size: 0x8, addend: 0x0, symName: __ZNSt3__120__optional_copy_baseI8ModeTypeLb1EECI2NS_24__optional_destruct_baseIS1_Lb1EEEIJS1_EEENS_10in_place_tEDpOT_, symObjAddr: 0x15D0, symBinAddr: 0x1000146A4, symSize: 0x34 }
  - { offsetInCU: 0x15BE7, offset: 0x54EFE, size: 0x8, addend: 0x0, symName: __ZNSt3__123__optional_storage_baseI8ModeTypeLb0EECI2NS_24__optional_destruct_baseIS1_Lb1EEEIJS1_EEENS_10in_place_tEDpOT_, symObjAddr: 0x1604, symBinAddr: 0x1000146D8, symSize: 0x34 }
  - { offsetInCU: 0x15C26, offset: 0x54F3D, size: 0x8, addend: 0x0, symName: __ZNSt3__124__optional_destruct_baseI8ModeTypeLb1EEC2B8ue170006IJS1_EEENS_10in_place_tEDpOT_, symObjAddr: 0x1638, symBinAddr: 0x10001470C, symSize: 0x2C }
  - { offsetInCU: 0x15C76, offset: 0x54F8D, size: 0x8, addend: 0x0, symName: __ZNSt3__16vectorINS_10shared_ptrI6ActionEENS_9allocatorIS3_EEEC2B8ue170006Ev, symObjAddr: 0x1664, symBinAddr: 0x100014738, symSize: 0x4C }
  - { offsetInCU: 0x15CAA, offset: 0x54FC1, size: 0x8, addend: 0x0, symName: __ZNSt3__117__compressed_pairIPNS_10shared_ptrI6ActionEENS_9allocatorIS3_EEEC1B8ue170006IDnNS_18__default_init_tagEEEOT_OT0_, symObjAddr: 0x16B0, symBinAddr: 0x100014784, symSize: 0x3C }
  - { offsetInCU: 0x15D02, offset: 0x55019, size: 0x8, addend: 0x0, symName: __ZNSt3__117__compressed_pairIPNS_10shared_ptrI6ActionEENS_9allocatorIS3_EEEC2B8ue170006IDnNS_18__default_init_tagEEEOT_OT0_, symObjAddr: 0x16F8, symBinAddr: 0x1000147C0, symSize: 0x40 }
  - { offsetInCU: 0x15D5A, offset: 0x55071, size: 0x8, addend: 0x0, symName: __ZNSt3__122__compressed_pair_elemIPNS_10shared_ptrI6ActionEELi0ELb0EEC2B8ue170006IDnvEEOT_, symObjAddr: 0x1738, symBinAddr: 0x100014800, symSize: 0x1C }
  - { offsetInCU: 0x15D9C, offset: 0x550B3, size: 0x8, addend: 0x0, symName: __ZNSt3__122__compressed_pair_elemINS_9allocatorINS_10shared_ptrI6ActionEEEELi1ELb1EEC2B8ue170006ENS_18__default_init_tagE, symObjAddr: 0x1754, symBinAddr: 0x10001481C, symSize: 0x2C }
  - { offsetInCU: 0x15DD1, offset: 0x550E8, size: 0x8, addend: 0x0, symName: __ZNSt3__19allocatorINS_10shared_ptrI6ActionEEEC2B8ue170006Ev, symObjAddr: 0x1780, symBinAddr: 0x100014848, symSize: 0x2C }
  - { offsetInCU: 0x15DFB, offset: 0x55112, size: 0x8, addend: 0x0, symName: __ZNSt3__116__non_trivial_ifILb1ENS_9allocatorINS_10shared_ptrI6ActionEEEEEC2B8ue170006Ev, symObjAddr: 0x17AC, symBinAddr: 0x100014874, symSize: 0x14 }
  - { offsetInCU: 0x15E25, offset: 0x5513C, size: 0x8, addend: 0x0, symName: __ZN8PositionC2Eii, symObjAddr: 0x17C0, symBinAddr: 0x100014888, symSize: 0x2C }
  - { offsetInCU: 0x15E6B, offset: 0x55182, size: 0x8, addend: 0x0, symName: __ZNSt3__16vectorINS_10shared_ptrI6ActionEENS_9allocatorIS3_EEEC2B8ue170006ESt16initializer_listIS3_E, symObjAddr: 0x17EC, symBinAddr: 0x1000148B4, symSize: 0x120 }
  - { offsetInCU: 0x15EBB, offset: 0x551D2, size: 0x8, addend: 0x0, symName: __ZNSt3__16vectorINS_10shared_ptrI6ActionEENS_9allocatorIS3_EEE16__destroy_vectorC1B8ue170006ERS6_, symObjAddr: 0x194C, symBinAddr: 0x100014A14, symSize: 0x34 }
  - { offsetInCU: 0x15EF4, offset: 0x5520B, size: 0x8, addend: 0x0, symName: __ZNKSt16initializer_listINSt3__110shared_ptrI6ActionEEE4sizeB8ue170006Ev, symObjAddr: 0x1980, symBinAddr: 0x100014A48, symSize: 0x18 }
  - { offsetInCU: 0x15F1A, offset: 0x55231, size: 0x8, addend: 0x0, symName: __ZNSt3__16vectorINS_10shared_ptrI6ActionEENS_9allocatorIS3_EEE11__vallocateB8ue170006Em, symObjAddr: 0x1998, symBinAddr: 0x100014A60, symSize: 0xAC }
  - { offsetInCU: 0x15F5E, offset: 0x55275, size: 0x8, addend: 0x0, symName: __ZNSt3__16vectorINS_10shared_ptrI6ActionEENS_9allocatorIS3_EEE18__construct_at_endIPKS3_S9_EEvT_T0_m, symObjAddr: 0x1A44, symBinAddr: 0x100014B0C, symSize: 0x8C }
  - { offsetInCU: 0x15FD4, offset: 0x552EB, size: 0x8, addend: 0x0, symName: __ZNKSt16initializer_listINSt3__110shared_ptrI6ActionEEE5beginB8ue170006Ev, symObjAddr: 0x1AD0, symBinAddr: 0x100014B98, symSize: 0x18 }
  - { offsetInCU: 0x15FFA, offset: 0x55311, size: 0x8, addend: 0x0, symName: __ZNKSt16initializer_listINSt3__110shared_ptrI6ActionEEE3endB8ue170006Ev, symObjAddr: 0x1AE8, symBinAddr: 0x100014BB0, symSize: 0x20 }
  - { offsetInCU: 0x16020, offset: 0x55337, size: 0x8, addend: 0x0, symName: __ZNSt3__128__exception_guard_exceptionsINS_6vectorINS_10shared_ptrI6ActionEENS_9allocatorIS4_EEE16__destroy_vectorEE10__completeB8ue170006Ev, symObjAddr: 0x1B08, symBinAddr: 0x100014BD0, symSize: 0x1C }
  - { offsetInCU: 0x16046, offset: 0x5535D, size: 0x8, addend: 0x0, symName: __ZNSt3__128__exception_guard_exceptionsINS_6vectorINS_10shared_ptrI6ActionEENS_9allocatorIS4_EEE16__destroy_vectorEED1B8ue170006Ev, symObjAddr: 0x1B24, symBinAddr: 0x100014BEC, symSize: 0x2C }
  - { offsetInCU: 0x16070, offset: 0x55387, size: 0x8, addend: 0x0, symName: __ZNSt3__128__exception_guard_exceptionsINS_6vectorINS_10shared_ptrI6ActionEENS_9allocatorIS4_EEE16__destroy_vectorEEC1B8ue170006ES8_, symObjAddr: 0x1B50, symBinAddr: 0x100014C18, symSize: 0x34 }
  - { offsetInCU: 0x160A8, offset: 0x553BF, size: 0x8, addend: 0x0, symName: __ZNSt3__128__exception_guard_exceptionsINS_6vectorINS_10shared_ptrI6ActionEENS_9allocatorIS4_EEE16__destroy_vectorEEC2B8ue170006ES8_, symObjAddr: 0x1B84, symBinAddr: 0x100014C4C, symSize: 0x24 }
  - { offsetInCU: 0x160E0, offset: 0x553F7, size: 0x8, addend: 0x0, symName: __ZNSt3__16vectorINS_10shared_ptrI6ActionEENS_9allocatorIS3_EEE16__destroy_vectorC2B8ue170006ERS6_, symObjAddr: 0x1BA8, symBinAddr: 0x100014C70, symSize: 0x20 }
  - { offsetInCU: 0x16119, offset: 0x55430, size: 0x8, addend: 0x0, symName: __ZNKSt3__16vectorINS_10shared_ptrI6ActionEENS_9allocatorIS3_EEE8max_sizeEv, symObjAddr: 0x1BC8, symBinAddr: 0x100014C90, symSize: 0x60 }
  - { offsetInCU: 0x16141, offset: 0x55458, size: 0x8, addend: 0x0, symName: __ZNKSt3__16vectorINS_10shared_ptrI6ActionEENS_9allocatorIS3_EEE20__throw_length_errorB8ue170006Ev, symObjAddr: 0x1C28, symBinAddr: 0x100014CF0, symSize: 0x1C }
  - { offsetInCU: 0x16167, offset: 0x5547E, size: 0x8, addend: 0x0, symName: __ZNSt3__16vectorINS_10shared_ptrI6ActionEENS_9allocatorIS3_EEE7__allocB8ue170006Ev, symObjAddr: 0x1C84, symBinAddr: 0x100014D4C, symSize: 0x28 }
  - { offsetInCU: 0x1618D, offset: 0x554A4, size: 0x8, addend: 0x0, symName: __ZNSt3__16vectorINS_10shared_ptrI6ActionEENS_9allocatorIS3_EEE9__end_capB8ue170006Ev, symObjAddr: 0x1CAC, symBinAddr: 0x100014D74, symSize: 0x28 }
  - { offsetInCU: 0x161B3, offset: 0x554CA, size: 0x8, addend: 0x0, symName: __ZNKSt3__16vectorINS_10shared_ptrI6ActionEENS_9allocatorIS3_EEE14__annotate_newB8ue170006Em, symObjAddr: 0x1CD4, symBinAddr: 0x100014D9C, symSize: 0xAC }
  - { offsetInCU: 0x161F2, offset: 0x55509, size: 0x8, addend: 0x0, symName: __ZNSt3__116allocator_traitsINS_9allocatorINS_10shared_ptrI6ActionEEEEE8max_sizeB8ue170006IS5_vvEEmRKS5_, symObjAddr: 0x1DAC, symBinAddr: 0x100014E48, symSize: 0x28 }
  - { offsetInCU: 0x1621E, offset: 0x55535, size: 0x8, addend: 0x0, symName: __ZNKSt3__16vectorINS_10shared_ptrI6ActionEENS_9allocatorIS3_EEE7__allocB8ue170006Ev, symObjAddr: 0x1DD4, symBinAddr: 0x100014E70, symSize: 0x28 }
  - { offsetInCU: 0x16244, offset: 0x5555B, size: 0x8, addend: 0x0, symName: __ZNKSt3__117__compressed_pairIPNS_10shared_ptrI6ActionEENS_9allocatorIS3_EEE6secondB8ue170006Ev, symObjAddr: 0x1EB4, symBinAddr: 0x100014E98, symSize: 0x24 }
  - { offsetInCU: 0x1626A, offset: 0x55581, size: 0x8, addend: 0x0, symName: __ZNKSt3__122__compressed_pair_elemINS_9allocatorINS_10shared_ptrI6ActionEEEELi1ELb1EE5__getB8ue170006Ev, symObjAddr: 0x1ED8, symBinAddr: 0x100014EBC, symSize: 0x14 }
  - { offsetInCU: 0x16290, offset: 0x555A7, size: 0x8, addend: 0x0, symName: __ZNSt3__19allocatorINS_10shared_ptrI6ActionEEE8allocateB8ue170006Em, symObjAddr: 0x1FD8, symBinAddr: 0x100014ED0, symSize: 0x58 }
  - { offsetInCU: 0x162C4, offset: 0x555DB, size: 0x8, addend: 0x0, symName: __ZNSt3__117__compressed_pairIPNS_10shared_ptrI6ActionEENS_9allocatorIS3_EEE6secondB8ue170006Ev, symObjAddr: 0x2134, symBinAddr: 0x100014F28, symSize: 0x24 }
  - { offsetInCU: 0x162EA, offset: 0x55601, size: 0x8, addend: 0x0, symName: __ZNSt3__117__compressed_pairIPNS_10shared_ptrI6ActionEENS_9allocatorIS3_EEE5firstB8ue170006Ev, symObjAddr: 0x216C, symBinAddr: 0x100014F4C, symSize: 0x24 }
  - { offsetInCU: 0x16310, offset: 0x55627, size: 0x8, addend: 0x0, symName: __ZNSt3__122__compressed_pair_elemIPNS_10shared_ptrI6ActionEELi0ELb0EE5__getB8ue170006Ev, symObjAddr: 0x2190, symBinAddr: 0x100014F70, symSize: 0x14 }
  - { offsetInCU: 0x16336, offset: 0x5564D, size: 0x8, addend: 0x0, symName: __ZNKSt3__16vectorINS_10shared_ptrI6ActionEENS_9allocatorIS3_EEE31__annotate_contiguous_containerB8ue170006EPKvS8_S8_S8_, symObjAddr: 0x21A4, symBinAddr: 0x100014F84, symSize: 0x20 }
  - { offsetInCU: 0x1638C, offset: 0x556A3, size: 0x8, addend: 0x0, symName: __ZNKSt3__16vectorINS_10shared_ptrI6ActionEENS_9allocatorIS3_EEE4dataB8ue170006Ev, symObjAddr: 0x21C4, symBinAddr: 0x100014FA4, symSize: 0x28 }
  - { offsetInCU: 0x163B2, offset: 0x556C9, size: 0x8, addend: 0x0, symName: __ZNKSt3__16vectorINS_10shared_ptrI6ActionEENS_9allocatorIS3_EEE8capacityB8ue170006Ev, symObjAddr: 0x21EC, symBinAddr: 0x100014FCC, symSize: 0x40 }
  - { offsetInCU: 0x163D8, offset: 0x556EF, size: 0x8, addend: 0x0, symName: __ZNKSt3__16vectorINS_10shared_ptrI6ActionEENS_9allocatorIS3_EEE9__end_capB8ue170006Ev, symObjAddr: 0x2240, symBinAddr: 0x10001500C, symSize: 0x28 }
  - { offsetInCU: 0x163FE, offset: 0x55715, size: 0x8, addend: 0x0, symName: __ZNKSt3__117__compressed_pairIPNS_10shared_ptrI6ActionEENS_9allocatorIS3_EEE5firstB8ue170006Ev, symObjAddr: 0x2268, symBinAddr: 0x100015034, symSize: 0x24 }
  - { offsetInCU: 0x16424, offset: 0x5573B, size: 0x8, addend: 0x0, symName: __ZNKSt3__122__compressed_pair_elemIPNS_10shared_ptrI6ActionEELi0ELb0EE5__getB8ue170006Ev, symObjAddr: 0x228C, symBinAddr: 0x100015058, symSize: 0x14 }
  - { offsetInCU: 0x16463, offset: 0x5577A, size: 0x8, addend: 0x0, symName: __ZNSt3__16vectorINS_10shared_ptrI6ActionEENS_9allocatorIS3_EEE21_ConstructTransactionC1B8ue170006ERS6_m, symObjAddr: 0x22A0, symBinAddr: 0x10001506C, symSize: 0x3C }
  - { offsetInCU: 0x164AB, offset: 0x557C2, size: 0x8, addend: 0x0, symName: __ZNSt3__16vectorINS_10shared_ptrI6ActionEENS_9allocatorIS3_EEE21_ConstructTransactionD1B8ue170006Ev, symObjAddr: 0x235C, symBinAddr: 0x100015128, symSize: 0x2C }
  - { offsetInCU: 0x164D5, offset: 0x557EC, size: 0x8, addend: 0x0, symName: __ZNSt3__16vectorINS_10shared_ptrI6ActionEENS_9allocatorIS3_EEE21_ConstructTransactionC2B8ue170006ERS6_m, symObjAddr: 0x2388, symBinAddr: 0x100015154, symSize: 0x44 }
  - { offsetInCU: 0x16536, offset: 0x5584D, size: 0x8, addend: 0x0, symName: __ZNSt3__119__unwrap_range_implIPKNS_10shared_ptrI6ActionEES5_E8__unwrapB8ue170006ES5_S5_, symObjAddr: 0x255C, symBinAddr: 0x100015328, symSize: 0x58 }
  - { offsetInCU: 0x1656C, offset: 0x55883, size: 0x8, addend: 0x0, symName: __ZNSt3__14pairIPKNS_10shared_ptrI6ActionEES5_EC1B8ue170006IS5_S5_LPv0EEEOT_OT0_, symObjAddr: 0x25D8, symBinAddr: 0x1000153A4, symSize: 0x3C }
  - { offsetInCU: 0x165CB, offset: 0x558E2, size: 0x8, addend: 0x0, symName: __ZNSt3__118__unwrap_iter_implIPKNS_10shared_ptrI6ActionEELb1EE8__unwrapB8ue170006ES5_, symObjAddr: 0x2614, symBinAddr: 0x1000153E0, symSize: 0x24 }
  - { offsetInCU: 0x165EE, offset: 0x55905, size: 0x8, addend: 0x0, symName: __ZNSt3__14pairIPKNS_10shared_ptrI6ActionEES5_EC2B8ue170006IS5_S5_LPv0EEEOT_OT0_, symObjAddr: 0x264C, symBinAddr: 0x100015418, symSize: 0x34 }
  - { offsetInCU: 0x1664D, offset: 0x55964, size: 0x8, addend: 0x0, symName: __ZNSt3__129_AllocatorDestroyRangeReverseINS_9allocatorINS_10shared_ptrI6ActionEEEEPS4_EC1B8ue170006ERS5_RS6_S9_, symObjAddr: 0x26CC, symBinAddr: 0x100015498, symSize: 0x44 }
  - { offsetInCU: 0x166A4, offset: 0x559BB, size: 0x8, addend: 0x0, symName: __ZNSt3__116allocator_traitsINS_9allocatorINS_10shared_ptrI6ActionEEEEE9constructB8ue170006IS4_JRKS4_EvvEEvRS5_PT_DpOT0_, symObjAddr: 0x2710, symBinAddr: 0x1000154DC, symSize: 0x30 }
  - { offsetInCU: 0x166F9, offset: 0x55A10, size: 0x8, addend: 0x0, symName: __ZNSt3__128__exception_guard_exceptionsINS_29_AllocatorDestroyRangeReverseINS_9allocatorINS_10shared_ptrI6ActionEEEEPS5_EEE10__completeB8ue170006Ev, symObjAddr: 0x2740, symBinAddr: 0x10001550C, symSize: 0x1C }
  - { offsetInCU: 0x1671F, offset: 0x55A36, size: 0x8, addend: 0x0, symName: __ZNSt3__128__exception_guard_exceptionsINS_29_AllocatorDestroyRangeReverseINS_9allocatorINS_10shared_ptrI6ActionEEEEPS5_EEED1B8ue170006Ev, symObjAddr: 0x275C, symBinAddr: 0x100015528, symSize: 0x2C }
  - { offsetInCU: 0x16749, offset: 0x55A60, size: 0x8, addend: 0x0, symName: __ZNSt3__128__exception_guard_exceptionsINS_29_AllocatorDestroyRangeReverseINS_9allocatorINS_10shared_ptrI6ActionEEEEPS5_EEEC1B8ue170006ES8_, symObjAddr: 0x2788, symBinAddr: 0x100015554, symSize: 0x34 }
  - { offsetInCU: 0x16782, offset: 0x55A99, size: 0x8, addend: 0x0, symName: __ZNSt3__128__exception_guard_exceptionsINS_29_AllocatorDestroyRangeReverseINS_9allocatorINS_10shared_ptrI6ActionEEEEPS5_EEEC2B8ue170006ES8_, symObjAddr: 0x27BC, symBinAddr: 0x100015588, symSize: 0x30 }
  - { offsetInCU: 0x167BB, offset: 0x55AD2, size: 0x8, addend: 0x0, symName: __ZNSt3__129_AllocatorDestroyRangeReverseINS_9allocatorINS_10shared_ptrI6ActionEEEEPS4_EC2B8ue170006ERS5_RS6_S9_, symObjAddr: 0x27EC, symBinAddr: 0x1000155B8, symSize: 0x38 }
  - { offsetInCU: 0x16812, offset: 0x55B29, size: 0x8, addend: 0x0, symName: __ZNSt3__110shared_ptrI6ActionEC1B8ue170006ERKS2_, symObjAddr: 0x2860, symBinAddr: 0x10001562C, symSize: 0x34 }
  - { offsetInCU: 0x1684B, offset: 0x55B62, size: 0x8, addend: 0x0, symName: __ZNSt3__110shared_ptrI6ActionEC2B8ue170006ERKS2_, symObjAddr: 0x2894, symBinAddr: 0x100015660, symSize: 0x70 }
  - { offsetInCU: 0x16884, offset: 0x55B9B, size: 0x8, addend: 0x0, symName: __ZNSt3__119__shared_weak_count12__add_sharedB8ue170006Ev, symObjAddr: 0x2904, symBinAddr: 0x1000156D0, symSize: 0x24 }
  - { offsetInCU: 0x168AA, offset: 0x55BC1, size: 0x8, addend: 0x0, symName: __ZNSt3__114__shared_count12__add_sharedB8ue170006Ev, symObjAddr: 0x2928, symBinAddr: 0x1000156F4, symSize: 0x28 }
  - { offsetInCU: 0x168D0, offset: 0x55BE7, size: 0x8, addend: 0x0, symName: __ZNSt3__128__exception_guard_exceptionsINS_29_AllocatorDestroyRangeReverseINS_9allocatorINS_10shared_ptrI6ActionEEEEPS5_EEED2B8ue170006Ev, symObjAddr: 0x2980, symBinAddr: 0x10001574C, symSize: 0x50 }
  - { offsetInCU: 0x168FA, offset: 0x55C11, size: 0x8, addend: 0x0, symName: __ZNKSt3__129_AllocatorDestroyRangeReverseINS_9allocatorINS_10shared_ptrI6ActionEEEEPS4_EclB8ue170006Ev, symObjAddr: 0x29D0, symBinAddr: 0x10001579C, symSize: 0x68 }
  - { offsetInCU: 0x16920, offset: 0x55C37, size: 0x8, addend: 0x0, symName: __ZNSt3__116reverse_iteratorIPNS_10shared_ptrI6ActionEEEC1B8ue170006ES4_, symObjAddr: 0x2AA8, symBinAddr: 0x100015874, symSize: 0x34 }
  - { offsetInCU: 0x16958, offset: 0x55C6F, size: 0x8, addend: 0x0, symName: __ZNSt3__116reverse_iteratorIPNS_10shared_ptrI6ActionEEEppB8ue170006Ev, symObjAddr: 0x2B70, symBinAddr: 0x100015914, symSize: 0x20 }
  - { offsetInCU: 0x1697E, offset: 0x55C95, size: 0x8, addend: 0x0, symName: __ZNKSt3__116reverse_iteratorIPNS_10shared_ptrI6ActionEEE4baseB8ue170006Ev, symObjAddr: 0x2B90, symBinAddr: 0x100015934, symSize: 0x18 }
  - { offsetInCU: 0x169A9, offset: 0x55CC0, size: 0x8, addend: 0x0, symName: __ZNSt3__119__to_address_helperINS_16reverse_iteratorIPNS_10shared_ptrI6ActionEEEEvE6__callB8ue170006ERKS6_, symObjAddr: 0x2BF0, symBinAddr: 0x10001594C, symSize: 0x38 }
  - { offsetInCU: 0x169CC, offset: 0x55CE3, size: 0x8, addend: 0x0, symName: __ZNKSt3__116reverse_iteratorIPNS_10shared_ptrI6ActionEEEptB8ue170006Ev, symObjAddr: 0x2C28, symBinAddr: 0x100015984, symSize: 0x2C }
  - { offsetInCU: 0x169F2, offset: 0x55D09, size: 0x8, addend: 0x0, symName: __ZNSt3__116reverse_iteratorIPNS_10shared_ptrI6ActionEEEC2B8ue170006ES4_, symObjAddr: 0x2D04, symBinAddr: 0x100015A4C, symSize: 0x28 }
  - { offsetInCU: 0x16A2A, offset: 0x55D41, size: 0x8, addend: 0x0, symName: __ZNSt3__118__unwrap_iter_implIPNS_10shared_ptrI6ActionEELb1EE8__unwrapB8ue170006ES4_, symObjAddr: 0x2D2C, symBinAddr: 0x100015A74, symSize: 0x24 }
  - { offsetInCU: 0x16A4D, offset: 0x55D64, size: 0x8, addend: 0x0, symName: __ZNSt3__118__unwrap_iter_implIPNS_10shared_ptrI6ActionEELb1EE8__rewrapB8ue170006ES4_S4_, symObjAddr: 0x2D50, symBinAddr: 0x100015A98, symSize: 0x50 }
  - { offsetInCU: 0x16A7E, offset: 0x55D95, size: 0x8, addend: 0x0, symName: __ZNSt3__16vectorINS_10shared_ptrI6ActionEENS_9allocatorIS3_EEE21_ConstructTransactionD2B8ue170006Ev, symObjAddr: 0x2DA0, symBinAddr: 0x100015AE8, symSize: 0x20 }
  - { offsetInCU: 0x16AA8, offset: 0x55DBF, size: 0x8, addend: 0x0, symName: __ZNSt3__128__exception_guard_exceptionsINS_6vectorINS_10shared_ptrI6ActionEENS_9allocatorIS4_EEE16__destroy_vectorEED2B8ue170006Ev, symObjAddr: 0x2DC0, symBinAddr: 0x100015B08, symSize: 0x50 }
  - { offsetInCU: 0x16AD2, offset: 0x55DE9, size: 0x8, addend: 0x0, symName: __ZNSt3__16vectorINS_10shared_ptrI6ActionEENS_9allocatorIS3_EEE16__destroy_vectorclB8ue170006Ev, symObjAddr: 0x2E10, symBinAddr: 0x100015B58, symSize: 0x90 }
  - { offsetInCU: 0x16AF8, offset: 0x55E0F, size: 0x8, addend: 0x0, symName: __ZNSt3__16vectorINS_10shared_ptrI6ActionEENS_9allocatorIS3_EEE7__clearB8ue170006Ev, symObjAddr: 0x2EA0, symBinAddr: 0x100015BE8, symSize: 0x28 }
  - { offsetInCU: 0x16B1E, offset: 0x55E35, size: 0x8, addend: 0x0, symName: __ZNKSt3__16vectorINS_10shared_ptrI6ActionEENS_9allocatorIS3_EEE17__annotate_deleteB8ue170006Ev, symObjAddr: 0x2EC8, symBinAddr: 0x100015C10, symSize: 0xB8 }
  - { offsetInCU: 0x16B44, offset: 0x55E5B, size: 0x8, addend: 0x0, symName: __ZNSt3__16vectorINS_10shared_ptrI6ActionEENS_9allocatorIS3_EEE22__base_destruct_at_endB8ue170006EPS3_, symObjAddr: 0x2FB4, symBinAddr: 0x100015CC8, symSize: 0x8C }
  - { offsetInCU: 0x16B88, offset: 0x55E9F, size: 0x8, addend: 0x0, symName: __ZNKSt3__16vectorINS_10shared_ptrI6ActionEENS_9allocatorIS3_EEE4sizeB8ue170006Ev, symObjAddr: 0x3040, symBinAddr: 0x100015D54, symSize: 0x28 }
  - { offsetInCU: 0x16BAE, offset: 0x55EC5, size: 0x8, addend: 0x0, symName: __ZNRSt3__123__optional_storage_baseI8PositionLb0EE5__getB8ue170006Ev, symObjAddr: 0x3358, symBinAddr: 0x100015D7C, symSize: 0x14 }
  - { offsetInCU: 0x16BD4, offset: 0x55EEB, size: 0x8, addend: 0x0, symName: __ZNRSt3__123__optional_storage_baseI10SpecialKeyLb0EE5__getB8ue170006Ev, symObjAddr: 0x336C, symBinAddr: 0x100015D90, symSize: 0x14 }
  - { offsetInCU: 0x16BFA, offset: 0x55F11, size: 0x8, addend: 0x0, symName: __ZNRSt3__123__optional_storage_baseIcLb0EE5__getB8ue170006Ev, symObjAddr: 0x3380, symBinAddr: 0x100015DA4, symSize: 0x14 }
  - { offsetInCU: 0x16C20, offset: 0x55F37, size: 0x8, addend: 0x0, symName: __ZN8ToolModeD2Ev, symObjAddr: 0x3394, symBinAddr: 0x100015DB8, symSize: 0x48 }
  - { offsetInCU: 0x16C4A, offset: 0x55F61, size: 0x8, addend: 0x0, symName: __ZN13CommandParserD1Ev, symObjAddr: 0x33DC, symBinAddr: 0x100015E00, symSize: 0x2C }
  - { offsetInCU: 0x16C74, offset: 0x55F8B, size: 0x8, addend: 0x0, symName: __ZN10EditorModeD2Ev, symObjAddr: 0x3408, symBinAddr: 0x100015E2C, symSize: 0x14 }
  - { offsetInCU: 0x16C9E, offset: 0x55FB5, size: 0x8, addend: 0x0, symName: __ZN13CommandParserD2Ev, symObjAddr: 0x341C, symBinAddr: 0x100015E40, symSize: 0x3C }
  - { offsetInCU: 0x16CC8, offset: 0x55FDF, size: 0x8, addend: 0x0, symName: __ZNSt3__19allocatorI23FixedPositionMoveActionEC1B8ue170006Ev, symObjAddr: 0x3634, symBinAddr: 0x100015F1C, symSize: 0x2C }
  - { offsetInCU: 0x16D1F, offset: 0x56036, size: 0x8, addend: 0x0, symName: __ZNSt3__118__allocation_guardINS_9allocatorINS_20__shared_ptr_emplaceI23FixedPositionMoveActionNS1_IS3_EEEEEEEC1B8ue170006IS4_EET_m, symObjAddr: 0x3660, symBinAddr: 0x100015F48, symSize: 0x34 }
  - { offsetInCU: 0x16D6E, offset: 0x56085, size: 0x8, addend: 0x0, symName: __ZNKSt3__118__allocation_guardINS_9allocatorINS_20__shared_ptr_emplaceI23FixedPositionMoveActionNS1_IS3_EEEEEEE5__getB8ue170006Ev, symObjAddr: 0x3694, symBinAddr: 0x100015F7C, symSize: 0x18 }
  - { offsetInCU: 0x16D9E, offset: 0x560B5, size: 0x8, addend: 0x0, symName: __ZNSt3__120__shared_ptr_emplaceI23FixedPositionMoveActionNS_9allocatorIS1_EEEC1B8ue170006IJR10ScreenSizeR8PositionEEES3_DpOT_, symObjAddr: 0x36AC, symBinAddr: 0x100015F94, symSize: 0x3C }
  - { offsetInCU: 0x16E05, offset: 0x5611C, size: 0x8, addend: 0x0, symName: __ZNSt3__118__allocation_guardINS_9allocatorINS_20__shared_ptr_emplaceI23FixedPositionMoveActionNS1_IS3_EEEEEEE13__release_ptrB8ue170006Ev, symObjAddr: 0x36E8, symBinAddr: 0x100015FD0, symSize: 0x24 }
  - { offsetInCU: 0x16E3A, offset: 0x56151, size: 0x8, addend: 0x0, symName: __ZNSt3__110shared_ptrI23FixedPositionMoveActionE27__create_with_control_blockB8ue170006IS1_NS_20__shared_ptr_emplaceIS1_NS_9allocatorIS1_EEEEEES2_PT_PT0_, symObjAddr: 0x370C, symBinAddr: 0x100015FF4, symSize: 0xA4 }
  - { offsetInCU: 0x16E8F, offset: 0x561A6, size: 0x8, addend: 0x0, symName: __ZNSt3__120__shared_ptr_emplaceI23FixedPositionMoveActionNS_9allocatorIS1_EEE10__get_elemB8ue170006Ev, symObjAddr: 0x37B0, symBinAddr: 0x100016098, symSize: 0x28 }
  - { offsetInCU: 0x16EB5, offset: 0x561CC, size: 0x8, addend: 0x0, symName: __ZNSt3__118__allocation_guardINS_9allocatorINS_20__shared_ptr_emplaceI23FixedPositionMoveActionNS1_IS3_EEEEEEED1B8ue170006Ev, symObjAddr: 0x37D8, symBinAddr: 0x1000160C0, symSize: 0x2C }
  - { offsetInCU: 0x16EDF, offset: 0x561F6, size: 0x8, addend: 0x0, symName: __ZNSt3__118__allocation_guardINS_9allocatorINS_20__shared_ptr_emplaceI23FixedPositionMoveActionNS1_IS3_EEEEEEEC2B8ue170006IS4_EET_m, symObjAddr: 0x3804, symBinAddr: 0x1000160EC, symSize: 0x50 }
  - { offsetInCU: 0x16F2E, offset: 0x56245, size: 0x8, addend: 0x0, symName: __ZNSt3__19allocatorINS_20__shared_ptr_emplaceI23FixedPositionMoveActionNS0_IS2_EEEEEC1B8ue170006IS2_EERKNS0_IT_EE, symObjAddr: 0x3854, symBinAddr: 0x10001613C, symSize: 0x34 }
  - { offsetInCU: 0x16F6C, offset: 0x56283, size: 0x8, addend: 0x0, symName: __ZNSt3__116allocator_traitsINS_9allocatorINS_20__shared_ptr_emplaceI23FixedPositionMoveActionNS1_IS3_EEEEEEE8allocateB8ue170006ERS6_m, symObjAddr: 0x3888, symBinAddr: 0x100016170, symSize: 0x2C }
  - { offsetInCU: 0x16F9F, offset: 0x562B6, size: 0x8, addend: 0x0, symName: __ZNSt3__19allocatorINS_20__shared_ptr_emplaceI23FixedPositionMoveActionNS0_IS2_EEEEEC2B8ue170006IS2_EERKNS0_IT_EE, symObjAddr: 0x38B4, symBinAddr: 0x10001619C, symSize: 0x30 }
  - { offsetInCU: 0x16FDD, offset: 0x562F4, size: 0x8, addend: 0x0, symName: __ZNSt3__116__non_trivial_ifILb1ENS_9allocatorINS_20__shared_ptr_emplaceI23FixedPositionMoveActionNS1_IS3_EEEEEEEC2B8ue170006Ev, symObjAddr: 0x38E4, symBinAddr: 0x1000161CC, symSize: 0x14 }
  - { offsetInCU: 0x17007, offset: 0x5631E, size: 0x8, addend: 0x0, symName: __ZNSt3__19allocatorINS_20__shared_ptr_emplaceI23FixedPositionMoveActionNS0_IS2_EEEEE8allocateB8ue170006Em, symObjAddr: 0x38F8, symBinAddr: 0x1000161E0, symSize: 0x5C }
  - { offsetInCU: 0x17045, offset: 0x5635C, size: 0x8, addend: 0x0, symName: __ZNSt3__116allocator_traitsINS_9allocatorINS_20__shared_ptr_emplaceI23FixedPositionMoveActionNS1_IS3_EEEEEEE8max_sizeB8ue170006IS6_vvEEmRKS6_, symObjAddr: 0x3954, symBinAddr: 0x10001623C, symSize: 0x28 }
  - { offsetInCU: 0x17071, offset: 0x56388, size: 0x8, addend: 0x0, symName: __ZNSt3__120__shared_ptr_emplaceI23FixedPositionMoveActionNS_9allocatorIS1_EEEC2B8ue170006IJR10ScreenSizeR8PositionEEES3_DpOT_, symObjAddr: 0x397C, symBinAddr: 0x100016264, symSize: 0xD0 }
  - { offsetInCU: 0x170F9, offset: 0x56410, size: 0x8, addend: 0x0, symName: __ZNSt3__119__shared_weak_countC2B8ue170006El, symObjAddr: 0x3A4C, symBinAddr: 0x100016334, symSize: 0x54 }
  - { offsetInCU: 0x17131, offset: 0x56448, size: 0x8, addend: 0x0, symName: __ZNSt3__120__shared_ptr_emplaceI23FixedPositionMoveActionNS_9allocatorIS1_EEE8_StorageC1B8ue170006EOS3_, symObjAddr: 0x3AA0, symBinAddr: 0x100016388, symSize: 0x34 }
  - { offsetInCU: 0x1716A, offset: 0x56481, size: 0x8, addend: 0x0, symName: __ZNSt3__120__shared_ptr_emplaceI23FixedPositionMoveActionNS_9allocatorIS1_EEE11__get_allocB8ue170006Ev, symObjAddr: 0x3AD4, symBinAddr: 0x1000163BC, symSize: 0x28 }
  - { offsetInCU: 0x17195, offset: 0x564AC, size: 0x8, addend: 0x0, symName: __ZNSt3__116allocator_traitsINS_9allocatorI23FixedPositionMoveActionEEE9constructB8ue170006IS2_JR10ScreenSizeR8PositionEvvEEvRS3_PT_DpOT0_, symObjAddr: 0x3AFC, symBinAddr: 0x1000163E4, symSize: 0x38 }
  - { offsetInCU: 0x171FE, offset: 0x56515, size: 0x8, addend: 0x0, symName: __ZNSt3__120__shared_ptr_emplaceI23FixedPositionMoveActionNS_9allocatorIS1_EEE8_StorageD1B8ue170006Ev, symObjAddr: 0x3B34, symBinAddr: 0x10001641C, symSize: 0x2C }
  - { offsetInCU: 0x17228, offset: 0x5653F, size: 0x8, addend: 0x0, symName: __ZNSt3__120__shared_ptr_emplaceI23FixedPositionMoveActionNS_9allocatorIS1_EEED1Ev, symObjAddr: 0x3B60, symBinAddr: 0x100016448, symSize: 0x2C }
  - { offsetInCU: 0x17255, offset: 0x5656C, size: 0x8, addend: 0x0, symName: __ZNSt3__120__shared_ptr_emplaceI23FixedPositionMoveActionNS_9allocatorIS1_EEED0Ev, symObjAddr: 0x3B8C, symBinAddr: 0x100016474, symSize: 0x30 }
  - { offsetInCU: 0x17282, offset: 0x56599, size: 0x8, addend: 0x0, symName: __ZNSt3__120__shared_ptr_emplaceI23FixedPositionMoveActionNS_9allocatorIS1_EEE16__on_zero_sharedEv, symObjAddr: 0x3BBC, symBinAddr: 0x1000164A4, symSize: 0x44 }
  - { offsetInCU: 0x172C9, offset: 0x565E0, size: 0x8, addend: 0x0, symName: __ZNSt3__120__shared_ptr_emplaceI23FixedPositionMoveActionNS_9allocatorIS1_EEE21__on_zero_shared_weakEv, symObjAddr: 0x3C00, symBinAddr: 0x1000164E8, symSize: 0x5C }
  - { offsetInCU: 0x1730A, offset: 0x56621, size: 0x8, addend: 0x0, symName: __ZNSt3__114__shared_countC2B8ue170006El, symObjAddr: 0x3C5C, symBinAddr: 0x100016544, symSize: 0x30 }
  - { offsetInCU: 0x17342, offset: 0x56659, size: 0x8, addend: 0x0, symName: __ZNSt3__120__shared_ptr_emplaceI23FixedPositionMoveActionNS_9allocatorIS1_EEE8_StorageC2B8ue170006EOS3_, symObjAddr: 0x3C8C, symBinAddr: 0x100016574, symSize: 0x30 }
  - { offsetInCU: 0x1737B, offset: 0x56692, size: 0x8, addend: 0x0, symName: __ZNSt3__120__shared_ptr_emplaceI23FixedPositionMoveActionNS_9allocatorIS1_EEE8_Storage11__get_allocB8ue170006Ev, symObjAddr: 0x3CBC, symBinAddr: 0x1000165A4, symSize: 0x3C }
  - { offsetInCU: 0x173CE, offset: 0x566E5, size: 0x8, addend: 0x0, symName: __ZNSt3__117__compressed_pairINS_9allocatorI23FixedPositionMoveActionEES2_E16__get_first_baseB8ue170006EPS4_, symObjAddr: 0x3CF8, symBinAddr: 0x1000165E0, symSize: 0x14 }
  - { offsetInCU: 0x173F1, offset: 0x56708, size: 0x8, addend: 0x0, symName: __ZNSt3__120__shared_ptr_emplaceI23FixedPositionMoveActionNS_9allocatorIS1_EEE8_StorageD2B8ue170006Ev, symObjAddr: 0x3D68, symBinAddr: 0x100016650, symSize: 0x2C }
  - { offsetInCU: 0x1741B, offset: 0x56732, size: 0x8, addend: 0x0, symName: __ZNSt3__120__shared_ptr_emplaceI23FixedPositionMoveActionNS_9allocatorIS1_EEED2Ev, symObjAddr: 0x3D94, symBinAddr: 0x10001667C, symSize: 0x48 }
  - { offsetInCU: 0x17448, offset: 0x5675F, size: 0x8, addend: 0x0, symName: __ZNSt3__116allocator_traitsINS_9allocatorI23FixedPositionMoveActionEEE7destroyB8ue170006IS2_vvEEvRS3_PT_, symObjAddr: 0x3DDC, symBinAddr: 0x1000166C4, symSize: 0x28 }
  - { offsetInCU: 0x17483, offset: 0x5679A, size: 0x8, addend: 0x0, symName: __ZNSt3__116allocator_traitsINS_9allocatorINS_20__shared_ptr_emplaceI23FixedPositionMoveActionNS1_IS3_EEEEEEE10deallocateB8ue170006ERS6_PS5_m, symObjAddr: 0x3E54, symBinAddr: 0x10001673C, symSize: 0x34 }
  - { offsetInCU: 0x174CA, offset: 0x567E1, size: 0x8, addend: 0x0, symName: __ZNSt3__114pointer_traitsIPNS_20__shared_ptr_emplaceI23FixedPositionMoveActionNS_9allocatorIS2_EEEEE10pointer_toB8ue170006ERS5_, symObjAddr: 0x3E88, symBinAddr: 0x100016770, symSize: 0x14 }
  - { offsetInCU: 0x174ED, offset: 0x56804, size: 0x8, addend: 0x0, symName: __ZNSt3__19allocatorINS_20__shared_ptr_emplaceI23FixedPositionMoveActionNS0_IS2_EEEEE10deallocateB8ue170006EPS4_m, symObjAddr: 0x3E9C, symBinAddr: 0x100016784, symSize: 0x44 }
  - { offsetInCU: 0x1752F, offset: 0x56846, size: 0x8, addend: 0x0, symName: __ZNSt3__110shared_ptrI23FixedPositionMoveActionEC1B8ue170006Ev, symObjAddr: 0x3EE0, symBinAddr: 0x1000167C8, symSize: 0x2C }
  - { offsetInCU: 0x17559, offset: 0x56870, size: 0x8, addend: 0x0, symName: __ZNSt3__110shared_ptrI23FixedPositionMoveActionE18__enable_weak_thisB8ue170006Ez, symObjAddr: 0x3F0C, symBinAddr: 0x1000167F4, symSize: 0x10 }
  - { offsetInCU: 0x17580, offset: 0x56897, size: 0x8, addend: 0x0, symName: __ZNSt3__110shared_ptrI23FixedPositionMoveActionEC2B8ue170006Ev, symObjAddr: 0x3F1C, symBinAddr: 0x100016804, symSize: 0x1C }
  - { offsetInCU: 0x175AA, offset: 0x568C1, size: 0x8, addend: 0x0, symName: __ZNSt3__120__shared_ptr_emplaceI23FixedPositionMoveActionNS_9allocatorIS1_EEE8_Storage10__get_elemB8ue170006Ev, symObjAddr: 0x3F38, symBinAddr: 0x100016820, symSize: 0x3C }
  - { offsetInCU: 0x175FD, offset: 0x56914, size: 0x8, addend: 0x0, symName: __ZNSt3__117__compressed_pairINS_9allocatorI23FixedPositionMoveActionEES2_E17__get_second_baseB8ue170006EPS4_, symObjAddr: 0x3F74, symBinAddr: 0x10001685C, symSize: 0x14 }
  - { offsetInCU: 0x17620, offset: 0x56937, size: 0x8, addend: 0x0, symName: __ZNSt3__118__allocation_guardINS_9allocatorINS_20__shared_ptr_emplaceI23FixedPositionMoveActionNS1_IS3_EEEEEEED2B8ue170006Ev, symObjAddr: 0x3F88, symBinAddr: 0x100016870, symSize: 0x2C }
  - { offsetInCU: 0x1764A, offset: 0x56961, size: 0x8, addend: 0x0, symName: __ZNSt3__118__allocation_guardINS_9allocatorINS_20__shared_ptr_emplaceI23FixedPositionMoveActionNS1_IS3_EEEEEEE9__destroyB8ue170006Ev, symObjAddr: 0x3FB4, symBinAddr: 0x10001689C, symSize: 0x4C }
  - { offsetInCU: 0x17670, offset: 0x56987, size: 0x8, addend: 0x0, symName: __ZNSt3__19allocatorI23FixedPositionMoveActionEC2B8ue170006Ev, symObjAddr: 0x4000, symBinAddr: 0x1000168E8, symSize: 0x2C }
  - { offsetInCU: 0x1769A, offset: 0x569B1, size: 0x8, addend: 0x0, symName: __ZNSt3__116__non_trivial_ifILb1ENS_9allocatorI23FixedPositionMoveActionEEEC2B8ue170006Ev, symObjAddr: 0x402C, symBinAddr: 0x100016914, symSize: 0x14 }
  - { offsetInCU: 0x176C4, offset: 0x569DB, size: 0x8, addend: 0x0, symName: __ZNSt3__110shared_ptrI23FixedPositionMoveActionED2B8ue170006Ev, symObjAddr: 0x4040, symBinAddr: 0x100016928, symSize: 0x54 }
  - { offsetInCU: 0x176EE, offset: 0x56A05, size: 0x8, addend: 0x0, symName: __ZNSt3__110shared_ptrI6ActionEC2B8ue170006I23FixedPositionMoveActionvEEONS0_IT_EE, symObjAddr: 0x4094, symBinAddr: 0x10001697C, symSize: 0x40 }
  - { offsetInCU: 0x17731, offset: 0x56A48, size: 0x8, addend: 0x0, symName: __ZNSt3__19allocatorI18CharwiseMoveActionEC1B8ue170006Ev, symObjAddr: 0x4174, symBinAddr: 0x100016A5C, symSize: 0x2C }
  - { offsetInCU: 0x17788, offset: 0x56A9F, size: 0x8, addend: 0x0, symName: __ZNSt3__118__allocation_guardINS_9allocatorINS_20__shared_ptr_emplaceI18CharwiseMoveActionNS1_IS3_EEEEEEEC1B8ue170006IS4_EET_m, symObjAddr: 0x41A0, symBinAddr: 0x100016A88, symSize: 0x34 }
  - { offsetInCU: 0x177D7, offset: 0x56AEE, size: 0x8, addend: 0x0, symName: __ZNKSt3__118__allocation_guardINS_9allocatorINS_20__shared_ptr_emplaceI18CharwiseMoveActionNS1_IS3_EEEEEEE5__getB8ue170006Ev, symObjAddr: 0x41D4, symBinAddr: 0x100016ABC, symSize: 0x18 }
  - { offsetInCU: 0x17802, offset: 0x56B19, size: 0x8, addend: 0x0, symName: __ZNSt3__120__shared_ptr_emplaceI18CharwiseMoveActionNS_9allocatorIS1_EEEC1B8ue170006IJR10ScreenSize9DirectionEEES3_DpOT_, symObjAddr: 0x41EC, symBinAddr: 0x100016AD4, symSize: 0x3C }
  - { offsetInCU: 0x17869, offset: 0x56B80, size: 0x8, addend: 0x0, symName: __ZNSt3__118__allocation_guardINS_9allocatorINS_20__shared_ptr_emplaceI18CharwiseMoveActionNS1_IS3_EEEEEEE13__release_ptrB8ue170006Ev, symObjAddr: 0x4228, symBinAddr: 0x100016B10, symSize: 0x24 }
  - { offsetInCU: 0x1789E, offset: 0x56BB5, size: 0x8, addend: 0x0, symName: __ZNSt3__110shared_ptrI18CharwiseMoveActionE27__create_with_control_blockB8ue170006IS1_NS_20__shared_ptr_emplaceIS1_NS_9allocatorIS1_EEEEEES2_PT_PT0_, symObjAddr: 0x424C, symBinAddr: 0x100016B34, symSize: 0xA4 }
  - { offsetInCU: 0x178F3, offset: 0x56C0A, size: 0x8, addend: 0x0, symName: __ZNSt3__120__shared_ptr_emplaceI18CharwiseMoveActionNS_9allocatorIS1_EEE10__get_elemB8ue170006Ev, symObjAddr: 0x42F0, symBinAddr: 0x100016BD8, symSize: 0x28 }
  - { offsetInCU: 0x17919, offset: 0x56C30, size: 0x8, addend: 0x0, symName: __ZNSt3__118__allocation_guardINS_9allocatorINS_20__shared_ptr_emplaceI18CharwiseMoveActionNS1_IS3_EEEEEEED1B8ue170006Ev, symObjAddr: 0x4318, symBinAddr: 0x100016C00, symSize: 0x2C }
  - { offsetInCU: 0x17943, offset: 0x56C5A, size: 0x8, addend: 0x0, symName: __ZNSt3__118__allocation_guardINS_9allocatorINS_20__shared_ptr_emplaceI18CharwiseMoveActionNS1_IS3_EEEEEEEC2B8ue170006IS4_EET_m, symObjAddr: 0x4344, symBinAddr: 0x100016C2C, symSize: 0x50 }
  - { offsetInCU: 0x17992, offset: 0x56CA9, size: 0x8, addend: 0x0, symName: __ZNSt3__19allocatorINS_20__shared_ptr_emplaceI18CharwiseMoveActionNS0_IS2_EEEEEC1B8ue170006IS2_EERKNS0_IT_EE, symObjAddr: 0x4394, symBinAddr: 0x100016C7C, symSize: 0x34 }
  - { offsetInCU: 0x179D0, offset: 0x56CE7, size: 0x8, addend: 0x0, symName: __ZNSt3__116allocator_traitsINS_9allocatorINS_20__shared_ptr_emplaceI18CharwiseMoveActionNS1_IS3_EEEEEEE8allocateB8ue170006ERS6_m, symObjAddr: 0x43C8, symBinAddr: 0x100016CB0, symSize: 0x2C }
  - { offsetInCU: 0x17A03, offset: 0x56D1A, size: 0x8, addend: 0x0, symName: __ZNSt3__19allocatorINS_20__shared_ptr_emplaceI18CharwiseMoveActionNS0_IS2_EEEEEC2B8ue170006IS2_EERKNS0_IT_EE, symObjAddr: 0x43F4, symBinAddr: 0x100016CDC, symSize: 0x30 }
  - { offsetInCU: 0x17A41, offset: 0x56D58, size: 0x8, addend: 0x0, symName: __ZNSt3__116__non_trivial_ifILb1ENS_9allocatorINS_20__shared_ptr_emplaceI18CharwiseMoveActionNS1_IS3_EEEEEEEC2B8ue170006Ev, symObjAddr: 0x4424, symBinAddr: 0x100016D0C, symSize: 0x14 }
  - { offsetInCU: 0x17A6B, offset: 0x56D82, size: 0x8, addend: 0x0, symName: __ZNSt3__19allocatorINS_20__shared_ptr_emplaceI18CharwiseMoveActionNS0_IS2_EEEEE8allocateB8ue170006Em, symObjAddr: 0x4438, symBinAddr: 0x100016D20, symSize: 0x5C }
  - { offsetInCU: 0x17AA9, offset: 0x56DC0, size: 0x8, addend: 0x0, symName: __ZNSt3__116allocator_traitsINS_9allocatorINS_20__shared_ptr_emplaceI18CharwiseMoveActionNS1_IS3_EEEEEEE8max_sizeB8ue170006IS6_vvEEmRKS6_, symObjAddr: 0x4494, symBinAddr: 0x100016D7C, symSize: 0x28 }
  - { offsetInCU: 0x17AD5, offset: 0x56DEC, size: 0x8, addend: 0x0, symName: __ZNSt3__120__shared_ptr_emplaceI18CharwiseMoveActionNS_9allocatorIS1_EEEC2B8ue170006IJR10ScreenSize9DirectionEEES3_DpOT_, symObjAddr: 0x44BC, symBinAddr: 0x100016DA4, symSize: 0xD0 }
  - { offsetInCU: 0x17B5D, offset: 0x56E74, size: 0x8, addend: 0x0, symName: __ZNSt3__120__shared_ptr_emplaceI18CharwiseMoveActionNS_9allocatorIS1_EEE8_StorageC1B8ue170006EOS3_, symObjAddr: 0x458C, symBinAddr: 0x100016E74, symSize: 0x34 }
  - { offsetInCU: 0x17B96, offset: 0x56EAD, size: 0x8, addend: 0x0, symName: __ZNSt3__120__shared_ptr_emplaceI18CharwiseMoveActionNS_9allocatorIS1_EEE11__get_allocB8ue170006Ev, symObjAddr: 0x45C0, symBinAddr: 0x100016EA8, symSize: 0x28 }
  - { offsetInCU: 0x17BC1, offset: 0x56ED8, size: 0x8, addend: 0x0, symName: __ZNSt3__116allocator_traitsINS_9allocatorI18CharwiseMoveActionEEE9constructB8ue170006IS2_JR10ScreenSize9DirectionEvvEEvRS3_PT_DpOT0_, symObjAddr: 0x45E8, symBinAddr: 0x100016ED0, symSize: 0x38 }
  - { offsetInCU: 0x17C2A, offset: 0x56F41, size: 0x8, addend: 0x0, symName: __ZNSt3__120__shared_ptr_emplaceI18CharwiseMoveActionNS_9allocatorIS1_EEE8_StorageD1B8ue170006Ev, symObjAddr: 0x4620, symBinAddr: 0x100016F08, symSize: 0x2C }
  - { offsetInCU: 0x17C54, offset: 0x56F6B, size: 0x8, addend: 0x0, symName: __ZNSt3__120__shared_ptr_emplaceI18CharwiseMoveActionNS_9allocatorIS1_EEED1Ev, symObjAddr: 0x464C, symBinAddr: 0x100016F34, symSize: 0x2C }
  - { offsetInCU: 0x17C81, offset: 0x56F98, size: 0x8, addend: 0x0, symName: __ZNSt3__120__shared_ptr_emplaceI18CharwiseMoveActionNS_9allocatorIS1_EEED0Ev, symObjAddr: 0x4678, symBinAddr: 0x100016F60, symSize: 0x30 }
  - { offsetInCU: 0x17CAE, offset: 0x56FC5, size: 0x8, addend: 0x0, symName: __ZNSt3__120__shared_ptr_emplaceI18CharwiseMoveActionNS_9allocatorIS1_EEE16__on_zero_sharedEv, symObjAddr: 0x46A8, symBinAddr: 0x100016F90, symSize: 0x44 }
  - { offsetInCU: 0x17CF5, offset: 0x5700C, size: 0x8, addend: 0x0, symName: __ZNSt3__120__shared_ptr_emplaceI18CharwiseMoveActionNS_9allocatorIS1_EEE21__on_zero_shared_weakEv, symObjAddr: 0x46EC, symBinAddr: 0x100016FD4, symSize: 0x5C }
  - { offsetInCU: 0x17D36, offset: 0x5704D, size: 0x8, addend: 0x0, symName: __ZNSt3__120__shared_ptr_emplaceI18CharwiseMoveActionNS_9allocatorIS1_EEE8_StorageC2B8ue170006EOS3_, symObjAddr: 0x4748, symBinAddr: 0x100017030, symSize: 0x30 }
  - { offsetInCU: 0x17D6F, offset: 0x57086, size: 0x8, addend: 0x0, symName: __ZNSt3__120__shared_ptr_emplaceI18CharwiseMoveActionNS_9allocatorIS1_EEE8_Storage11__get_allocB8ue170006Ev, symObjAddr: 0x4778, symBinAddr: 0x100017060, symSize: 0x3C }
  - { offsetInCU: 0x17DC2, offset: 0x570D9, size: 0x8, addend: 0x0, symName: __ZNSt3__117__compressed_pairINS_9allocatorI18CharwiseMoveActionEES2_E16__get_first_baseB8ue170006EPS4_, symObjAddr: 0x47B4, symBinAddr: 0x10001709C, symSize: 0x14 }
  - { offsetInCU: 0x17DE5, offset: 0x570FC, size: 0x8, addend: 0x0, symName: __ZNSt3__120__shared_ptr_emplaceI18CharwiseMoveActionNS_9allocatorIS1_EEE8_StorageD2B8ue170006Ev, symObjAddr: 0x481C, symBinAddr: 0x100017104, symSize: 0x2C }
  - { offsetInCU: 0x17E0F, offset: 0x57126, size: 0x8, addend: 0x0, symName: __ZNSt3__120__shared_ptr_emplaceI18CharwiseMoveActionNS_9allocatorIS1_EEED2Ev, symObjAddr: 0x4848, symBinAddr: 0x100017130, symSize: 0x48 }
  - { offsetInCU: 0x17E3C, offset: 0x57153, size: 0x8, addend: 0x0, symName: __ZNSt3__116allocator_traitsINS_9allocatorI18CharwiseMoveActionEEE7destroyB8ue170006IS2_vvEEvRS3_PT_, symObjAddr: 0x4890, symBinAddr: 0x100017178, symSize: 0x28 }
  - { offsetInCU: 0x17E77, offset: 0x5718E, size: 0x8, addend: 0x0, symName: __ZNSt3__116allocator_traitsINS_9allocatorINS_20__shared_ptr_emplaceI18CharwiseMoveActionNS1_IS3_EEEEEEE10deallocateB8ue170006ERS6_PS5_m, symObjAddr: 0x4908, symBinAddr: 0x1000171F0, symSize: 0x34 }
  - { offsetInCU: 0x17EBE, offset: 0x571D5, size: 0x8, addend: 0x0, symName: __ZNSt3__114pointer_traitsIPNS_20__shared_ptr_emplaceI18CharwiseMoveActionNS_9allocatorIS2_EEEEE10pointer_toB8ue170006ERS5_, symObjAddr: 0x493C, symBinAddr: 0x100017224, symSize: 0x14 }
  - { offsetInCU: 0x17EE1, offset: 0x571F8, size: 0x8, addend: 0x0, symName: __ZNSt3__19allocatorINS_20__shared_ptr_emplaceI18CharwiseMoveActionNS0_IS2_EEEEE10deallocateB8ue170006EPS4_m, symObjAddr: 0x4950, symBinAddr: 0x100017238, symSize: 0x44 }
  - { offsetInCU: 0x17F23, offset: 0x5723A, size: 0x8, addend: 0x0, symName: __ZNSt3__110shared_ptrI18CharwiseMoveActionEC1B8ue170006Ev, symObjAddr: 0x4994, symBinAddr: 0x10001727C, symSize: 0x2C }
  - { offsetInCU: 0x17F4D, offset: 0x57264, size: 0x8, addend: 0x0, symName: __ZNSt3__110shared_ptrI18CharwiseMoveActionE18__enable_weak_thisB8ue170006Ez, symObjAddr: 0x49C0, symBinAddr: 0x1000172A8, symSize: 0x10 }
  - { offsetInCU: 0x17F74, offset: 0x5728B, size: 0x8, addend: 0x0, symName: __ZNSt3__110shared_ptrI18CharwiseMoveActionEC2B8ue170006Ev, symObjAddr: 0x49D0, symBinAddr: 0x1000172B8, symSize: 0x1C }
  - { offsetInCU: 0x17F9E, offset: 0x572B5, size: 0x8, addend: 0x0, symName: __ZNSt3__120__shared_ptr_emplaceI18CharwiseMoveActionNS_9allocatorIS1_EEE8_Storage10__get_elemB8ue170006Ev, symObjAddr: 0x49EC, symBinAddr: 0x1000172D4, symSize: 0x3C }
  - { offsetInCU: 0x17FF1, offset: 0x57308, size: 0x8, addend: 0x0, symName: __ZNSt3__117__compressed_pairINS_9allocatorI18CharwiseMoveActionEES2_E17__get_second_baseB8ue170006EPS4_, symObjAddr: 0x4A28, symBinAddr: 0x100017310, symSize: 0x14 }
  - { offsetInCU: 0x18014, offset: 0x5732B, size: 0x8, addend: 0x0, symName: __ZNSt3__118__allocation_guardINS_9allocatorINS_20__shared_ptr_emplaceI18CharwiseMoveActionNS1_IS3_EEEEEEED2B8ue170006Ev, symObjAddr: 0x4A3C, symBinAddr: 0x100017324, symSize: 0x2C }
  - { offsetInCU: 0x1803E, offset: 0x57355, size: 0x8, addend: 0x0, symName: __ZNSt3__118__allocation_guardINS_9allocatorINS_20__shared_ptr_emplaceI18CharwiseMoveActionNS1_IS3_EEEEEEE9__destroyB8ue170006Ev, symObjAddr: 0x4A68, symBinAddr: 0x100017350, symSize: 0x4C }
  - { offsetInCU: 0x18064, offset: 0x5737B, size: 0x8, addend: 0x0, symName: __ZNSt3__19allocatorI18CharwiseMoveActionEC2B8ue170006Ev, symObjAddr: 0x4AB4, symBinAddr: 0x10001739C, symSize: 0x2C }
  - { offsetInCU: 0x1808E, offset: 0x573A5, size: 0x8, addend: 0x0, symName: __ZNSt3__116__non_trivial_ifILb1ENS_9allocatorI18CharwiseMoveActionEEEC2B8ue170006Ev, symObjAddr: 0x4AE0, symBinAddr: 0x1000173C8, symSize: 0x14 }
  - { offsetInCU: 0x180B8, offset: 0x573CF, size: 0x8, addend: 0x0, symName: __ZNSt3__110shared_ptrI18CharwiseMoveActionED2B8ue170006Ev, symObjAddr: 0x4AF4, symBinAddr: 0x1000173DC, symSize: 0x54 }
  - { offsetInCU: 0x180E2, offset: 0x573F9, size: 0x8, addend: 0x0, symName: __ZNSt3__110shared_ptrI6ActionEC2B8ue170006I18CharwiseMoveActionvEEONS0_IT_EE, symObjAddr: 0x4B48, symBinAddr: 0x100017430, symSize: 0x40 }
  - { offsetInCU: 0x18125, offset: 0x5743C, size: 0x8, addend: 0x0, symName: __ZNSt3__19allocatorI12IndentActionEC1B8ue170006Ev, symObjAddr: 0x4C20, symBinAddr: 0x100017508, symSize: 0x2C }
  - { offsetInCU: 0x1817C, offset: 0x57493, size: 0x8, addend: 0x0, symName: __ZNSt3__118__allocation_guardINS_9allocatorINS_20__shared_ptr_emplaceI12IndentActionNS1_IS3_EEEEEEEC1B8ue170006IS4_EET_m, symObjAddr: 0x4C4C, symBinAddr: 0x100017534, symSize: 0x34 }
  - { offsetInCU: 0x181CB, offset: 0x574E2, size: 0x8, addend: 0x0, symName: __ZNKSt3__118__allocation_guardINS_9allocatorINS_20__shared_ptr_emplaceI12IndentActionNS1_IS3_EEEEEEE5__getB8ue170006Ev, symObjAddr: 0x4C80, symBinAddr: 0x100017568, symSize: 0x18 }
  - { offsetInCU: 0x181F6, offset: 0x5750D, size: 0x8, addend: 0x0, symName: __ZNSt3__120__shared_ptr_emplaceI12IndentActionNS_9allocatorIS1_EEEC1B8ue170006IJiEEES3_DpOT_, symObjAddr: 0x4C98, symBinAddr: 0x100017580, symSize: 0x34 }
  - { offsetInCU: 0x18249, offset: 0x57560, size: 0x8, addend: 0x0, symName: __ZNSt3__118__allocation_guardINS_9allocatorINS_20__shared_ptr_emplaceI12IndentActionNS1_IS3_EEEEEEE13__release_ptrB8ue170006Ev, symObjAddr: 0x4CCC, symBinAddr: 0x1000175B4, symSize: 0x24 }
  - { offsetInCU: 0x1827E, offset: 0x57595, size: 0x8, addend: 0x0, symName: __ZNSt3__110shared_ptrI12IndentActionE27__create_with_control_blockB8ue170006IS1_NS_20__shared_ptr_emplaceIS1_NS_9allocatorIS1_EEEEEES2_PT_PT0_, symObjAddr: 0x4CF0, symBinAddr: 0x1000175D8, symSize: 0xA4 }
  - { offsetInCU: 0x182D3, offset: 0x575EA, size: 0x8, addend: 0x0, symName: __ZNSt3__120__shared_ptr_emplaceI12IndentActionNS_9allocatorIS1_EEE10__get_elemB8ue170006Ev, symObjAddr: 0x4D94, symBinAddr: 0x10001767C, symSize: 0x28 }
  - { offsetInCU: 0x182F9, offset: 0x57610, size: 0x8, addend: 0x0, symName: __ZNSt3__118__allocation_guardINS_9allocatorINS_20__shared_ptr_emplaceI12IndentActionNS1_IS3_EEEEEEED1B8ue170006Ev, symObjAddr: 0x4DBC, symBinAddr: 0x1000176A4, symSize: 0x2C }
  - { offsetInCU: 0x18323, offset: 0x5763A, size: 0x8, addend: 0x0, symName: __ZNSt3__118__allocation_guardINS_9allocatorINS_20__shared_ptr_emplaceI12IndentActionNS1_IS3_EEEEEEEC2B8ue170006IS4_EET_m, symObjAddr: 0x4DE8, symBinAddr: 0x1000176D0, symSize: 0x50 }
  - { offsetInCU: 0x18372, offset: 0x57689, size: 0x8, addend: 0x0, symName: __ZNSt3__19allocatorINS_20__shared_ptr_emplaceI12IndentActionNS0_IS2_EEEEEC1B8ue170006IS2_EERKNS0_IT_EE, symObjAddr: 0x4E38, symBinAddr: 0x100017720, symSize: 0x34 }
  - { offsetInCU: 0x183B0, offset: 0x576C7, size: 0x8, addend: 0x0, symName: __ZNSt3__116allocator_traitsINS_9allocatorINS_20__shared_ptr_emplaceI12IndentActionNS1_IS3_EEEEEEE8allocateB8ue170006ERS6_m, symObjAddr: 0x4E6C, symBinAddr: 0x100017754, symSize: 0x2C }
  - { offsetInCU: 0x183E3, offset: 0x576FA, size: 0x8, addend: 0x0, symName: __ZNSt3__19allocatorINS_20__shared_ptr_emplaceI12IndentActionNS0_IS2_EEEEEC2B8ue170006IS2_EERKNS0_IT_EE, symObjAddr: 0x4E98, symBinAddr: 0x100017780, symSize: 0x30 }
  - { offsetInCU: 0x18421, offset: 0x57738, size: 0x8, addend: 0x0, symName: __ZNSt3__116__non_trivial_ifILb1ENS_9allocatorINS_20__shared_ptr_emplaceI12IndentActionNS1_IS3_EEEEEEEC2B8ue170006Ev, symObjAddr: 0x4EC8, symBinAddr: 0x1000177B0, symSize: 0x14 }
  - { offsetInCU: 0x1844B, offset: 0x57762, size: 0x8, addend: 0x0, symName: __ZNSt3__19allocatorINS_20__shared_ptr_emplaceI12IndentActionNS0_IS2_EEEEE8allocateB8ue170006Em, symObjAddr: 0x4EDC, symBinAddr: 0x1000177C4, symSize: 0x5C }
  - { offsetInCU: 0x18489, offset: 0x577A0, size: 0x8, addend: 0x0, symName: __ZNSt3__116allocator_traitsINS_9allocatorINS_20__shared_ptr_emplaceI12IndentActionNS1_IS3_EEEEEEE8max_sizeB8ue170006IS6_vvEEmRKS6_, symObjAddr: 0x4F38, symBinAddr: 0x100017820, symSize: 0x28 }
  - { offsetInCU: 0x184B5, offset: 0x577CC, size: 0x8, addend: 0x0, symName: __ZNSt3__120__shared_ptr_emplaceI12IndentActionNS_9allocatorIS1_EEEC2B8ue170006IJiEEES3_DpOT_, symObjAddr: 0x4F60, symBinAddr: 0x100017848, symSize: 0xC8 }
  - { offsetInCU: 0x18529, offset: 0x57840, size: 0x8, addend: 0x0, symName: __ZNSt3__120__shared_ptr_emplaceI12IndentActionNS_9allocatorIS1_EEE8_StorageC1B8ue170006EOS3_, symObjAddr: 0x5028, symBinAddr: 0x100017910, symSize: 0x34 }
  - { offsetInCU: 0x18562, offset: 0x57879, size: 0x8, addend: 0x0, symName: __ZNSt3__120__shared_ptr_emplaceI12IndentActionNS_9allocatorIS1_EEE11__get_allocB8ue170006Ev, symObjAddr: 0x505C, symBinAddr: 0x100017944, symSize: 0x28 }
  - { offsetInCU: 0x1858D, offset: 0x578A4, size: 0x8, addend: 0x0, symName: __ZNSt3__116allocator_traitsINS_9allocatorI12IndentActionEEE9constructB8ue170006IS2_JiEvvEEvRS3_PT_DpOT0_, symObjAddr: 0x5084, symBinAddr: 0x10001796C, symSize: 0x30 }
  - { offsetInCU: 0x185E2, offset: 0x578F9, size: 0x8, addend: 0x0, symName: __ZNSt3__120__shared_ptr_emplaceI12IndentActionNS_9allocatorIS1_EEE8_StorageD1B8ue170006Ev, symObjAddr: 0x50B4, symBinAddr: 0x10001799C, symSize: 0x2C }
  - { offsetInCU: 0x1860C, offset: 0x57923, size: 0x8, addend: 0x0, symName: __ZNSt3__120__shared_ptr_emplaceI12IndentActionNS_9allocatorIS1_EEED1Ev, symObjAddr: 0x50E0, symBinAddr: 0x1000179C8, symSize: 0x2C }
  - { offsetInCU: 0x18639, offset: 0x57950, size: 0x8, addend: 0x0, symName: __ZNSt3__120__shared_ptr_emplaceI12IndentActionNS_9allocatorIS1_EEED0Ev, symObjAddr: 0x510C, symBinAddr: 0x1000179F4, symSize: 0x30 }
  - { offsetInCU: 0x18666, offset: 0x5797D, size: 0x8, addend: 0x0, symName: __ZNSt3__120__shared_ptr_emplaceI12IndentActionNS_9allocatorIS1_EEE16__on_zero_sharedEv, symObjAddr: 0x513C, symBinAddr: 0x100017A24, symSize: 0x44 }
  - { offsetInCU: 0x186AD, offset: 0x579C4, size: 0x8, addend: 0x0, symName: __ZNSt3__120__shared_ptr_emplaceI12IndentActionNS_9allocatorIS1_EEE21__on_zero_shared_weakEv, symObjAddr: 0x5180, symBinAddr: 0x100017A68, symSize: 0x5C }
  - { offsetInCU: 0x186EE, offset: 0x57A05, size: 0x8, addend: 0x0, symName: __ZNSt3__120__shared_ptr_emplaceI12IndentActionNS_9allocatorIS1_EEE8_StorageC2B8ue170006EOS3_, symObjAddr: 0x51DC, symBinAddr: 0x100017AC4, symSize: 0x30 }
  - { offsetInCU: 0x18727, offset: 0x57A3E, size: 0x8, addend: 0x0, symName: __ZNSt3__120__shared_ptr_emplaceI12IndentActionNS_9allocatorIS1_EEE8_Storage11__get_allocB8ue170006Ev, symObjAddr: 0x520C, symBinAddr: 0x100017AF4, symSize: 0x3C }
  - { offsetInCU: 0x1877A, offset: 0x57A91, size: 0x8, addend: 0x0, symName: __ZNSt3__117__compressed_pairINS_9allocatorI12IndentActionEES2_E16__get_first_baseB8ue170006EPS4_, symObjAddr: 0x5248, symBinAddr: 0x100017B30, symSize: 0x14 }
  - { offsetInCU: 0x1879D, offset: 0x57AB4, size: 0x8, addend: 0x0, symName: __ZNSt3__120__shared_ptr_emplaceI12IndentActionNS_9allocatorIS1_EEE8_StorageD2B8ue170006Ev, symObjAddr: 0x529C, symBinAddr: 0x100017B84, symSize: 0x2C }
  - { offsetInCU: 0x187C7, offset: 0x57ADE, size: 0x8, addend: 0x0, symName: __ZNSt3__120__shared_ptr_emplaceI12IndentActionNS_9allocatorIS1_EEED2Ev, symObjAddr: 0x52C8, symBinAddr: 0x100017BB0, symSize: 0x48 }
  - { offsetInCU: 0x187F4, offset: 0x57B0B, size: 0x8, addend: 0x0, symName: __ZNSt3__116allocator_traitsINS_9allocatorI12IndentActionEEE7destroyB8ue170006IS2_vvEEvRS3_PT_, symObjAddr: 0x5310, symBinAddr: 0x100017BF8, symSize: 0x28 }
  - { offsetInCU: 0x1882F, offset: 0x57B46, size: 0x8, addend: 0x0, symName: __ZNSt3__116allocator_traitsINS_9allocatorINS_20__shared_ptr_emplaceI12IndentActionNS1_IS3_EEEEEEE10deallocateB8ue170006ERS6_PS5_m, symObjAddr: 0x5388, symBinAddr: 0x100017C70, symSize: 0x34 }
  - { offsetInCU: 0x18876, offset: 0x57B8D, size: 0x8, addend: 0x0, symName: __ZNSt3__114pointer_traitsIPNS_20__shared_ptr_emplaceI12IndentActionNS_9allocatorIS2_EEEEE10pointer_toB8ue170006ERS5_, symObjAddr: 0x53BC, symBinAddr: 0x100017CA4, symSize: 0x14 }
  - { offsetInCU: 0x18899, offset: 0x57BB0, size: 0x8, addend: 0x0, symName: __ZNSt3__19allocatorINS_20__shared_ptr_emplaceI12IndentActionNS0_IS2_EEEEE10deallocateB8ue170006EPS4_m, symObjAddr: 0x53D0, symBinAddr: 0x100017CB8, symSize: 0x44 }
  - { offsetInCU: 0x188DB, offset: 0x57BF2, size: 0x8, addend: 0x0, symName: __ZNSt3__110shared_ptrI12IndentActionEC1B8ue170006Ev, symObjAddr: 0x5414, symBinAddr: 0x100017CFC, symSize: 0x2C }
  - { offsetInCU: 0x18905, offset: 0x57C1C, size: 0x8, addend: 0x0, symName: __ZNSt3__110shared_ptrI12IndentActionE18__enable_weak_thisB8ue170006Ez, symObjAddr: 0x5440, symBinAddr: 0x100017D28, symSize: 0x10 }
  - { offsetInCU: 0x1892C, offset: 0x57C43, size: 0x8, addend: 0x0, symName: __ZNSt3__110shared_ptrI12IndentActionEC2B8ue170006Ev, symObjAddr: 0x5450, symBinAddr: 0x100017D38, symSize: 0x1C }
  - { offsetInCU: 0x18956, offset: 0x57C6D, size: 0x8, addend: 0x0, symName: __ZNSt3__120__shared_ptr_emplaceI12IndentActionNS_9allocatorIS1_EEE8_Storage10__get_elemB8ue170006Ev, symObjAddr: 0x546C, symBinAddr: 0x100017D54, symSize: 0x3C }
  - { offsetInCU: 0x189A9, offset: 0x57CC0, size: 0x8, addend: 0x0, symName: __ZNSt3__117__compressed_pairINS_9allocatorI12IndentActionEES2_E17__get_second_baseB8ue170006EPS4_, symObjAddr: 0x54A8, symBinAddr: 0x100017D90, symSize: 0x14 }
  - { offsetInCU: 0x189CC, offset: 0x57CE3, size: 0x8, addend: 0x0, symName: __ZNSt3__118__allocation_guardINS_9allocatorINS_20__shared_ptr_emplaceI12IndentActionNS1_IS3_EEEEEEED2B8ue170006Ev, symObjAddr: 0x54BC, symBinAddr: 0x100017DA4, symSize: 0x2C }
  - { offsetInCU: 0x189F6, offset: 0x57D0D, size: 0x8, addend: 0x0, symName: __ZNSt3__118__allocation_guardINS_9allocatorINS_20__shared_ptr_emplaceI12IndentActionNS1_IS3_EEEEEEE9__destroyB8ue170006Ev, symObjAddr: 0x54E8, symBinAddr: 0x100017DD0, symSize: 0x4C }
  - { offsetInCU: 0x18A1C, offset: 0x57D33, size: 0x8, addend: 0x0, symName: __ZNSt3__19allocatorI12IndentActionEC2B8ue170006Ev, symObjAddr: 0x5534, symBinAddr: 0x100017E1C, symSize: 0x2C }
  - { offsetInCU: 0x18A46, offset: 0x57D5D, size: 0x8, addend: 0x0, symName: __ZNSt3__116__non_trivial_ifILb1ENS_9allocatorI12IndentActionEEEC2B8ue170006Ev, symObjAddr: 0x5560, symBinAddr: 0x100017E48, symSize: 0x14 }
  - { offsetInCU: 0x18A70, offset: 0x57D87, size: 0x8, addend: 0x0, symName: __ZNSt3__110shared_ptrI12IndentActionED2B8ue170006Ev, symObjAddr: 0x5574, symBinAddr: 0x100017E5C, symSize: 0x54 }
  - { offsetInCU: 0x18A9A, offset: 0x57DB1, size: 0x8, addend: 0x0, symName: __ZNSt3__110shared_ptrI6ActionEC2B8ue170006I12IndentActionvEEONS0_IT_EE, symObjAddr: 0x55C8, symBinAddr: 0x100017EB0, symSize: 0x40 }
  - { offsetInCU: 0x18ADD, offset: 0x57DF4, size: 0x8, addend: 0x0, symName: __ZNSt3__19allocatorI14UnindentActionEC1B8ue170006Ev, symObjAddr: 0x56A0, symBinAddr: 0x100017F88, symSize: 0x2C }
  - { offsetInCU: 0x18B34, offset: 0x57E4B, size: 0x8, addend: 0x0, symName: __ZNSt3__118__allocation_guardINS_9allocatorINS_20__shared_ptr_emplaceI14UnindentActionNS1_IS3_EEEEEEEC1B8ue170006IS4_EET_m, symObjAddr: 0x56CC, symBinAddr: 0x100017FB4, symSize: 0x34 }
  - { offsetInCU: 0x18B83, offset: 0x57E9A, size: 0x8, addend: 0x0, symName: __ZNKSt3__118__allocation_guardINS_9allocatorINS_20__shared_ptr_emplaceI14UnindentActionNS1_IS3_EEEEEEE5__getB8ue170006Ev, symObjAddr: 0x5700, symBinAddr: 0x100017FE8, symSize: 0x18 }
  - { offsetInCU: 0x18BA9, offset: 0x57EC0, size: 0x8, addend: 0x0, symName: __ZNSt3__120__shared_ptr_emplaceI14UnindentActionNS_9allocatorIS1_EEEC1B8ue170006IJiEEES3_DpOT_, symObjAddr: 0x5718, symBinAddr: 0x100018000, symSize: 0x34 }
  - { offsetInCU: 0x18BFC, offset: 0x57F13, size: 0x8, addend: 0x0, symName: __ZNSt3__118__allocation_guardINS_9allocatorINS_20__shared_ptr_emplaceI14UnindentActionNS1_IS3_EEEEEEE13__release_ptrB8ue170006Ev, symObjAddr: 0x574C, symBinAddr: 0x100018034, symSize: 0x24 }
  - { offsetInCU: 0x18C31, offset: 0x57F48, size: 0x8, addend: 0x0, symName: __ZNSt3__110shared_ptrI14UnindentActionE27__create_with_control_blockB8ue170006IS1_NS_20__shared_ptr_emplaceIS1_NS_9allocatorIS1_EEEEEES2_PT_PT0_, symObjAddr: 0x5770, symBinAddr: 0x100018058, symSize: 0xA4 }
  - { offsetInCU: 0x18C86, offset: 0x57F9D, size: 0x8, addend: 0x0, symName: __ZNSt3__120__shared_ptr_emplaceI14UnindentActionNS_9allocatorIS1_EEE10__get_elemB8ue170006Ev, symObjAddr: 0x5814, symBinAddr: 0x1000180FC, symSize: 0x28 }
  - { offsetInCU: 0x18CAC, offset: 0x57FC3, size: 0x8, addend: 0x0, symName: __ZNSt3__118__allocation_guardINS_9allocatorINS_20__shared_ptr_emplaceI14UnindentActionNS1_IS3_EEEEEEED1B8ue170006Ev, symObjAddr: 0x583C, symBinAddr: 0x100018124, symSize: 0x2C }
  - { offsetInCU: 0x18CD6, offset: 0x57FED, size: 0x8, addend: 0x0, symName: __ZNSt3__118__allocation_guardINS_9allocatorINS_20__shared_ptr_emplaceI14UnindentActionNS1_IS3_EEEEEEEC2B8ue170006IS4_EET_m, symObjAddr: 0x5868, symBinAddr: 0x100018150, symSize: 0x50 }
  - { offsetInCU: 0x18D25, offset: 0x5803C, size: 0x8, addend: 0x0, symName: __ZNSt3__19allocatorINS_20__shared_ptr_emplaceI14UnindentActionNS0_IS2_EEEEEC1B8ue170006IS2_EERKNS0_IT_EE, symObjAddr: 0x58B8, symBinAddr: 0x1000181A0, symSize: 0x34 }
  - { offsetInCU: 0x18D63, offset: 0x5807A, size: 0x8, addend: 0x0, symName: __ZNSt3__116allocator_traitsINS_9allocatorINS_20__shared_ptr_emplaceI14UnindentActionNS1_IS3_EEEEEEE8allocateB8ue170006ERS6_m, symObjAddr: 0x58EC, symBinAddr: 0x1000181D4, symSize: 0x2C }
  - { offsetInCU: 0x18D96, offset: 0x580AD, size: 0x8, addend: 0x0, symName: __ZNSt3__19allocatorINS_20__shared_ptr_emplaceI14UnindentActionNS0_IS2_EEEEEC2B8ue170006IS2_EERKNS0_IT_EE, symObjAddr: 0x5918, symBinAddr: 0x100018200, symSize: 0x30 }
  - { offsetInCU: 0x18DD4, offset: 0x580EB, size: 0x8, addend: 0x0, symName: __ZNSt3__116__non_trivial_ifILb1ENS_9allocatorINS_20__shared_ptr_emplaceI14UnindentActionNS1_IS3_EEEEEEEC2B8ue170006Ev, symObjAddr: 0x5948, symBinAddr: 0x100018230, symSize: 0x14 }
  - { offsetInCU: 0x18DFE, offset: 0x58115, size: 0x8, addend: 0x0, symName: __ZNSt3__19allocatorINS_20__shared_ptr_emplaceI14UnindentActionNS0_IS2_EEEEE8allocateB8ue170006Em, symObjAddr: 0x595C, symBinAddr: 0x100018244, symSize: 0x5C }
  - { offsetInCU: 0x18E3C, offset: 0x58153, size: 0x8, addend: 0x0, symName: __ZNSt3__116allocator_traitsINS_9allocatorINS_20__shared_ptr_emplaceI14UnindentActionNS1_IS3_EEEEEEE8max_sizeB8ue170006IS6_vvEEmRKS6_, symObjAddr: 0x59B8, symBinAddr: 0x1000182A0, symSize: 0x28 }
  - { offsetInCU: 0x18E68, offset: 0x5817F, size: 0x8, addend: 0x0, symName: __ZNSt3__120__shared_ptr_emplaceI14UnindentActionNS_9allocatorIS1_EEEC2B8ue170006IJiEEES3_DpOT_, symObjAddr: 0x59E0, symBinAddr: 0x1000182C8, symSize: 0xC8 }
  - { offsetInCU: 0x18EDC, offset: 0x581F3, size: 0x8, addend: 0x0, symName: __ZNSt3__120__shared_ptr_emplaceI14UnindentActionNS_9allocatorIS1_EEE8_StorageC1B8ue170006EOS3_, symObjAddr: 0x5AA8, symBinAddr: 0x100018390, symSize: 0x34 }
  - { offsetInCU: 0x18F15, offset: 0x5822C, size: 0x8, addend: 0x0, symName: __ZNSt3__120__shared_ptr_emplaceI14UnindentActionNS_9allocatorIS1_EEE11__get_allocB8ue170006Ev, symObjAddr: 0x5ADC, symBinAddr: 0x1000183C4, symSize: 0x28 }
  - { offsetInCU: 0x18F40, offset: 0x58257, size: 0x8, addend: 0x0, symName: __ZNSt3__116allocator_traitsINS_9allocatorI14UnindentActionEEE9constructB8ue170006IS2_JiEvvEEvRS3_PT_DpOT0_, symObjAddr: 0x5B04, symBinAddr: 0x1000183EC, symSize: 0x30 }
  - { offsetInCU: 0x18F95, offset: 0x582AC, size: 0x8, addend: 0x0, symName: __ZNSt3__120__shared_ptr_emplaceI14UnindentActionNS_9allocatorIS1_EEE8_StorageD1B8ue170006Ev, symObjAddr: 0x5B34, symBinAddr: 0x10001841C, symSize: 0x2C }
  - { offsetInCU: 0x18FBF, offset: 0x582D6, size: 0x8, addend: 0x0, symName: __ZNSt3__120__shared_ptr_emplaceI14UnindentActionNS_9allocatorIS1_EEED1Ev, symObjAddr: 0x5B60, symBinAddr: 0x100018448, symSize: 0x2C }
  - { offsetInCU: 0x18FEC, offset: 0x58303, size: 0x8, addend: 0x0, symName: __ZNSt3__120__shared_ptr_emplaceI14UnindentActionNS_9allocatorIS1_EEED0Ev, symObjAddr: 0x5B8C, symBinAddr: 0x100018474, symSize: 0x30 }
  - { offsetInCU: 0x19019, offset: 0x58330, size: 0x8, addend: 0x0, symName: __ZNSt3__120__shared_ptr_emplaceI14UnindentActionNS_9allocatorIS1_EEE16__on_zero_sharedEv, symObjAddr: 0x5BBC, symBinAddr: 0x1000184A4, symSize: 0x44 }
  - { offsetInCU: 0x19060, offset: 0x58377, size: 0x8, addend: 0x0, symName: __ZNSt3__120__shared_ptr_emplaceI14UnindentActionNS_9allocatorIS1_EEE21__on_zero_shared_weakEv, symObjAddr: 0x5C00, symBinAddr: 0x1000184E8, symSize: 0x5C }
  - { offsetInCU: 0x190A1, offset: 0x583B8, size: 0x8, addend: 0x0, symName: __ZNSt3__120__shared_ptr_emplaceI14UnindentActionNS_9allocatorIS1_EEE8_StorageC2B8ue170006EOS3_, symObjAddr: 0x5C5C, symBinAddr: 0x100018544, symSize: 0x30 }
  - { offsetInCU: 0x190DA, offset: 0x583F1, size: 0x8, addend: 0x0, symName: __ZNSt3__120__shared_ptr_emplaceI14UnindentActionNS_9allocatorIS1_EEE8_Storage11__get_allocB8ue170006Ev, symObjAddr: 0x5C8C, symBinAddr: 0x100018574, symSize: 0x3C }
  - { offsetInCU: 0x1912D, offset: 0x58444, size: 0x8, addend: 0x0, symName: __ZNSt3__117__compressed_pairINS_9allocatorI14UnindentActionEES2_E16__get_first_baseB8ue170006EPS4_, symObjAddr: 0x5CC8, symBinAddr: 0x1000185B0, symSize: 0x14 }
  - { offsetInCU: 0x19150, offset: 0x58467, size: 0x8, addend: 0x0, symName: __ZNSt3__120__shared_ptr_emplaceI14UnindentActionNS_9allocatorIS1_EEE8_StorageD2B8ue170006Ev, symObjAddr: 0x5D1C, symBinAddr: 0x100018604, symSize: 0x2C }
  - { offsetInCU: 0x1917A, offset: 0x58491, size: 0x8, addend: 0x0, symName: __ZNSt3__120__shared_ptr_emplaceI14UnindentActionNS_9allocatorIS1_EEED2Ev, symObjAddr: 0x5D48, symBinAddr: 0x100018630, symSize: 0x48 }
  - { offsetInCU: 0x191A7, offset: 0x584BE, size: 0x8, addend: 0x0, symName: __ZNSt3__116allocator_traitsINS_9allocatorI14UnindentActionEEE7destroyB8ue170006IS2_vvEEvRS3_PT_, symObjAddr: 0x5D90, symBinAddr: 0x100018678, symSize: 0x28 }
  - { offsetInCU: 0x191E2, offset: 0x584F9, size: 0x8, addend: 0x0, symName: __ZNSt3__116allocator_traitsINS_9allocatorINS_20__shared_ptr_emplaceI14UnindentActionNS1_IS3_EEEEEEE10deallocateB8ue170006ERS6_PS5_m, symObjAddr: 0x5E08, symBinAddr: 0x1000186F0, symSize: 0x34 }
  - { offsetInCU: 0x19229, offset: 0x58540, size: 0x8, addend: 0x0, symName: __ZNSt3__114pointer_traitsIPNS_20__shared_ptr_emplaceI14UnindentActionNS_9allocatorIS2_EEEEE10pointer_toB8ue170006ERS5_, symObjAddr: 0x5E3C, symBinAddr: 0x100018724, symSize: 0x14 }
  - { offsetInCU: 0x1924C, offset: 0x58563, size: 0x8, addend: 0x0, symName: __ZNSt3__19allocatorINS_20__shared_ptr_emplaceI14UnindentActionNS0_IS2_EEEEE10deallocateB8ue170006EPS4_m, symObjAddr: 0x5E50, symBinAddr: 0x100018738, symSize: 0x44 }
  - { offsetInCU: 0x1928E, offset: 0x585A5, size: 0x8, addend: 0x0, symName: __ZNSt3__110shared_ptrI14UnindentActionEC1B8ue170006Ev, symObjAddr: 0x5E94, symBinAddr: 0x10001877C, symSize: 0x2C }
  - { offsetInCU: 0x192B8, offset: 0x585CF, size: 0x8, addend: 0x0, symName: __ZNSt3__110shared_ptrI14UnindentActionE18__enable_weak_thisB8ue170006Ez, symObjAddr: 0x5EC0, symBinAddr: 0x1000187A8, symSize: 0x10 }
  - { offsetInCU: 0x192DF, offset: 0x585F6, size: 0x8, addend: 0x0, symName: __ZNSt3__110shared_ptrI14UnindentActionEC2B8ue170006Ev, symObjAddr: 0x5ED0, symBinAddr: 0x1000187B8, symSize: 0x1C }
  - { offsetInCU: 0x19309, offset: 0x58620, size: 0x8, addend: 0x0, symName: __ZNSt3__120__shared_ptr_emplaceI14UnindentActionNS_9allocatorIS1_EEE8_Storage10__get_elemB8ue170006Ev, symObjAddr: 0x5EEC, symBinAddr: 0x1000187D4, symSize: 0x3C }
  - { offsetInCU: 0x1935C, offset: 0x58673, size: 0x8, addend: 0x0, symName: __ZNSt3__117__compressed_pairINS_9allocatorI14UnindentActionEES2_E17__get_second_baseB8ue170006EPS4_, symObjAddr: 0x5F28, symBinAddr: 0x100018810, symSize: 0x14 }
  - { offsetInCU: 0x1937F, offset: 0x58696, size: 0x8, addend: 0x0, symName: __ZNSt3__118__allocation_guardINS_9allocatorINS_20__shared_ptr_emplaceI14UnindentActionNS1_IS3_EEEEEEED2B8ue170006Ev, symObjAddr: 0x5F3C, symBinAddr: 0x100018824, symSize: 0x2C }
  - { offsetInCU: 0x193A9, offset: 0x586C0, size: 0x8, addend: 0x0, symName: __ZNSt3__118__allocation_guardINS_9allocatorINS_20__shared_ptr_emplaceI14UnindentActionNS1_IS3_EEEEEEE9__destroyB8ue170006Ev, symObjAddr: 0x5F68, symBinAddr: 0x100018850, symSize: 0x4C }
  - { offsetInCU: 0x193CF, offset: 0x586E6, size: 0x8, addend: 0x0, symName: __ZNSt3__19allocatorI14UnindentActionEC2B8ue170006Ev, symObjAddr: 0x5FB4, symBinAddr: 0x10001889C, symSize: 0x2C }
  - { offsetInCU: 0x193F9, offset: 0x58710, size: 0x8, addend: 0x0, symName: __ZNSt3__116__non_trivial_ifILb1ENS_9allocatorI14UnindentActionEEEC2B8ue170006Ev, symObjAddr: 0x5FE0, symBinAddr: 0x1000188C8, symSize: 0x14 }
  - { offsetInCU: 0x19423, offset: 0x5873A, size: 0x8, addend: 0x0, symName: __ZNSt3__110shared_ptrI14UnindentActionED2B8ue170006Ev, symObjAddr: 0x5FF4, symBinAddr: 0x1000188DC, symSize: 0x54 }
  - { offsetInCU: 0x1944D, offset: 0x58764, size: 0x8, addend: 0x0, symName: __ZNSt3__110shared_ptrI6ActionEC2B8ue170006I14UnindentActionvEEONS0_IT_EE, symObjAddr: 0x6048, symBinAddr: 0x100018930, symSize: 0x40 }
  - { offsetInCU: 0xE37B, offset: 0x66C70, size: 0x8, addend: 0x0, symName: __ZNSt3__111make_uniqueB8ue170006I8ToolModeJEEENS_11__unique_ifIT_E15__unique_singleEDpOT0_, symObjAddr: 0x190, symBinAddr: 0x100018AD4, symSize: 0x78 }
  - { offsetInCU: 0xE3A8, offset: 0x66C9D, size: 0x8, addend: 0x0, symName: __ZNSt3__111make_uniqueB8ue170006I10TypingModeJEEENS_11__unique_ifIT_E15__unique_singleEDpOT0_, symObjAddr: 0x294, symBinAddr: 0x100018BD8, symSize: 0x40 }
  - { offsetInCU: 0xE3D5, offset: 0x66CCA, size: 0x8, addend: 0x0, symName: __ZNSt3__1plB8ue170006IcNS_11char_traitsIcEENS_9allocatorIcEEEENS_12basic_stringIT_T0_T1_EEPKS6_OS9_, symObjAddr: 0x614, symBinAddr: 0x100018F18, symSize: 0x44 }
  - { offsetInCU: 0xE42D, offset: 0x66D22, size: 0x8, addend: 0x0, symName: __ZNSt3__130__uninitialized_allocator_copyB8ue170006INS_9allocatorINS_10shared_ptrI6ActionEEEEPS4_S6_S6_EET2_RT_T0_T1_S7_, symObjAddr: 0x1310, symBinAddr: 0x1000192D0, symSize: 0x80 }
  - { offsetInCU: 0xE4CA, offset: 0x66DBF, size: 0x8, addend: 0x0, symName: __ZNSt3__114__unwrap_rangeB8ue170006IPNS_10shared_ptrI6ActionEES4_EEDaT_T0_, symObjAddr: 0x1400, symBinAddr: 0x100019350, symSize: 0x3C }
  - { offsetInCU: 0xE516, offset: 0x66E0B, size: 0x8, addend: 0x0, symName: __ZNSt3__135__uninitialized_allocator_copy_implB8ue170006INS_9allocatorINS_10shared_ptrI6ActionEEEEPS4_S6_S6_EET2_RT_T0_T1_S7_, symObjAddr: 0x143C, symBinAddr: 0x10001938C, symSize: 0xF4 }
  - { offsetInCU: 0xE6DE, offset: 0x66FD3, size: 0x8, addend: 0x0, symName: __ZNSt3__112construct_atB8ue170006INS_10shared_ptrI6ActionEEJRS3_EPS3_EEPT_S7_DpOT0_, symObjAddr: 0x17FC, symBinAddr: 0x100019578, symSize: 0x3C }
  - { offsetInCU: 0x1196B, offset: 0x6A260, size: 0x8, addend: 0x0, symName: __ZN11ModeManagerC2E8ModeType, symObjAddr: 0x0, symBinAddr: 0x100018970, symSize: 0x64 }
  - { offsetInCU: 0x119A5, offset: 0x6A29A, size: 0x8, addend: 0x0, symName: __ZNSt3__110unique_ptrI10EditorModeNS_14default_deleteIS1_EEEC1B8ue170006ILb1EvEEv, symObjAddr: 0x64, symBinAddr: 0x1000189D4, symSize: 0x2C }
  - { offsetInCU: 0x119DA, offset: 0x6A2CF, size: 0x8, addend: 0x0, symName: __ZN11ModeManager10changeModeE8ModeType, symObjAddr: 0x90, symBinAddr: 0x100018A00, symSize: 0xA0 }
  - { offsetInCU: 0x11A10, offset: 0x6A305, size: 0x8, addend: 0x0, symName: __ZN11ModeManagerC1E8ModeType, symObjAddr: 0x15C, symBinAddr: 0x100018AA0, symSize: 0x34 }
  - { offsetInCU: 0x11A4A, offset: 0x6A33F, size: 0x8, addend: 0x0, symName: __ZNSt3__110unique_ptrI10EditorModeNS_14default_deleteIS1_EEEaSB8ue170006I8ToolModeNS2_IS6_EEvvEERS4_ONS0_IT_T0_EE, symObjAddr: 0x208, symBinAddr: 0x100018B4C, symSize: 0x60 }
  - { offsetInCU: 0x11A92, offset: 0x6A387, size: 0x8, addend: 0x0, symName: __ZNSt3__110unique_ptrI8ToolModeNS_14default_deleteIS1_EEED1B8ue170006Ev, symObjAddr: 0x268, symBinAddr: 0x100018BAC, symSize: 0x2C }
  - { offsetInCU: 0x11ABC, offset: 0x6A3B1, size: 0x8, addend: 0x0, symName: __ZNSt3__110unique_ptrI10EditorModeNS_14default_deleteIS1_EEEaSB8ue170006I10TypingModeNS2_IS6_EEvvEERS4_ONS0_IT_T0_EE, symObjAddr: 0x2D4, symBinAddr: 0x100018C18, symSize: 0x60 }
  - { offsetInCU: 0x11B04, offset: 0x6A3F9, size: 0x8, addend: 0x0, symName: __ZNSt3__110unique_ptrI10TypingModeNS_14default_deleteIS1_EEED1B8ue170006Ev, symObjAddr: 0x334, symBinAddr: 0x100018C78, symSize: 0x2C }
  - { offsetInCU: 0x11B2E, offset: 0x6A423, size: 0x8, addend: 0x0, symName: __ZN11ModeManager15convertToActionE5Input14ParsingContext, symObjAddr: 0x360, symBinAddr: 0x100018CA4, symSize: 0xF0 }
  - { offsetInCU: 0x11B83, offset: 0x6A478, size: 0x8, addend: 0x0, symName: __ZNKSt3__110unique_ptrI10EditorModeNS_14default_deleteIS1_EEEptB8ue170006Ev, symObjAddr: 0x450, symBinAddr: 0x100018D94, symSize: 0x28 }
  - { offsetInCU: 0x11BA9, offset: 0x6A49E, size: 0x8, addend: 0x0, symName: __ZNKSt3__123__optional_storage_baseI8ModeTypeLb0EE9has_valueB8ue170006Ev, symObjAddr: 0x478, symBinAddr: 0x100018DBC, symSize: 0x1C }
  - { offsetInCU: 0x11BCF, offset: 0x6A4C4, size: 0x8, addend: 0x0, symName: __ZNRSt3__18optionalI8ModeTypeEdeB8ue170006Ev, symObjAddr: 0x494, symBinAddr: 0x100018DD8, symSize: 0x24 }
  - { offsetInCU: 0x11BF5, offset: 0x6A4EA, size: 0x8, addend: 0x0, symName: __ZNSt3__16vectorINS_10shared_ptrI6ActionEENS_9allocatorIS3_EEEC1ERKS6_, symObjAddr: 0x4B8, symBinAddr: 0x100018DFC, symSize: 0x34 }
  - { offsetInCU: 0x11C35, offset: 0x6A52A, size: 0x8, addend: 0x0, symName: __ZN11ParseResultD1Ev, symObjAddr: 0x4EC, symBinAddr: 0x100018E30, symSize: 0x2C }
  - { offsetInCU: 0x11C61, offset: 0x6A556, size: 0x8, addend: 0x0, symName: __ZNK11ModeManager12getModeLabelEv, symObjAddr: 0x518, symBinAddr: 0x100018E5C, symSize: 0xBC }
  - { offsetInCU: 0x11C89, offset: 0x6A57E, size: 0x8, addend: 0x0, symName: __ZNSt3__110unique_ptrI10EditorModeNS_14default_deleteIS1_EEEC2B8ue170006ILb1EvEEv, symObjAddr: 0x658, symBinAddr: 0x100018F5C, symSize: 0x3C }
  - { offsetInCU: 0x11CC3, offset: 0x6A5B8, size: 0x8, addend: 0x0, symName: __ZNSt3__117__compressed_pairIP10EditorModeNS_14default_deleteIS1_EEEC1B8ue170006INS_16__value_init_tagES7_EEOT_OT0_, symObjAddr: 0x694, symBinAddr: 0x100018F98, symSize: 0x3C }
  - { offsetInCU: 0x11D1B, offset: 0x6A610, size: 0x8, addend: 0x0, symName: __ZNSt3__117__compressed_pairIP10EditorModeNS_14default_deleteIS1_EEEC2B8ue170006INS_16__value_init_tagES7_EEOT_OT0_, symObjAddr: 0x6DC, symBinAddr: 0x100018FD4, symSize: 0x3C }
  - { offsetInCU: 0x11D73, offset: 0x6A668, size: 0x8, addend: 0x0, symName: __ZNSt3__122__compressed_pair_elemIP10EditorModeLi0ELb0EEC2B8ue170006ENS_16__value_init_tagE, symObjAddr: 0x718, symBinAddr: 0x100019010, symSize: 0x18 }
  - { offsetInCU: 0x11DA8, offset: 0x6A69D, size: 0x8, addend: 0x0, symName: __ZNSt3__122__compressed_pair_elemINS_14default_deleteI10EditorModeEELi1ELb1EEC2B8ue170006ENS_16__value_init_tagE, symObjAddr: 0x730, symBinAddr: 0x100019028, symSize: 0x14 }
  - { offsetInCU: 0x11DDD, offset: 0x6A6D2, size: 0x8, addend: 0x0, symName: __ZNRSt3__123__optional_storage_baseI8ModeTypeLb0EE5__getB8ue170006Ev, symObjAddr: 0x744, symBinAddr: 0x10001903C, symSize: 0x14 }
  - { offsetInCU: 0x11E03, offset: 0x6A6F8, size: 0x8, addend: 0x0, symName: __ZNSt3__16vectorINS_10shared_ptrI6ActionEENS_9allocatorIS3_EEEC2ERKS6_, symObjAddr: 0x758, symBinAddr: 0x100019050, symSize: 0x94 }
  - { offsetInCU: 0x11E48, offset: 0x6A73D, size: 0x8, addend: 0x0, symName: __ZNSt3__116allocator_traitsINS_9allocatorINS_10shared_ptrI6ActionEEEEE37select_on_container_copy_constructionB8ue170006IS5_vvEES5_RKS5_, symObjAddr: 0x7EC, symBinAddr: 0x1000190E4, symSize: 0x10 }
  - { offsetInCU: 0x11E81, offset: 0x6A776, size: 0x8, addend: 0x0, symName: __ZNSt3__117__compressed_pairIPNS_10shared_ptrI6ActionEENS_9allocatorIS3_EEEC1B8ue170006IDnS6_EEOT_OT0_, symObjAddr: 0x824, symBinAddr: 0x1000190F4, symSize: 0x3C }
  - { offsetInCU: 0x11ED9, offset: 0x6A7CE, size: 0x8, addend: 0x0, symName: __ZNSt3__16vectorINS_10shared_ptrI6ActionEENS_9allocatorIS3_EEE16__init_with_sizeB8ue170006IPS3_S8_EEvT_T0_m, symObjAddr: 0x860, symBinAddr: 0x100019130, symSize: 0xB8 }
  - { offsetInCU: 0x11F4D, offset: 0x6A842, size: 0x8, addend: 0x0, symName: __ZNSt3__117__compressed_pairIPNS_10shared_ptrI6ActionEENS_9allocatorIS3_EEEC2B8ue170006IDnS6_EEOT_OT0_, symObjAddr: 0x978, symBinAddr: 0x1000191E8, symSize: 0x44 }
  - { offsetInCU: 0x11FA5, offset: 0x6A89A, size: 0x8, addend: 0x0, symName: __ZNSt3__122__compressed_pair_elemINS_9allocatorINS_10shared_ptrI6ActionEEEELi1ELb1EEC2B8ue170006IS5_vEEOT_, symObjAddr: 0x9D8, symBinAddr: 0x10001922C, symSize: 0x18 }
  - { offsetInCU: 0x11FE7, offset: 0x6A8DC, size: 0x8, addend: 0x0, symName: __ZNSt3__16vectorINS_10shared_ptrI6ActionEENS_9allocatorIS3_EEE18__construct_at_endIPS3_S8_EEvT_T0_m, symObjAddr: 0xB10, symBinAddr: 0x100019244, symSize: 0x8C }
  - { offsetInCU: 0x1208F, offset: 0x6A984, size: 0x8, addend: 0x0, symName: __ZNSt3__119__unwrap_range_implIPNS_10shared_ptrI6ActionEES4_E8__unwrapB8ue170006ES4_S4_, symObjAddr: 0x1590, symBinAddr: 0x100019480, symSize: 0x58 }
  - { offsetInCU: 0x120C5, offset: 0x6A9BA, size: 0x8, addend: 0x0, symName: __ZNSt3__14pairIPNS_10shared_ptrI6ActionEES4_EC1B8ue170006IS4_S4_LPv0EEEOT_OT0_, symObjAddr: 0x15E8, symBinAddr: 0x1000194D8, symSize: 0x3C }
  - { offsetInCU: 0x12124, offset: 0x6AA19, size: 0x8, addend: 0x0, symName: __ZNSt3__14pairIPNS_10shared_ptrI6ActionEES4_EC2B8ue170006IS4_S4_LPv0EEEOT_OT0_, symObjAddr: 0x1624, symBinAddr: 0x100019514, symSize: 0x34 }
  - { offsetInCU: 0x12183, offset: 0x6AA78, size: 0x8, addend: 0x0, symName: __ZNSt3__116allocator_traitsINS_9allocatorINS_10shared_ptrI6ActionEEEEE9constructB8ue170006IS4_JRS4_EvvEEvRS5_PT_DpOT0_, symObjAddr: 0x16E8, symBinAddr: 0x100019548, symSize: 0x30 }
  - { offsetInCU: 0x121D8, offset: 0x6AACD, size: 0x8, addend: 0x0, symName: __ZN11ParseResultD2Ev, symObjAddr: 0x22C8, symBinAddr: 0x1000195B4, symSize: 0x30 }
  - { offsetInCU: 0x12204, offset: 0x6AAF9, size: 0x8, addend: 0x0, symName: __ZNSt3__16vectorINS_10shared_ptrI6ActionEENS_9allocatorIS3_EEED1B8ue170006Ev, symObjAddr: 0x22F8, symBinAddr: 0x1000195E4, symSize: 0x2C }
  - { offsetInCU: 0x1222E, offset: 0x6AB23, size: 0x8, addend: 0x0, symName: __ZNSt3__16vectorINS_10shared_ptrI6ActionEENS_9allocatorIS3_EEED2B8ue170006Ev, symObjAddr: 0x2324, symBinAddr: 0x100019610, symSize: 0x40 }
  - { offsetInCU: 0x12258, offset: 0x6AB4D, size: 0x8, addend: 0x0, symName: __ZN8ToolModeC1Ev, symObjAddr: 0x25C4, symBinAddr: 0x100019650, symSize: 0x2C }
  - { offsetInCU: 0x12282, offset: 0x6AB77, size: 0x8, addend: 0x0, symName: __ZNSt3__110unique_ptrI8ToolModeNS_14default_deleteIS1_EEEC1B8ue170006ILb1EvEEPS1_, symObjAddr: 0x25F0, symBinAddr: 0x10001967C, symSize: 0x34 }
  - { offsetInCU: 0x122C5, offset: 0x6ABBA, size: 0x8, addend: 0x0, symName: __ZN8ToolModeC2Ev, symObjAddr: 0x2624, symBinAddr: 0x1000196B0, symSize: 0x78 }
  - { offsetInCU: 0x122EF, offset: 0x6ABE4, size: 0x8, addend: 0x0, symName: __ZN10EditorModeC2Ev, symObjAddr: 0x269C, symBinAddr: 0x100019728, symSize: 0x24 }
  - { offsetInCU: 0x12319, offset: 0x6AC0E, size: 0x8, addend: 0x0, symName: __ZN13CommandParserC1Ev, symObjAddr: 0x26C0, symBinAddr: 0x10001974C, symSize: 0x2C }
  - { offsetInCU: 0x12343, offset: 0x6AC38, size: 0x8, addend: 0x0, symName: __ZN10EditorModeD1Ev, symObjAddr: 0x2700, symBinAddr: 0x100019778, symSize: 0x14 }
  - { offsetInCU: 0x1236D, offset: 0x6AC62, size: 0x8, addend: 0x0, symName: __ZN10EditorModeD0Ev, symObjAddr: 0x2714, symBinAddr: 0x10001978C, symSize: 0xC }
  - { offsetInCU: 0x12397, offset: 0x6AC8C, size: 0x8, addend: 0x0, symName: __ZN13CommandParserC2Ev, symObjAddr: 0x2720, symBinAddr: 0x100019798, symSize: 0x80 }
  - { offsetInCU: 0x123C1, offset: 0x6ACB6, size: 0x8, addend: 0x0, symName: __ZNSt3__18optionalI14CommandDetailsEC1B8ue170006Ev, symObjAddr: 0x27A0, symBinAddr: 0x100019818, symSize: 0x2C }
  - { offsetInCU: 0x123F0, offset: 0x6ACE5, size: 0x8, addend: 0x0, symName: __ZNSt3__18optionalI14CommandDetailsEC2B8ue170006Ev, symObjAddr: 0x2800, symBinAddr: 0x100019844, symSize: 0x2C }
  - { offsetInCU: 0x1241F, offset: 0x6AD14, size: 0x8, addend: 0x0, symName: __ZNSt3__127__optional_move_assign_baseI14CommandDetailsLb1EEC2Ev, symObjAddr: 0x282C, symBinAddr: 0x100019870, symSize: 0x2C }
  - { offsetInCU: 0x12451, offset: 0x6AD46, size: 0x8, addend: 0x0, symName: __ZNSt3__127__optional_copy_assign_baseI14CommandDetailsLb1EEC2Ev, symObjAddr: 0x2858, symBinAddr: 0x10001989C, symSize: 0x2C }
  - { offsetInCU: 0x12483, offset: 0x6AD78, size: 0x8, addend: 0x0, symName: __ZNSt3__120__optional_move_baseI14CommandDetailsLb1EEC2Ev, symObjAddr: 0x2884, symBinAddr: 0x1000198C8, symSize: 0x2C }
  - { offsetInCU: 0x124B5, offset: 0x6ADAA, size: 0x8, addend: 0x0, symName: __ZNSt3__120__optional_copy_baseI14CommandDetailsLb1EEC2Ev, symObjAddr: 0x28B0, symBinAddr: 0x1000198F4, symSize: 0x2C }
  - { offsetInCU: 0x124E2, offset: 0x6ADD7, size: 0x8, addend: 0x0, symName: __ZNSt3__123__optional_storage_baseI14CommandDetailsLb0EEC2Ev, symObjAddr: 0x28DC, symBinAddr: 0x100019920, symSize: 0x2C }
  - { offsetInCU: 0x1250F, offset: 0x6AE04, size: 0x8, addend: 0x0, symName: __ZNSt3__124__optional_destruct_baseI14CommandDetailsLb1EEC2B8ue170006Ev, symObjAddr: 0x2908, symBinAddr: 0x10001994C, symSize: 0x1C }
  - { offsetInCU: 0x12539, offset: 0x6AE2E, size: 0x8, addend: 0x0, symName: __ZNSt3__110unique_ptrI8ToolModeNS_14default_deleteIS1_EEEC2B8ue170006ILb1EvEEPS1_, symObjAddr: 0x2ACC, symBinAddr: 0x100019968, symSize: 0x44 }
  - { offsetInCU: 0x1257C, offset: 0x6AE71, size: 0x8, addend: 0x0, symName: __ZNSt3__117__compressed_pairIP8ToolModeNS_14default_deleteIS1_EEEC1B8ue170006IRS2_NS_16__value_init_tagEEEOT_OT0_, symObjAddr: 0x2B10, symBinAddr: 0x1000199AC, symSize: 0x3C }
  - { offsetInCU: 0x125D4, offset: 0x6AEC9, size: 0x8, addend: 0x0, symName: __ZNSt3__117__compressed_pairIP8ToolModeNS_14default_deleteIS1_EEEC2B8ue170006IRS2_NS_16__value_init_tagEEEOT_OT0_, symObjAddr: 0x2B4C, symBinAddr: 0x1000199E8, symSize: 0x40 }
  - { offsetInCU: 0x1262C, offset: 0x6AF21, size: 0x8, addend: 0x0, symName: __ZNSt3__122__compressed_pair_elemIP8ToolModeLi0ELb0EEC2B8ue170006IRS2_vEEOT_, symObjAddr: 0x2B8C, symBinAddr: 0x100019A28, symSize: 0x24 }
  - { offsetInCU: 0x1266E, offset: 0x6AF63, size: 0x8, addend: 0x0, symName: __ZNSt3__122__compressed_pair_elemINS_14default_deleteI8ToolModeEELi1ELb1EEC2B8ue170006ENS_16__value_init_tagE, symObjAddr: 0x2BB0, symBinAddr: 0x100019A4C, symSize: 0x14 }
  - { offsetInCU: 0x126A3, offset: 0x6AF98, size: 0x8, addend: 0x0, symName: __ZNSt3__110unique_ptrI8ToolModeNS_14default_deleteIS1_EEED2B8ue170006Ev, symObjAddr: 0x2BC4, symBinAddr: 0x100019A60, symSize: 0x30 }
  - { offsetInCU: 0x126CD, offset: 0x6AFC2, size: 0x8, addend: 0x0, symName: __ZNSt3__110unique_ptrI8ToolModeNS_14default_deleteIS1_EEE5resetB8ue170006EPS1_, symObjAddr: 0x2BF4, symBinAddr: 0x100019A90, symSize: 0x78 }
  - { offsetInCU: 0x12711, offset: 0x6B006, size: 0x8, addend: 0x0, symName: __ZNSt3__117__compressed_pairIP8ToolModeNS_14default_deleteIS1_EEE5firstB8ue170006Ev, symObjAddr: 0x2C6C, symBinAddr: 0x100019B08, symSize: 0x24 }
  - { offsetInCU: 0x12737, offset: 0x6B02C, size: 0x8, addend: 0x0, symName: __ZNSt3__117__compressed_pairIP8ToolModeNS_14default_deleteIS1_EEE6secondB8ue170006Ev, symObjAddr: 0x2C90, symBinAddr: 0x100019B2C, symSize: 0x24 }
  - { offsetInCU: 0x1275D, offset: 0x6B052, size: 0x8, addend: 0x0, symName: __ZNKSt3__114default_deleteI8ToolModeEclB8ue170006EPS1_, symObjAddr: 0x2CB4, symBinAddr: 0x100019B50, symSize: 0x4C }
  - { offsetInCU: 0x12791, offset: 0x6B086, size: 0x8, addend: 0x0, symName: __ZNSt3__122__compressed_pair_elemIP8ToolModeLi0ELb0EE5__getB8ue170006Ev, symObjAddr: 0x2D00, symBinAddr: 0x100019B9C, symSize: 0x14 }
  - { offsetInCU: 0x127B7, offset: 0x6B0AC, size: 0x8, addend: 0x0, symName: __ZNSt3__122__compressed_pair_elemINS_14default_deleteI8ToolModeEELi1ELb1EE5__getB8ue170006Ev, symObjAddr: 0x2D14, symBinAddr: 0x100019BB0, symSize: 0x14 }
  - { offsetInCU: 0x127DD, offset: 0x6B0D2, size: 0x8, addend: 0x0, symName: __ZNSt3__110unique_ptrI8ToolModeNS_14default_deleteIS1_EEE7releaseB8ue170006Ev, symObjAddr: 0x2D28, symBinAddr: 0x100019BC4, symSize: 0x44 }
  - { offsetInCU: 0x12812, offset: 0x6B107, size: 0x8, addend: 0x0, symName: __ZNSt3__110unique_ptrI8ToolModeNS_14default_deleteIS1_EEE11get_deleterB8ue170006Ev, symObjAddr: 0x2D6C, symBinAddr: 0x100019C08, symSize: 0x24 }
  - { offsetInCU: 0x1283D, offset: 0x6B132, size: 0x8, addend: 0x0, symName: __ZNSt3__114default_deleteI10EditorModeEC1B8ue170006I8ToolModeEERKNS0_IT_EEPNS_9enable_ifIXsr14is_convertibleIPS5_PS1_EE5valueEvE4typeE, symObjAddr: 0x2D90, symBinAddr: 0x100019C2C, symSize: 0x3C }
  - { offsetInCU: 0x12886, offset: 0x6B17B, size: 0x8, addend: 0x0, symName: __ZNSt3__114default_deleteI10EditorModeEC2B8ue170006I8ToolModeEERKNS0_IT_EEPNS_9enable_ifIXsr14is_convertibleIPS5_PS1_EE5valueEvE4typeE, symObjAddr: 0x2DCC, symBinAddr: 0x100019C68, symSize: 0x1C }
  - { offsetInCU: 0x128CF, offset: 0x6B1C4, size: 0x8, addend: 0x0, symName: __ZN10TypingModeC1Ev, symObjAddr: 0x2DE8, symBinAddr: 0x100019C84, symSize: 0x2C }
  - { offsetInCU: 0x128F9, offset: 0x6B1EE, size: 0x8, addend: 0x0, symName: __ZNSt3__110unique_ptrI10TypingModeNS_14default_deleteIS1_EEEC1B8ue170006ILb1EvEEPS1_, symObjAddr: 0x2E14, symBinAddr: 0x100019CB0, symSize: 0x34 }
  - { offsetInCU: 0x1293C, offset: 0x6B231, size: 0x8, addend: 0x0, symName: __ZN10TypingModeC2Ev, symObjAddr: 0x2E48, symBinAddr: 0x100019CE4, symSize: 0x44 }
  - { offsetInCU: 0x12966, offset: 0x6B25B, size: 0x8, addend: 0x0, symName: __ZNSt3__110unique_ptrI10TypingModeNS_14default_deleteIS1_EEEC2B8ue170006ILb1EvEEPS1_, symObjAddr: 0x2E8C, symBinAddr: 0x100019D28, symSize: 0x44 }
  - { offsetInCU: 0x129A9, offset: 0x6B29E, size: 0x8, addend: 0x0, symName: __ZNSt3__117__compressed_pairIP10TypingModeNS_14default_deleteIS1_EEEC1B8ue170006IRS2_NS_16__value_init_tagEEEOT_OT0_, symObjAddr: 0x2ED0, symBinAddr: 0x100019D6C, symSize: 0x3C }
  - { offsetInCU: 0x12A01, offset: 0x6B2F6, size: 0x8, addend: 0x0, symName: __ZNSt3__117__compressed_pairIP10TypingModeNS_14default_deleteIS1_EEEC2B8ue170006IRS2_NS_16__value_init_tagEEEOT_OT0_, symObjAddr: 0x2F0C, symBinAddr: 0x100019DA8, symSize: 0x40 }
  - { offsetInCU: 0x12A59, offset: 0x6B34E, size: 0x8, addend: 0x0, symName: __ZNSt3__122__compressed_pair_elemIP10TypingModeLi0ELb0EEC2B8ue170006IRS2_vEEOT_, symObjAddr: 0x2F4C, symBinAddr: 0x100019DE8, symSize: 0x24 }
  - { offsetInCU: 0x12A9B, offset: 0x6B390, size: 0x8, addend: 0x0, symName: __ZNSt3__122__compressed_pair_elemINS_14default_deleteI10TypingModeEELi1ELb1EEC2B8ue170006ENS_16__value_init_tagE, symObjAddr: 0x2F70, symBinAddr: 0x100019E0C, symSize: 0x14 }
  - { offsetInCU: 0x12AD0, offset: 0x6B3C5, size: 0x8, addend: 0x0, symName: __ZNSt3__110unique_ptrI10TypingModeNS_14default_deleteIS1_EEED2B8ue170006Ev, symObjAddr: 0x2F84, symBinAddr: 0x100019E20, symSize: 0x30 }
  - { offsetInCU: 0x12AFA, offset: 0x6B3EF, size: 0x8, addend: 0x0, symName: __ZNSt3__110unique_ptrI10TypingModeNS_14default_deleteIS1_EEE5resetB8ue170006EPS1_, symObjAddr: 0x2FB4, symBinAddr: 0x100019E50, symSize: 0x78 }
  - { offsetInCU: 0x12B3E, offset: 0x6B433, size: 0x8, addend: 0x0, symName: __ZNSt3__117__compressed_pairIP10TypingModeNS_14default_deleteIS1_EEE5firstB8ue170006Ev, symObjAddr: 0x302C, symBinAddr: 0x100019EC8, symSize: 0x24 }
  - { offsetInCU: 0x12B64, offset: 0x6B459, size: 0x8, addend: 0x0, symName: __ZNSt3__117__compressed_pairIP10TypingModeNS_14default_deleteIS1_EEE6secondB8ue170006Ev, symObjAddr: 0x3050, symBinAddr: 0x100019EEC, symSize: 0x24 }
  - { offsetInCU: 0x12B8A, offset: 0x6B47F, size: 0x8, addend: 0x0, symName: __ZNKSt3__114default_deleteI10TypingModeEclB8ue170006EPS1_, symObjAddr: 0x3074, symBinAddr: 0x100019F10, symSize: 0x4C }
  - { offsetInCU: 0x12BBE, offset: 0x6B4B3, size: 0x8, addend: 0x0, symName: __ZNSt3__122__compressed_pair_elemIP10TypingModeLi0ELb0EE5__getB8ue170006Ev, symObjAddr: 0x30C0, symBinAddr: 0x100019F5C, symSize: 0x14 }
  - { offsetInCU: 0x12BE4, offset: 0x6B4D9, size: 0x8, addend: 0x0, symName: __ZNSt3__122__compressed_pair_elemINS_14default_deleteI10TypingModeEELi1ELb1EE5__getB8ue170006Ev, symObjAddr: 0x30D4, symBinAddr: 0x100019F70, symSize: 0x14 }
  - { offsetInCU: 0x12C0A, offset: 0x6B4FF, size: 0x8, addend: 0x0, symName: __ZNSt3__110unique_ptrI10TypingModeNS_14default_deleteIS1_EEE7releaseB8ue170006Ev, symObjAddr: 0x30E8, symBinAddr: 0x100019F84, symSize: 0x44 }
  - { offsetInCU: 0x12C3F, offset: 0x6B534, size: 0x8, addend: 0x0, symName: __ZNSt3__110unique_ptrI10TypingModeNS_14default_deleteIS1_EEE11get_deleterB8ue170006Ev, symObjAddr: 0x312C, symBinAddr: 0x100019FC8, symSize: 0x24 }
  - { offsetInCU: 0x12C65, offset: 0x6B55A, size: 0x8, addend: 0x0, symName: __ZNSt3__114default_deleteI10EditorModeEC1B8ue170006I10TypingModeEERKNS0_IT_EEPNS_9enable_ifIXsr14is_convertibleIPS5_PS1_EE5valueEvE4typeE, symObjAddr: 0x3150, symBinAddr: 0x100019FEC, symSize: 0x3C }
  - { offsetInCU: 0x12CAE, offset: 0x6B5A3, size: 0x8, addend: 0x0, symName: __ZNSt3__114default_deleteI10EditorModeEC2B8ue170006I10TypingModeEERKNS0_IT_EEPNS_9enable_ifIXsr14is_convertibleIPS5_PS1_EE5valueEvE4typeE, symObjAddr: 0x318C, symBinAddr: 0x10001A028, symSize: 0x1C }
  - { offsetInCU: 0x12CF7, offset: 0x6B5EC, size: 0x8, addend: 0x0, symName: __ZNKSt3__117__compressed_pairIP10EditorModeNS_14default_deleteIS1_EEE5firstB8ue170006Ev, symObjAddr: 0x31A8, symBinAddr: 0x10001A044, symSize: 0x24 }
  - { offsetInCU: 0x12D1D, offset: 0x6B612, size: 0x8, addend: 0x0, symName: __ZNKSt3__122__compressed_pair_elemIP10EditorModeLi0ELb0EE5__getB8ue170006Ev, symObjAddr: 0x31CC, symBinAddr: 0x10001A068, symSize: 0x14 }
  - { offsetInCU: 0xDB35, offset: 0x791EE, size: 0x8, addend: 0x0, symName: __ZNSt3__13maxB8ue170006IiEERKT_S3_S3_, symObjAddr: 0x14C8, symBinAddr: 0x10001B2F0, symSize: 0x2C }
  - { offsetInCU: 0xDB78, offset: 0x79231, size: 0x8, addend: 0x0, symName: __ZNSt3__111make_sharedB8ue170006I12DeleteActionJR8PositionS3_EvEENS_10shared_ptrIT_EEDpOT0_, symObjAddr: 0x1570, symBinAddr: 0x10001B374, symSize: 0x48 }
  - { offsetInCU: 0xDDEB, offset: 0x794A4, size: 0x8, addend: 0x0, symName: __ZNSt3__111make_sharedB8ue170006I24ParagraphSplittingActionJEvEENS_10shared_ptrIT_EEDpOT0_, symObjAddr: 0x1618, symBinAddr: 0x10001B41C, symSize: 0x38 }
  - { offsetInCU: 0xE035, offset: 0x796EE, size: 0x8, addend: 0x0, symName: __ZNSt3__111make_sharedB8ue170006I12InsertActionJRNS_6vectorINS_12basic_stringIcNS_11char_traitsIcEENS_9allocatorIcEEEENS6_IS8_EEEE8PositionEvEENS_10shared_ptrIT_EEDpOT0_, symObjAddr: 0x1DE0, symBinAddr: 0x10001B938, symSize: 0x48 }
  - { offsetInCU: 0xE320, offset: 0x799D9, size: 0x8, addend: 0x0, symName: __ZNSt3__13maxB8ue170006IiNS_6__lessIvvEEEERKT_S5_S5_T0_, symObjAddr: 0x3BFC, symBinAddr: 0x10001BA78, symSize: 0x54 }
  - { offsetInCU: 0xE37A, offset: 0x79A33, size: 0x8, addend: 0x0, symName: __ZNSt3__115allocate_sharedB8ue170006I12DeleteActionNS_9allocatorIS1_EEJR8PositionS5_EvEENS_10shared_ptrIT_EERKT0_DpOT1_, symObjAddr: 0x6EC8, symBinAddr: 0x10001BC50, symSize: 0xA0 }
  - { offsetInCU: 0xE744, offset: 0x79DFD, size: 0x8, addend: 0x0, symName: __ZNSt3__112construct_atB8ue170006I12DeleteActionJR8PositionS3_EPS1_EEPT_S6_DpOT0_, symObjAddr: 0x75BC, symBinAddr: 0x10001C344, symSize: 0x5C }
  - { offsetInCU: 0xE7C9, offset: 0x79E82, size: 0x8, addend: 0x0, symName: __ZNSt3__110destroy_atB8ue170006I12DeleteActionLi0EEEvPT_, symObjAddr: 0x76B4, symBinAddr: 0x10001C43C, symSize: 0x24 }
  - { offsetInCU: 0xE800, offset: 0x79EB9, size: 0x8, addend: 0x0, symName: __ZNSt3__112__destroy_atB8ue170006I12DeleteActionLi0EEEvPT_, symObjAddr: 0x76D8, symBinAddr: 0x10001C460, symSize: 0x2C }
  - { offsetInCU: 0xE86A, offset: 0x79F23, size: 0x8, addend: 0x0, symName: __ZNSt3__115allocate_sharedB8ue170006I24ParagraphSplittingActionNS_9allocatorIS1_EEJEvEENS_10shared_ptrIT_EERKT0_DpOT1_, symObjAddr: 0x7984, symBinAddr: 0x10001C70C, symSize: 0x90 }
  - { offsetInCU: 0xEBF6, offset: 0x7A2AF, size: 0x8, addend: 0x0, symName: __ZNSt3__112construct_atB8ue170006I24ParagraphSplittingActionJEPS1_EEPT_S4_DpOT0_, symObjAddr: 0x8034, symBinAddr: 0x10001CDBC, symSize: 0x38 }
  - { offsetInCU: 0xEC54, offset: 0x7A30D, size: 0x8, addend: 0x0, symName: __ZNSt3__110destroy_atB8ue170006I24ParagraphSplittingActionLi0EEEvPT_, symObjAddr: 0x81E8, symBinAddr: 0x10001CF70, symSize: 0x24 }
  - { offsetInCU: 0xEC8B, offset: 0x7A344, size: 0x8, addend: 0x0, symName: __ZNSt3__112__destroy_atB8ue170006I24ParagraphSplittingActionLi0EEEvPT_, symObjAddr: 0x820C, symBinAddr: 0x10001CF94, symSize: 0x2C }
  - { offsetInCU: 0xECF5, offset: 0x7A3AE, size: 0x8, addend: 0x0, symName: __ZNSt3__115allocate_sharedB8ue170006I12InsertActionNS_9allocatorIS1_EEJRNS_6vectorINS_12basic_stringIcNS_11char_traitsIcEENS2_IcEEEENS2_IS9_EEEE8PositionEvEENS_10shared_ptrIT_EERKT0_DpOT1_, symObjAddr: 0x99B4, symBinAddr: 0x10001D23C, symSize: 0xA0 }
  - { offsetInCU: 0xF0BF, offset: 0x7A778, size: 0x8, addend: 0x0, symName: __ZNSt3__112construct_atB8ue170006I12InsertActionJRNS_6vectorINS_12basic_stringIcNS_11char_traitsIcEENS_9allocatorIcEEEENS6_IS8_EEEE8PositionEPS1_EEPT_SF_DpOT0_, symObjAddr: 0xA0A4, symBinAddr: 0x10001D92C, symSize: 0x90 }
  - { offsetInCU: 0xF144, offset: 0x7A7FD, size: 0x8, addend: 0x0, symName: __ZNSt3__110destroy_atB8ue170006I12InsertActionLi0EEEvPT_, symObjAddr: 0xA768, symBinAddr: 0x10001DA58, symSize: 0x24 }
  - { offsetInCU: 0xF17B, offset: 0x7A834, size: 0x8, addend: 0x0, symName: __ZNSt3__112__destroy_atB8ue170006I12InsertActionLi0EEEvPT_, symObjAddr: 0xA78C, symBinAddr: 0x10001DA7C, symSize: 0x2C }
  - { offsetInCU: 0x12172, offset: 0x7D82B, size: 0x8, addend: 0x0, symName: __ZN10TypingMode18parseMouseMovementE8Position10ScreenSizeS1_, symObjAddr: 0x0, symBinAddr: 0x10001A07C, symSize: 0x2CC }
  - { offsetInCU: 0x121EE, offset: 0x7D8A7, size: 0x8, addend: 0x0, symName: __ZN10TypingMode15parseSpecialKeyE10SpecialKey10ScreenSizeRK8SettingsRK11EditorState, symObjAddr: 0x478, symBinAddr: 0x10001A348, symSize: 0xF4C }
  - { offsetInCU: 0x12276, offset: 0x7D92F, size: 0x8, addend: 0x0, symName: __ZNK11EditorState9getCursorEv, symObjAddr: 0x1490, symBinAddr: 0x10001B2B8, symSize: 0x18 }
  - { offsetInCU: 0x1229C, offset: 0x7D955, size: 0x8, addend: 0x0, symName: __ZNK6Cursor11getPositionEv, symObjAddr: 0x14A8, symBinAddr: 0x10001B2D0, symSize: 0x20 }
  - { offsetInCU: 0x122C2, offset: 0x7D97B, size: 0x8, addend: 0x0, symName: __ZNK11EditorState12getParagraphEm, symObjAddr: 0x14F4, symBinAddr: 0x10001B31C, symSize: 0x2C }
  - { offsetInCU: 0x122F6, offset: 0x7D9AF, size: 0x8, addend: 0x0, symName: __ZNSt3__18optionalI8ModeTypeEC1B8ue170006ENS_9nullopt_tE, symObjAddr: 0x1544, symBinAddr: 0x10001B348, symSize: 0x2C }
  - { offsetInCU: 0x1234F, offset: 0x7DA08, size: 0x8, addend: 0x0, symName: __ZNSt3__110shared_ptrI6ActionEC1B8ue170006I12DeleteActionvEEONS0_IT_EE, symObjAddr: 0x15B8, symBinAddr: 0x10001B3BC, symSize: 0x34 }
  - { offsetInCU: 0x12392, offset: 0x7DA4B, size: 0x8, addend: 0x0, symName: __ZNSt3__110shared_ptrI12DeleteActionED1B8ue170006Ev, symObjAddr: 0x15EC, symBinAddr: 0x10001B3F0, symSize: 0x2C }
  - { offsetInCU: 0x123DF, offset: 0x7DA98, size: 0x8, addend: 0x0, symName: __ZNSt3__110shared_ptrI6ActionEC1B8ue170006I24ParagraphSplittingActionvEEONS0_IT_EE, symObjAddr: 0x1650, symBinAddr: 0x10001B454, symSize: 0x34 }
  - { offsetInCU: 0x12422, offset: 0x7DADB, size: 0x8, addend: 0x0, symName: __ZNSt3__110shared_ptrI24ParagraphSplittingActionED1B8ue170006Ev, symObjAddr: 0x1684, symBinAddr: 0x10001B488, symSize: 0x2C }
  - { offsetInCU: 0x1245B, offset: 0x7DB14, size: 0x8, addend: 0x0, symName: __ZN10TypingMode10parseInputE5Input14ParsingContext, symObjAddr: 0x1824, symBinAddr: 0x10001B4B4, symSize: 0x484 }
  - { offsetInCU: 0x124DD, offset: 0x7DB96, size: 0x8, addend: 0x0, symName: __ZNSt3__110shared_ptrI6ActionEC1B8ue170006I12InsertActionvEEONS0_IT_EE, symObjAddr: 0x1E28, symBinAddr: 0x10001B980, symSize: 0x34 }
  - { offsetInCU: 0x12520, offset: 0x7DBD9, size: 0x8, addend: 0x0, symName: __ZNSt3__110shared_ptrI12InsertActionED1B8ue170006Ev, symObjAddr: 0x1E5C, symBinAddr: 0x10001B9B4, symSize: 0x2C }
  - { offsetInCU: 0x1254A, offset: 0x7DC03, size: 0x8, addend: 0x0, symName: __ZN10TypingModeD1Ev, symObjAddr: 0x1EB4, symBinAddr: 0x10001B9E0, symSize: 0x2C }
  - { offsetInCU: 0x12574, offset: 0x7DC2D, size: 0x8, addend: 0x0, symName: __ZN10TypingModeD0Ev, symObjAddr: 0x1EE0, symBinAddr: 0x10001BA0C, symSize: 0x30 }
  - { offsetInCU: 0x1259E, offset: 0x7DC57, size: 0x8, addend: 0x0, symName: __ZNK10TypingMode12getModeLabelEv, symObjAddr: 0x1F10, symBinAddr: 0x10001BA3C, symSize: 0x3C }
  - { offsetInCU: 0x125E7, offset: 0x7DCA0, size: 0x8, addend: 0x0, symName: __ZNKSt3__16__lessIvvEclB8ue170006IiiEEbRKT_RKT0_, symObjAddr: 0x3C50, symBinAddr: 0x10001BACC, symSize: 0x34 }
  - { offsetInCU: 0x1263B, offset: 0x7DCF4, size: 0x8, addend: 0x0, symName: __ZNSt3__18optionalI8ModeTypeEC2B8ue170006ENS_9nullopt_tE, symObjAddr: 0x3DA4, symBinAddr: 0x10001BB00, symSize: 0x2C }
  - { offsetInCU: 0x12671, offset: 0x7DD2A, size: 0x8, addend: 0x0, symName: __ZNSt3__127__optional_move_assign_baseI8ModeTypeLb1EEC2Ev, symObjAddr: 0x3DD0, symBinAddr: 0x10001BB2C, symSize: 0x2C }
  - { offsetInCU: 0x1269E, offset: 0x7DD57, size: 0x8, addend: 0x0, symName: __ZNSt3__127__optional_copy_assign_baseI8ModeTypeLb1EEC2Ev, symObjAddr: 0x3DFC, symBinAddr: 0x10001BB58, symSize: 0x2C }
  - { offsetInCU: 0x126CB, offset: 0x7DD84, size: 0x8, addend: 0x0, symName: __ZNSt3__120__optional_move_baseI8ModeTypeLb1EEC2Ev, symObjAddr: 0x3E28, symBinAddr: 0x10001BB84, symSize: 0x2C }
  - { offsetInCU: 0x126F8, offset: 0x7DDB1, size: 0x8, addend: 0x0, symName: __ZNSt3__120__optional_copy_baseI8ModeTypeLb1EEC2Ev, symObjAddr: 0x3E54, symBinAddr: 0x10001BBB0, symSize: 0x2C }
  - { offsetInCU: 0x12725, offset: 0x7DDDE, size: 0x8, addend: 0x0, symName: __ZNSt3__123__optional_storage_baseI8ModeTypeLb0EEC2Ev, symObjAddr: 0x3E80, symBinAddr: 0x10001BBDC, symSize: 0x2C }
  - { offsetInCU: 0x12752, offset: 0x7DE0B, size: 0x8, addend: 0x0, symName: __ZNSt3__124__optional_destruct_baseI8ModeTypeLb1EEC2B8ue170006Ev, symObjAddr: 0x3EAC, symBinAddr: 0x10001BC08, symSize: 0x1C }
  - { offsetInCU: 0x1279F, offset: 0x7DE58, size: 0x8, addend: 0x0, symName: __ZN10TypingModeD2Ev, symObjAddr: 0x5758, symBinAddr: 0x10001BC24, symSize: 0x2C }
  - { offsetInCU: 0x127CE, offset: 0x7DE87, size: 0x8, addend: 0x0, symName: __ZNSt3__19allocatorI12DeleteActionEC1B8ue170006Ev, symObjAddr: 0x6F68, symBinAddr: 0x10001BCF0, symSize: 0x2C }
  - { offsetInCU: 0x12825, offset: 0x7DEDE, size: 0x8, addend: 0x0, symName: __ZNSt3__118__allocation_guardINS_9allocatorINS_20__shared_ptr_emplaceI12DeleteActionNS1_IS3_EEEEEEEC1B8ue170006IS4_EET_m, symObjAddr: 0x6F94, symBinAddr: 0x10001BD1C, symSize: 0x34 }
  - { offsetInCU: 0x12874, offset: 0x7DF2D, size: 0x8, addend: 0x0, symName: __ZNKSt3__118__allocation_guardINS_9allocatorINS_20__shared_ptr_emplaceI12DeleteActionNS1_IS3_EEEEEEE5__getB8ue170006Ev, symObjAddr: 0x6FC8, symBinAddr: 0x10001BD50, symSize: 0x18 }
  - { offsetInCU: 0x1289A, offset: 0x7DF53, size: 0x8, addend: 0x0, symName: __ZNSt3__120__shared_ptr_emplaceI12DeleteActionNS_9allocatorIS1_EEEC1B8ue170006IJR8PositionS7_EEES3_DpOT_, symObjAddr: 0x6FE0, symBinAddr: 0x10001BD68, symSize: 0x3C }
  - { offsetInCU: 0x12901, offset: 0x7DFBA, size: 0x8, addend: 0x0, symName: __ZNSt3__118__allocation_guardINS_9allocatorINS_20__shared_ptr_emplaceI12DeleteActionNS1_IS3_EEEEEEE13__release_ptrB8ue170006Ev, symObjAddr: 0x701C, symBinAddr: 0x10001BDA4, symSize: 0x24 }
  - { offsetInCU: 0x12936, offset: 0x7DFEF, size: 0x8, addend: 0x0, symName: __ZNSt3__110shared_ptrI12DeleteActionE27__create_with_control_blockB8ue170006IS1_NS_20__shared_ptr_emplaceIS1_NS_9allocatorIS1_EEEEEES2_PT_PT0_, symObjAddr: 0x7040, symBinAddr: 0x10001BDC8, symSize: 0xA4 }
  - { offsetInCU: 0x1298B, offset: 0x7E044, size: 0x8, addend: 0x0, symName: __ZNSt3__120__shared_ptr_emplaceI12DeleteActionNS_9allocatorIS1_EEE10__get_elemB8ue170006Ev, symObjAddr: 0x70E4, symBinAddr: 0x10001BE6C, symSize: 0x28 }
  - { offsetInCU: 0x129B1, offset: 0x7E06A, size: 0x8, addend: 0x0, symName: __ZNSt3__118__allocation_guardINS_9allocatorINS_20__shared_ptr_emplaceI12DeleteActionNS1_IS3_EEEEEEED1B8ue170006Ev, symObjAddr: 0x710C, symBinAddr: 0x10001BE94, symSize: 0x2C }
  - { offsetInCU: 0x129DB, offset: 0x7E094, size: 0x8, addend: 0x0, symName: __ZNSt3__118__allocation_guardINS_9allocatorINS_20__shared_ptr_emplaceI12DeleteActionNS1_IS3_EEEEEEEC2B8ue170006IS4_EET_m, symObjAddr: 0x7138, symBinAddr: 0x10001BEC0, symSize: 0x50 }
  - { offsetInCU: 0x12A2A, offset: 0x7E0E3, size: 0x8, addend: 0x0, symName: __ZNSt3__19allocatorINS_20__shared_ptr_emplaceI12DeleteActionNS0_IS2_EEEEEC1B8ue170006IS2_EERKNS0_IT_EE, symObjAddr: 0x7188, symBinAddr: 0x10001BF10, symSize: 0x34 }
  - { offsetInCU: 0x12A68, offset: 0x7E121, size: 0x8, addend: 0x0, symName: __ZNSt3__116allocator_traitsINS_9allocatorINS_20__shared_ptr_emplaceI12DeleteActionNS1_IS3_EEEEEEE8allocateB8ue170006ERS6_m, symObjAddr: 0x71BC, symBinAddr: 0x10001BF44, symSize: 0x2C }
  - { offsetInCU: 0x12A9B, offset: 0x7E154, size: 0x8, addend: 0x0, symName: __ZNSt3__19allocatorINS_20__shared_ptr_emplaceI12DeleteActionNS0_IS2_EEEEEC2B8ue170006IS2_EERKNS0_IT_EE, symObjAddr: 0x71E8, symBinAddr: 0x10001BF70, symSize: 0x30 }
  - { offsetInCU: 0x12AD9, offset: 0x7E192, size: 0x8, addend: 0x0, symName: __ZNSt3__116__non_trivial_ifILb1ENS_9allocatorINS_20__shared_ptr_emplaceI12DeleteActionNS1_IS3_EEEEEEEC2B8ue170006Ev, symObjAddr: 0x7218, symBinAddr: 0x10001BFA0, symSize: 0x14 }
  - { offsetInCU: 0x12B03, offset: 0x7E1BC, size: 0x8, addend: 0x0, symName: __ZNSt3__19allocatorINS_20__shared_ptr_emplaceI12DeleteActionNS0_IS2_EEEEE8allocateB8ue170006Em, symObjAddr: 0x722C, symBinAddr: 0x10001BFB4, symSize: 0x5C }
  - { offsetInCU: 0x12B41, offset: 0x7E1FA, size: 0x8, addend: 0x0, symName: __ZNSt3__116allocator_traitsINS_9allocatorINS_20__shared_ptr_emplaceI12DeleteActionNS1_IS3_EEEEEEE8max_sizeB8ue170006IS6_vvEEmRKS6_, symObjAddr: 0x7288, symBinAddr: 0x10001C010, symSize: 0x28 }
  - { offsetInCU: 0x12B6D, offset: 0x7E226, size: 0x8, addend: 0x0, symName: __ZNSt3__120__shared_ptr_emplaceI12DeleteActionNS_9allocatorIS1_EEEC2B8ue170006IJR8PositionS7_EEES3_DpOT_, symObjAddr: 0x72B0, symBinAddr: 0x10001C038, symSize: 0xD0 }
  - { offsetInCU: 0x12BF5, offset: 0x7E2AE, size: 0x8, addend: 0x0, symName: __ZNSt3__120__shared_ptr_emplaceI12DeleteActionNS_9allocatorIS1_EEE8_StorageC1B8ue170006EOS3_, symObjAddr: 0x7380, symBinAddr: 0x10001C108, symSize: 0x34 }
  - { offsetInCU: 0x12C2E, offset: 0x7E2E7, size: 0x8, addend: 0x0, symName: __ZNSt3__120__shared_ptr_emplaceI12DeleteActionNS_9allocatorIS1_EEE11__get_allocB8ue170006Ev, symObjAddr: 0x73B4, symBinAddr: 0x10001C13C, symSize: 0x28 }
  - { offsetInCU: 0x12C59, offset: 0x7E312, size: 0x8, addend: 0x0, symName: __ZNSt3__116allocator_traitsINS_9allocatorI12DeleteActionEEE9constructB8ue170006IS2_JR8PositionS7_EvvEEvRS3_PT_DpOT0_, symObjAddr: 0x73DC, symBinAddr: 0x10001C164, symSize: 0x38 }
  - { offsetInCU: 0x12CC2, offset: 0x7E37B, size: 0x8, addend: 0x0, symName: __ZNSt3__120__shared_ptr_emplaceI12DeleteActionNS_9allocatorIS1_EEE8_StorageD1B8ue170006Ev, symObjAddr: 0x7414, symBinAddr: 0x10001C19C, symSize: 0x2C }
  - { offsetInCU: 0x12CEC, offset: 0x7E3A5, size: 0x8, addend: 0x0, symName: __ZNSt3__120__shared_ptr_emplaceI12DeleteActionNS_9allocatorIS1_EEED1Ev, symObjAddr: 0x7440, symBinAddr: 0x10001C1C8, symSize: 0x2C }
  - { offsetInCU: 0x12D19, offset: 0x7E3D2, size: 0x8, addend: 0x0, symName: __ZNSt3__120__shared_ptr_emplaceI12DeleteActionNS_9allocatorIS1_EEED0Ev, symObjAddr: 0x746C, symBinAddr: 0x10001C1F4, symSize: 0x30 }
  - { offsetInCU: 0x12D46, offset: 0x7E3FF, size: 0x8, addend: 0x0, symName: __ZNSt3__120__shared_ptr_emplaceI12DeleteActionNS_9allocatorIS1_EEE16__on_zero_sharedEv, symObjAddr: 0x749C, symBinAddr: 0x10001C224, symSize: 0x44 }
  - { offsetInCU: 0x12D8D, offset: 0x7E446, size: 0x8, addend: 0x0, symName: __ZNSt3__120__shared_ptr_emplaceI12DeleteActionNS_9allocatorIS1_EEE21__on_zero_shared_weakEv, symObjAddr: 0x74E0, symBinAddr: 0x10001C268, symSize: 0x5C }
  - { offsetInCU: 0x12DCE, offset: 0x7E487, size: 0x8, addend: 0x0, symName: __ZNSt3__120__shared_ptr_emplaceI12DeleteActionNS_9allocatorIS1_EEE8_StorageC2B8ue170006EOS3_, symObjAddr: 0x753C, symBinAddr: 0x10001C2C4, symSize: 0x30 }
  - { offsetInCU: 0x12E07, offset: 0x7E4C0, size: 0x8, addend: 0x0, symName: __ZNSt3__120__shared_ptr_emplaceI12DeleteActionNS_9allocatorIS1_EEE8_Storage11__get_allocB8ue170006Ev, symObjAddr: 0x756C, symBinAddr: 0x10001C2F4, symSize: 0x3C }
  - { offsetInCU: 0x12E5A, offset: 0x7E513, size: 0x8, addend: 0x0, symName: __ZNSt3__117__compressed_pairINS_9allocatorI12DeleteActionEES2_E16__get_first_baseB8ue170006EPS4_, symObjAddr: 0x75A8, symBinAddr: 0x10001C330, symSize: 0x14 }
  - { offsetInCU: 0x12E7D, offset: 0x7E536, size: 0x8, addend: 0x0, symName: __ZNSt3__120__shared_ptr_emplaceI12DeleteActionNS_9allocatorIS1_EEE8_StorageD2B8ue170006Ev, symObjAddr: 0x7618, symBinAddr: 0x10001C3A0, symSize: 0x2C }
  - { offsetInCU: 0x12EA7, offset: 0x7E560, size: 0x8, addend: 0x0, symName: __ZNSt3__120__shared_ptr_emplaceI12DeleteActionNS_9allocatorIS1_EEED2Ev, symObjAddr: 0x7644, symBinAddr: 0x10001C3CC, symSize: 0x48 }
  - { offsetInCU: 0x12ED4, offset: 0x7E58D, size: 0x8, addend: 0x0, symName: __ZNSt3__116allocator_traitsINS_9allocatorI12DeleteActionEEE7destroyB8ue170006IS2_vvEEvRS3_PT_, symObjAddr: 0x768C, symBinAddr: 0x10001C414, symSize: 0x28 }
  - { offsetInCU: 0x12F0F, offset: 0x7E5C8, size: 0x8, addend: 0x0, symName: __ZNSt3__116allocator_traitsINS_9allocatorINS_20__shared_ptr_emplaceI12DeleteActionNS1_IS3_EEEEEEE10deallocateB8ue170006ERS6_PS5_m, symObjAddr: 0x7704, symBinAddr: 0x10001C48C, symSize: 0x34 }
  - { offsetInCU: 0x12F56, offset: 0x7E60F, size: 0x8, addend: 0x0, symName: __ZNSt3__114pointer_traitsIPNS_20__shared_ptr_emplaceI12DeleteActionNS_9allocatorIS2_EEEEE10pointer_toB8ue170006ERS5_, symObjAddr: 0x7738, symBinAddr: 0x10001C4C0, symSize: 0x14 }
  - { offsetInCU: 0x12F79, offset: 0x7E632, size: 0x8, addend: 0x0, symName: __ZNSt3__19allocatorINS_20__shared_ptr_emplaceI12DeleteActionNS0_IS2_EEEEE10deallocateB8ue170006EPS4_m, symObjAddr: 0x774C, symBinAddr: 0x10001C4D4, symSize: 0x44 }
  - { offsetInCU: 0x12FBB, offset: 0x7E674, size: 0x8, addend: 0x0, symName: __ZNSt3__110shared_ptrI12DeleteActionEC1B8ue170006Ev, symObjAddr: 0x7790, symBinAddr: 0x10001C518, symSize: 0x2C }
  - { offsetInCU: 0x12FE5, offset: 0x7E69E, size: 0x8, addend: 0x0, symName: __ZNSt3__110shared_ptrI12DeleteActionE18__enable_weak_thisB8ue170006Ez, symObjAddr: 0x77BC, symBinAddr: 0x10001C544, symSize: 0x10 }
  - { offsetInCU: 0x1300C, offset: 0x7E6C5, size: 0x8, addend: 0x0, symName: __ZNSt3__110shared_ptrI12DeleteActionEC2B8ue170006Ev, symObjAddr: 0x77CC, symBinAddr: 0x10001C554, symSize: 0x1C }
  - { offsetInCU: 0x13036, offset: 0x7E6EF, size: 0x8, addend: 0x0, symName: __ZNSt3__120__shared_ptr_emplaceI12DeleteActionNS_9allocatorIS1_EEE8_Storage10__get_elemB8ue170006Ev, symObjAddr: 0x77E8, symBinAddr: 0x10001C570, symSize: 0x3C }
  - { offsetInCU: 0x13089, offset: 0x7E742, size: 0x8, addend: 0x0, symName: __ZNSt3__117__compressed_pairINS_9allocatorI12DeleteActionEES2_E17__get_second_baseB8ue170006EPS4_, symObjAddr: 0x7824, symBinAddr: 0x10001C5AC, symSize: 0x14 }
  - { offsetInCU: 0x130AC, offset: 0x7E765, size: 0x8, addend: 0x0, symName: __ZNSt3__118__allocation_guardINS_9allocatorINS_20__shared_ptr_emplaceI12DeleteActionNS1_IS3_EEEEEEED2B8ue170006Ev, symObjAddr: 0x7838, symBinAddr: 0x10001C5C0, symSize: 0x2C }
  - { offsetInCU: 0x130D6, offset: 0x7E78F, size: 0x8, addend: 0x0, symName: __ZNSt3__118__allocation_guardINS_9allocatorINS_20__shared_ptr_emplaceI12DeleteActionNS1_IS3_EEEEEEE9__destroyB8ue170006Ev, symObjAddr: 0x7864, symBinAddr: 0x10001C5EC, symSize: 0x4C }
  - { offsetInCU: 0x130FC, offset: 0x7E7B5, size: 0x8, addend: 0x0, symName: __ZNSt3__19allocatorI12DeleteActionEC2B8ue170006Ev, symObjAddr: 0x78B0, symBinAddr: 0x10001C638, symSize: 0x2C }
  - { offsetInCU: 0x13126, offset: 0x7E7DF, size: 0x8, addend: 0x0, symName: __ZNSt3__116__non_trivial_ifILb1ENS_9allocatorI12DeleteActionEEEC2B8ue170006Ev, symObjAddr: 0x78DC, symBinAddr: 0x10001C664, symSize: 0x14 }
  - { offsetInCU: 0x13150, offset: 0x7E809, size: 0x8, addend: 0x0, symName: __ZNSt3__110shared_ptrI12DeleteActionED2B8ue170006Ev, symObjAddr: 0x78F0, symBinAddr: 0x10001C678, symSize: 0x54 }
  - { offsetInCU: 0x1317A, offset: 0x7E833, size: 0x8, addend: 0x0, symName: __ZNSt3__110shared_ptrI6ActionEC2B8ue170006I12DeleteActionvEEONS0_IT_EE, symObjAddr: 0x7944, symBinAddr: 0x10001C6CC, symSize: 0x40 }
  - { offsetInCU: 0x131BD, offset: 0x7E876, size: 0x8, addend: 0x0, symName: __ZNSt3__19allocatorI24ParagraphSplittingActionEC1B8ue170006Ev, symObjAddr: 0x7A14, symBinAddr: 0x10001C79C, symSize: 0x2C }
  - { offsetInCU: 0x13214, offset: 0x7E8CD, size: 0x8, addend: 0x0, symName: __ZNSt3__118__allocation_guardINS_9allocatorINS_20__shared_ptr_emplaceI24ParagraphSplittingActionNS1_IS3_EEEEEEEC1B8ue170006IS4_EET_m, symObjAddr: 0x7A40, symBinAddr: 0x10001C7C8, symSize: 0x34 }
  - { offsetInCU: 0x13263, offset: 0x7E91C, size: 0x8, addend: 0x0, symName: __ZNKSt3__118__allocation_guardINS_9allocatorINS_20__shared_ptr_emplaceI24ParagraphSplittingActionNS1_IS3_EEEEEEE5__getB8ue170006Ev, symObjAddr: 0x7A74, symBinAddr: 0x10001C7FC, symSize: 0x18 }
  - { offsetInCU: 0x13289, offset: 0x7E942, size: 0x8, addend: 0x0, symName: __ZNSt3__120__shared_ptr_emplaceI24ParagraphSplittingActionNS_9allocatorIS1_EEEC1B8ue170006IJEEES3_DpOT_, symObjAddr: 0x7A8C, symBinAddr: 0x10001C814, symSize: 0x2C }
  - { offsetInCU: 0x132C7, offset: 0x7E980, size: 0x8, addend: 0x0, symName: __ZNSt3__118__allocation_guardINS_9allocatorINS_20__shared_ptr_emplaceI24ParagraphSplittingActionNS1_IS3_EEEEEEE13__release_ptrB8ue170006Ev, symObjAddr: 0x7AB8, symBinAddr: 0x10001C840, symSize: 0x24 }
  - { offsetInCU: 0x132FC, offset: 0x7E9B5, size: 0x8, addend: 0x0, symName: __ZNSt3__110shared_ptrI24ParagraphSplittingActionE27__create_with_control_blockB8ue170006IS1_NS_20__shared_ptr_emplaceIS1_NS_9allocatorIS1_EEEEEES2_PT_PT0_, symObjAddr: 0x7ADC, symBinAddr: 0x10001C864, symSize: 0xA4 }
  - { offsetInCU: 0x13351, offset: 0x7EA0A, size: 0x8, addend: 0x0, symName: __ZNSt3__120__shared_ptr_emplaceI24ParagraphSplittingActionNS_9allocatorIS1_EEE10__get_elemB8ue170006Ev, symObjAddr: 0x7B80, symBinAddr: 0x10001C908, symSize: 0x28 }
  - { offsetInCU: 0x13377, offset: 0x7EA30, size: 0x8, addend: 0x0, symName: __ZNSt3__118__allocation_guardINS_9allocatorINS_20__shared_ptr_emplaceI24ParagraphSplittingActionNS1_IS3_EEEEEEED1B8ue170006Ev, symObjAddr: 0x7BA8, symBinAddr: 0x10001C930, symSize: 0x2C }
  - { offsetInCU: 0x133A1, offset: 0x7EA5A, size: 0x8, addend: 0x0, symName: __ZNSt3__118__allocation_guardINS_9allocatorINS_20__shared_ptr_emplaceI24ParagraphSplittingActionNS1_IS3_EEEEEEEC2B8ue170006IS4_EET_m, symObjAddr: 0x7BD4, symBinAddr: 0x10001C95C, symSize: 0x50 }
  - { offsetInCU: 0x133F0, offset: 0x7EAA9, size: 0x8, addend: 0x0, symName: __ZNSt3__19allocatorINS_20__shared_ptr_emplaceI24ParagraphSplittingActionNS0_IS2_EEEEEC1B8ue170006IS2_EERKNS0_IT_EE, symObjAddr: 0x7C24, symBinAddr: 0x10001C9AC, symSize: 0x34 }
  - { offsetInCU: 0x1342E, offset: 0x7EAE7, size: 0x8, addend: 0x0, symName: __ZNSt3__116allocator_traitsINS_9allocatorINS_20__shared_ptr_emplaceI24ParagraphSplittingActionNS1_IS3_EEEEEEE8allocateB8ue170006ERS6_m, symObjAddr: 0x7C58, symBinAddr: 0x10001C9E0, symSize: 0x2C }
  - { offsetInCU: 0x13461, offset: 0x7EB1A, size: 0x8, addend: 0x0, symName: __ZNSt3__19allocatorINS_20__shared_ptr_emplaceI24ParagraphSplittingActionNS0_IS2_EEEEEC2B8ue170006IS2_EERKNS0_IT_EE, symObjAddr: 0x7C84, symBinAddr: 0x10001CA0C, symSize: 0x30 }
  - { offsetInCU: 0x1349F, offset: 0x7EB58, size: 0x8, addend: 0x0, symName: __ZNSt3__116__non_trivial_ifILb1ENS_9allocatorINS_20__shared_ptr_emplaceI24ParagraphSplittingActionNS1_IS3_EEEEEEEC2B8ue170006Ev, symObjAddr: 0x7CB4, symBinAddr: 0x10001CA3C, symSize: 0x14 }
  - { offsetInCU: 0x134C9, offset: 0x7EB82, size: 0x8, addend: 0x0, symName: __ZNSt3__19allocatorINS_20__shared_ptr_emplaceI24ParagraphSplittingActionNS0_IS2_EEEEE8allocateB8ue170006Em, symObjAddr: 0x7CC8, symBinAddr: 0x10001CA50, symSize: 0x58 }
  - { offsetInCU: 0x13507, offset: 0x7EBC0, size: 0x8, addend: 0x0, symName: __ZNSt3__116allocator_traitsINS_9allocatorINS_20__shared_ptr_emplaceI24ParagraphSplittingActionNS1_IS3_EEEEEEE8max_sizeB8ue170006IS6_vvEEmRKS6_, symObjAddr: 0x7D20, symBinAddr: 0x10001CAA8, symSize: 0x28 }
  - { offsetInCU: 0x13533, offset: 0x7EBEC, size: 0x8, addend: 0x0, symName: __ZNSt3__120__shared_ptr_emplaceI24ParagraphSplittingActionNS_9allocatorIS1_EEEC2B8ue170006IJEEES3_DpOT_, symObjAddr: 0x7D48, symBinAddr: 0x10001CAD0, symSize: 0xC0 }
  - { offsetInCU: 0x13592, offset: 0x7EC4B, size: 0x8, addend: 0x0, symName: __ZNSt3__120__shared_ptr_emplaceI24ParagraphSplittingActionNS_9allocatorIS1_EEE8_StorageC1B8ue170006EOS3_, symObjAddr: 0x7E08, symBinAddr: 0x10001CB90, symSize: 0x34 }
  - { offsetInCU: 0x135CB, offset: 0x7EC84, size: 0x8, addend: 0x0, symName: __ZNSt3__120__shared_ptr_emplaceI24ParagraphSplittingActionNS_9allocatorIS1_EEE11__get_allocB8ue170006Ev, symObjAddr: 0x7E3C, symBinAddr: 0x10001CBC4, symSize: 0x28 }
  - { offsetInCU: 0x135F6, offset: 0x7ECAF, size: 0x8, addend: 0x0, symName: __ZNSt3__116allocator_traitsINS_9allocatorI24ParagraphSplittingActionEEE9constructB8ue170006IS2_JEvvEEvRS3_PT_DpOT0_, symObjAddr: 0x7E64, symBinAddr: 0x10001CBEC, symSize: 0x28 }
  - { offsetInCU: 0x13636, offset: 0x7ECEF, size: 0x8, addend: 0x0, symName: __ZNSt3__120__shared_ptr_emplaceI24ParagraphSplittingActionNS_9allocatorIS1_EEE8_StorageD1B8ue170006Ev, symObjAddr: 0x7E8C, symBinAddr: 0x10001CC14, symSize: 0x2C }
  - { offsetInCU: 0x13660, offset: 0x7ED19, size: 0x8, addend: 0x0, symName: __ZNSt3__120__shared_ptr_emplaceI24ParagraphSplittingActionNS_9allocatorIS1_EEED1Ev, symObjAddr: 0x7EB8, symBinAddr: 0x10001CC40, symSize: 0x2C }
  - { offsetInCU: 0x1368D, offset: 0x7ED46, size: 0x8, addend: 0x0, symName: __ZNSt3__120__shared_ptr_emplaceI24ParagraphSplittingActionNS_9allocatorIS1_EEED0Ev, symObjAddr: 0x7EE4, symBinAddr: 0x10001CC6C, symSize: 0x30 }
  - { offsetInCU: 0x136BA, offset: 0x7ED73, size: 0x8, addend: 0x0, symName: __ZNSt3__120__shared_ptr_emplaceI24ParagraphSplittingActionNS_9allocatorIS1_EEE16__on_zero_sharedEv, symObjAddr: 0x7F14, symBinAddr: 0x10001CC9C, symSize: 0x44 }
  - { offsetInCU: 0x13701, offset: 0x7EDBA, size: 0x8, addend: 0x0, symName: __ZNSt3__120__shared_ptr_emplaceI24ParagraphSplittingActionNS_9allocatorIS1_EEE21__on_zero_shared_weakEv, symObjAddr: 0x7F58, symBinAddr: 0x10001CCE0, symSize: 0x5C }
  - { offsetInCU: 0x13742, offset: 0x7EDFB, size: 0x8, addend: 0x0, symName: __ZNSt3__120__shared_ptr_emplaceI24ParagraphSplittingActionNS_9allocatorIS1_EEE8_StorageC2B8ue170006EOS3_, symObjAddr: 0x7FB4, symBinAddr: 0x10001CD3C, symSize: 0x30 }
  - { offsetInCU: 0x1377B, offset: 0x7EE34, size: 0x8, addend: 0x0, symName: __ZNSt3__120__shared_ptr_emplaceI24ParagraphSplittingActionNS_9allocatorIS1_EEE8_Storage11__get_allocB8ue170006Ev, symObjAddr: 0x7FE4, symBinAddr: 0x10001CD6C, symSize: 0x3C }
  - { offsetInCU: 0x137CE, offset: 0x7EE87, size: 0x8, addend: 0x0, symName: __ZNSt3__117__compressed_pairINS_9allocatorI24ParagraphSplittingActionEES2_E16__get_first_baseB8ue170006EPS4_, symObjAddr: 0x8020, symBinAddr: 0x10001CDA8, symSize: 0x14 }
  - { offsetInCU: 0x137F1, offset: 0x7EEAA, size: 0x8, addend: 0x0, symName: __ZN24ParagraphSplittingActionC1Ev, symObjAddr: 0x806C, symBinAddr: 0x10001CDF4, symSize: 0x2C }
  - { offsetInCU: 0x1381B, offset: 0x7EED4, size: 0x8, addend: 0x0, symName: __ZN24ParagraphSplittingActionC2Ev, symObjAddr: 0x8098, symBinAddr: 0x10001CE20, symSize: 0x44 }
  - { offsetInCU: 0x13845, offset: 0x7EEFE, size: 0x8, addend: 0x0, symName: __ZN6ActionC2Ev, symObjAddr: 0x80DC, symBinAddr: 0x10001CE64, symSize: 0x24 }
  - { offsetInCU: 0x1386F, offset: 0x7EF28, size: 0x8, addend: 0x0, symName: __ZN6ActionD1Ev, symObjAddr: 0x8100, symBinAddr: 0x10001CE88, symSize: 0x14 }
  - { offsetInCU: 0x13899, offset: 0x7EF52, size: 0x8, addend: 0x0, symName: __ZN6ActionD0Ev, symObjAddr: 0x8114, symBinAddr: 0x10001CE9C, symSize: 0xC }
  - { offsetInCU: 0x138C3, offset: 0x7EF7C, size: 0x8, addend: 0x0, symName: __ZN6Action4undoER11EditorState, symObjAddr: 0x8120, symBinAddr: 0x10001CEA8, symSize: 0x14 }
  - { offsetInCU: 0x138F7, offset: 0x7EFB0, size: 0x8, addend: 0x0, symName: __ZNK6Action11canBeUndoneEv, symObjAddr: 0x8134, symBinAddr: 0x10001CEBC, symSize: 0x18 }
  - { offsetInCU: 0x1391D, offset: 0x7EFD6, size: 0x8, addend: 0x0, symName: __ZNSt3__120__shared_ptr_emplaceI24ParagraphSplittingActionNS_9allocatorIS1_EEE8_StorageD2B8ue170006Ev, symObjAddr: 0x814C, symBinAddr: 0x10001CED4, symSize: 0x2C }
  - { offsetInCU: 0x13947, offset: 0x7F000, size: 0x8, addend: 0x0, symName: __ZNSt3__120__shared_ptr_emplaceI24ParagraphSplittingActionNS_9allocatorIS1_EEED2Ev, symObjAddr: 0x8178, symBinAddr: 0x10001CF00, symSize: 0x48 }
  - { offsetInCU: 0x13974, offset: 0x7F02D, size: 0x8, addend: 0x0, symName: __ZNSt3__116allocator_traitsINS_9allocatorI24ParagraphSplittingActionEEE7destroyB8ue170006IS2_vvEEvRS3_PT_, symObjAddr: 0x81C0, symBinAddr: 0x10001CF48, symSize: 0x28 }
  - { offsetInCU: 0x139AF, offset: 0x7F068, size: 0x8, addend: 0x0, symName: __ZNSt3__116allocator_traitsINS_9allocatorINS_20__shared_ptr_emplaceI24ParagraphSplittingActionNS1_IS3_EEEEEEE10deallocateB8ue170006ERS6_PS5_m, symObjAddr: 0x8238, symBinAddr: 0x10001CFC0, symSize: 0x34 }
  - { offsetInCU: 0x139F6, offset: 0x7F0AF, size: 0x8, addend: 0x0, symName: __ZNSt3__114pointer_traitsIPNS_20__shared_ptr_emplaceI24ParagraphSplittingActionNS_9allocatorIS2_EEEEE10pointer_toB8ue170006ERS5_, symObjAddr: 0x826C, symBinAddr: 0x10001CFF4, symSize: 0x14 }
  - { offsetInCU: 0x13A19, offset: 0x7F0D2, size: 0x8, addend: 0x0, symName: __ZNSt3__19allocatorINS_20__shared_ptr_emplaceI24ParagraphSplittingActionNS0_IS2_EEEEE10deallocateB8ue170006EPS4_m, symObjAddr: 0x8280, symBinAddr: 0x10001D008, symSize: 0x40 }
  - { offsetInCU: 0x13A5B, offset: 0x7F114, size: 0x8, addend: 0x0, symName: __ZNSt3__110shared_ptrI24ParagraphSplittingActionEC1B8ue170006Ev, symObjAddr: 0x82C0, symBinAddr: 0x10001D048, symSize: 0x2C }
  - { offsetInCU: 0x13A85, offset: 0x7F13E, size: 0x8, addend: 0x0, symName: __ZNSt3__110shared_ptrI24ParagraphSplittingActionE18__enable_weak_thisB8ue170006Ez, symObjAddr: 0x82EC, symBinAddr: 0x10001D074, symSize: 0x10 }
  - { offsetInCU: 0x13AAC, offset: 0x7F165, size: 0x8, addend: 0x0, symName: __ZNSt3__110shared_ptrI24ParagraphSplittingActionEC2B8ue170006Ev, symObjAddr: 0x82FC, symBinAddr: 0x10001D084, symSize: 0x1C }
  - { offsetInCU: 0x13AD6, offset: 0x7F18F, size: 0x8, addend: 0x0, symName: __ZNSt3__120__shared_ptr_emplaceI24ParagraphSplittingActionNS_9allocatorIS1_EEE8_Storage10__get_elemB8ue170006Ev, symObjAddr: 0x8318, symBinAddr: 0x10001D0A0, symSize: 0x3C }
  - { offsetInCU: 0x13B29, offset: 0x7F1E2, size: 0x8, addend: 0x0, symName: __ZNSt3__117__compressed_pairINS_9allocatorI24ParagraphSplittingActionEES2_E17__get_second_baseB8ue170006EPS4_, symObjAddr: 0x8354, symBinAddr: 0x10001D0DC, symSize: 0x14 }
  - { offsetInCU: 0x13B4C, offset: 0x7F205, size: 0x8, addend: 0x0, symName: __ZNSt3__118__allocation_guardINS_9allocatorINS_20__shared_ptr_emplaceI24ParagraphSplittingActionNS1_IS3_EEEEEEED2B8ue170006Ev, symObjAddr: 0x8368, symBinAddr: 0x10001D0F0, symSize: 0x2C }
  - { offsetInCU: 0x13B76, offset: 0x7F22F, size: 0x8, addend: 0x0, symName: __ZNSt3__118__allocation_guardINS_9allocatorINS_20__shared_ptr_emplaceI24ParagraphSplittingActionNS1_IS3_EEEEEEE9__destroyB8ue170006Ev, symObjAddr: 0x8394, symBinAddr: 0x10001D11C, symSize: 0x4C }
  - { offsetInCU: 0x13B9C, offset: 0x7F255, size: 0x8, addend: 0x0, symName: __ZNSt3__19allocatorI24ParagraphSplittingActionEC2B8ue170006Ev, symObjAddr: 0x83E0, symBinAddr: 0x10001D168, symSize: 0x2C }
  - { offsetInCU: 0x13BC6, offset: 0x7F27F, size: 0x8, addend: 0x0, symName: __ZNSt3__116__non_trivial_ifILb1ENS_9allocatorI24ParagraphSplittingActionEEEC2B8ue170006Ev, symObjAddr: 0x840C, symBinAddr: 0x10001D194, symSize: 0x14 }
  - { offsetInCU: 0x13BF0, offset: 0x7F2A9, size: 0x8, addend: 0x0, symName: __ZNSt3__110shared_ptrI24ParagraphSplittingActionED2B8ue170006Ev, symObjAddr: 0x8420, symBinAddr: 0x10001D1A8, symSize: 0x54 }
  - { offsetInCU: 0x13C1A, offset: 0x7F2D3, size: 0x8, addend: 0x0, symName: __ZNSt3__110shared_ptrI6ActionEC2B8ue170006I24ParagraphSplittingActionvEEONS0_IT_EE, symObjAddr: 0x8474, symBinAddr: 0x10001D1FC, symSize: 0x40 }
  - { offsetInCU: 0x13C5D, offset: 0x7F316, size: 0x8, addend: 0x0, symName: __ZNSt3__19allocatorI12InsertActionEC1B8ue170006Ev, symObjAddr: 0x9A54, symBinAddr: 0x10001D2DC, symSize: 0x2C }
  - { offsetInCU: 0x13CB4, offset: 0x7F36D, size: 0x8, addend: 0x0, symName: __ZNSt3__118__allocation_guardINS_9allocatorINS_20__shared_ptr_emplaceI12InsertActionNS1_IS3_EEEEEEEC1B8ue170006IS4_EET_m, symObjAddr: 0x9A80, symBinAddr: 0x10001D308, symSize: 0x34 }
  - { offsetInCU: 0x13D03, offset: 0x7F3BC, size: 0x8, addend: 0x0, symName: __ZNKSt3__118__allocation_guardINS_9allocatorINS_20__shared_ptr_emplaceI12InsertActionNS1_IS3_EEEEEEE5__getB8ue170006Ev, symObjAddr: 0x9AB4, symBinAddr: 0x10001D33C, symSize: 0x18 }
  - { offsetInCU: 0x13D2E, offset: 0x7F3E7, size: 0x8, addend: 0x0, symName: __ZNSt3__120__shared_ptr_emplaceI12InsertActionNS_9allocatorIS1_EEEC1B8ue170006IJRNS_6vectorINS_12basic_stringIcNS_11char_traitsIcEENS2_IcEEEENS2_ISB_EEEE8PositionEEES3_DpOT_, symObjAddr: 0x9ACC, symBinAddr: 0x10001D354, symSize: 0x3C }
  - { offsetInCU: 0x13D95, offset: 0x7F44E, size: 0x8, addend: 0x0, symName: __ZNSt3__118__allocation_guardINS_9allocatorINS_20__shared_ptr_emplaceI12InsertActionNS1_IS3_EEEEEEE13__release_ptrB8ue170006Ev, symObjAddr: 0x9B08, symBinAddr: 0x10001D390, symSize: 0x24 }
  - { offsetInCU: 0x13DCA, offset: 0x7F483, size: 0x8, addend: 0x0, symName: __ZNSt3__110shared_ptrI12InsertActionE27__create_with_control_blockB8ue170006IS1_NS_20__shared_ptr_emplaceIS1_NS_9allocatorIS1_EEEEEES2_PT_PT0_, symObjAddr: 0x9B2C, symBinAddr: 0x10001D3B4, symSize: 0xA4 }
  - { offsetInCU: 0x13E1F, offset: 0x7F4D8, size: 0x8, addend: 0x0, symName: __ZNSt3__120__shared_ptr_emplaceI12InsertActionNS_9allocatorIS1_EEE10__get_elemB8ue170006Ev, symObjAddr: 0x9BD0, symBinAddr: 0x10001D458, symSize: 0x28 }
  - { offsetInCU: 0x13E45, offset: 0x7F4FE, size: 0x8, addend: 0x0, symName: __ZNSt3__118__allocation_guardINS_9allocatorINS_20__shared_ptr_emplaceI12InsertActionNS1_IS3_EEEEEEED1B8ue170006Ev, symObjAddr: 0x9BF8, symBinAddr: 0x10001D480, symSize: 0x2C }
  - { offsetInCU: 0x13E6F, offset: 0x7F528, size: 0x8, addend: 0x0, symName: __ZNSt3__118__allocation_guardINS_9allocatorINS_20__shared_ptr_emplaceI12InsertActionNS1_IS3_EEEEEEEC2B8ue170006IS4_EET_m, symObjAddr: 0x9C24, symBinAddr: 0x10001D4AC, symSize: 0x50 }
  - { offsetInCU: 0x13EBE, offset: 0x7F577, size: 0x8, addend: 0x0, symName: __ZNSt3__19allocatorINS_20__shared_ptr_emplaceI12InsertActionNS0_IS2_EEEEEC1B8ue170006IS2_EERKNS0_IT_EE, symObjAddr: 0x9C74, symBinAddr: 0x10001D4FC, symSize: 0x34 }
  - { offsetInCU: 0x13EFC, offset: 0x7F5B5, size: 0x8, addend: 0x0, symName: __ZNSt3__116allocator_traitsINS_9allocatorINS_20__shared_ptr_emplaceI12InsertActionNS1_IS3_EEEEEEE8allocateB8ue170006ERS6_m, symObjAddr: 0x9CA8, symBinAddr: 0x10001D530, symSize: 0x2C }
  - { offsetInCU: 0x13F2F, offset: 0x7F5E8, size: 0x8, addend: 0x0, symName: __ZNSt3__19allocatorINS_20__shared_ptr_emplaceI12InsertActionNS0_IS2_EEEEEC2B8ue170006IS2_EERKNS0_IT_EE, symObjAddr: 0x9CD4, symBinAddr: 0x10001D55C, symSize: 0x30 }
  - { offsetInCU: 0x13F6D, offset: 0x7F626, size: 0x8, addend: 0x0, symName: __ZNSt3__116__non_trivial_ifILb1ENS_9allocatorINS_20__shared_ptr_emplaceI12InsertActionNS1_IS3_EEEEEEEC2B8ue170006Ev, symObjAddr: 0x9D04, symBinAddr: 0x10001D58C, symSize: 0x14 }
  - { offsetInCU: 0x13F97, offset: 0x7F650, size: 0x8, addend: 0x0, symName: __ZNSt3__19allocatorINS_20__shared_ptr_emplaceI12InsertActionNS0_IS2_EEEEE8allocateB8ue170006Em, symObjAddr: 0x9D18, symBinAddr: 0x10001D5A0, symSize: 0x58 }
  - { offsetInCU: 0x13FD5, offset: 0x7F68E, size: 0x8, addend: 0x0, symName: __ZNSt3__116allocator_traitsINS_9allocatorINS_20__shared_ptr_emplaceI12InsertActionNS1_IS3_EEEEEEE8max_sizeB8ue170006IS6_vvEEmRKS6_, symObjAddr: 0x9D70, symBinAddr: 0x10001D5F8, symSize: 0x28 }
  - { offsetInCU: 0x14001, offset: 0x7F6BA, size: 0x8, addend: 0x0, symName: __ZNSt3__120__shared_ptr_emplaceI12InsertActionNS_9allocatorIS1_EEEC2B8ue170006IJRNS_6vectorINS_12basic_stringIcNS_11char_traitsIcEENS2_IcEEEENS2_ISB_EEEE8PositionEEES3_DpOT_, symObjAddr: 0x9D98, symBinAddr: 0x10001D620, symSize: 0xD0 }
  - { offsetInCU: 0x14089, offset: 0x7F742, size: 0x8, addend: 0x0, symName: __ZNSt3__120__shared_ptr_emplaceI12InsertActionNS_9allocatorIS1_EEE8_StorageC1B8ue170006EOS3_, symObjAddr: 0x9E68, symBinAddr: 0x10001D6F0, symSize: 0x34 }
  - { offsetInCU: 0x140C2, offset: 0x7F77B, size: 0x8, addend: 0x0, symName: __ZNSt3__120__shared_ptr_emplaceI12InsertActionNS_9allocatorIS1_EEE11__get_allocB8ue170006Ev, symObjAddr: 0x9E9C, symBinAddr: 0x10001D724, symSize: 0x28 }
  - { offsetInCU: 0x140ED, offset: 0x7F7A6, size: 0x8, addend: 0x0, symName: __ZNSt3__116allocator_traitsINS_9allocatorI12InsertActionEEE9constructB8ue170006IS2_JRNS_6vectorINS_12basic_stringIcNS_11char_traitsIcEENS1_IcEEEENS1_ISB_EEEE8PositionEvvEEvRS3_PT_DpOT0_, symObjAddr: 0x9EC4, symBinAddr: 0x10001D74C, symSize: 0x38 }
  - { offsetInCU: 0x14156, offset: 0x7F80F, size: 0x8, addend: 0x0, symName: __ZNSt3__120__shared_ptr_emplaceI12InsertActionNS_9allocatorIS1_EEE8_StorageD1B8ue170006Ev, symObjAddr: 0x9EFC, symBinAddr: 0x10001D784, symSize: 0x2C }
  - { offsetInCU: 0x14180, offset: 0x7F839, size: 0x8, addend: 0x0, symName: __ZNSt3__120__shared_ptr_emplaceI12InsertActionNS_9allocatorIS1_EEED1Ev, symObjAddr: 0x9F28, symBinAddr: 0x10001D7B0, symSize: 0x2C }
  - { offsetInCU: 0x141AD, offset: 0x7F866, size: 0x8, addend: 0x0, symName: __ZNSt3__120__shared_ptr_emplaceI12InsertActionNS_9allocatorIS1_EEED0Ev, symObjAddr: 0x9F54, symBinAddr: 0x10001D7DC, symSize: 0x30 }
  - { offsetInCU: 0x141DA, offset: 0x7F893, size: 0x8, addend: 0x0, symName: __ZNSt3__120__shared_ptr_emplaceI12InsertActionNS_9allocatorIS1_EEE16__on_zero_sharedEv, symObjAddr: 0x9F84, symBinAddr: 0x10001D80C, symSize: 0x44 }
  - { offsetInCU: 0x14221, offset: 0x7F8DA, size: 0x8, addend: 0x0, symName: __ZNSt3__120__shared_ptr_emplaceI12InsertActionNS_9allocatorIS1_EEE21__on_zero_shared_weakEv, symObjAddr: 0x9FC8, symBinAddr: 0x10001D850, symSize: 0x5C }
  - { offsetInCU: 0x14262, offset: 0x7F91B, size: 0x8, addend: 0x0, symName: __ZNSt3__120__shared_ptr_emplaceI12InsertActionNS_9allocatorIS1_EEE8_StorageC2B8ue170006EOS3_, symObjAddr: 0xA024, symBinAddr: 0x10001D8AC, symSize: 0x30 }
  - { offsetInCU: 0x1429B, offset: 0x7F954, size: 0x8, addend: 0x0, symName: __ZNSt3__120__shared_ptr_emplaceI12InsertActionNS_9allocatorIS1_EEE8_Storage11__get_allocB8ue170006Ev, symObjAddr: 0xA054, symBinAddr: 0x10001D8DC, symSize: 0x3C }
  - { offsetInCU: 0x142EE, offset: 0x7F9A7, size: 0x8, addend: 0x0, symName: __ZNSt3__117__compressed_pairINS_9allocatorI12InsertActionEES2_E16__get_first_baseB8ue170006EPS4_, symObjAddr: 0xA090, symBinAddr: 0x10001D918, symSize: 0x14 }
  - { offsetInCU: 0x14311, offset: 0x7F9CA, size: 0x8, addend: 0x0, symName: __ZNSt3__120__shared_ptr_emplaceI12InsertActionNS_9allocatorIS1_EEE8_StorageD2B8ue170006Ev, symObjAddr: 0xA6CC, symBinAddr: 0x10001D9BC, symSize: 0x2C }
  - { offsetInCU: 0x1433B, offset: 0x7F9F4, size: 0x8, addend: 0x0, symName: __ZNSt3__120__shared_ptr_emplaceI12InsertActionNS_9allocatorIS1_EEED2Ev, symObjAddr: 0xA6F8, symBinAddr: 0x10001D9E8, symSize: 0x48 }
  - { offsetInCU: 0x14368, offset: 0x7FA21, size: 0x8, addend: 0x0, symName: __ZNSt3__116allocator_traitsINS_9allocatorI12InsertActionEEE7destroyB8ue170006IS2_vvEEvRS3_PT_, symObjAddr: 0xA740, symBinAddr: 0x10001DA30, symSize: 0x28 }
  - { offsetInCU: 0x143A3, offset: 0x7FA5C, size: 0x8, addend: 0x0, symName: __ZNSt3__116allocator_traitsINS_9allocatorINS_20__shared_ptr_emplaceI12InsertActionNS1_IS3_EEEEEEE10deallocateB8ue170006ERS6_PS5_m, symObjAddr: 0xA7B8, symBinAddr: 0x10001DAA8, symSize: 0x34 }
  - { offsetInCU: 0x143EA, offset: 0x7FAA3, size: 0x8, addend: 0x0, symName: __ZNSt3__114pointer_traitsIPNS_20__shared_ptr_emplaceI12InsertActionNS_9allocatorIS2_EEEEE10pointer_toB8ue170006ERS5_, symObjAddr: 0xA7EC, symBinAddr: 0x10001DADC, symSize: 0x14 }
  - { offsetInCU: 0x1440D, offset: 0x7FAC6, size: 0x8, addend: 0x0, symName: __ZNSt3__19allocatorINS_20__shared_ptr_emplaceI12InsertActionNS0_IS2_EEEEE10deallocateB8ue170006EPS4_m, symObjAddr: 0xA800, symBinAddr: 0x10001DAF0, symSize: 0x40 }
  - { offsetInCU: 0x1444F, offset: 0x7FB08, size: 0x8, addend: 0x0, symName: __ZNSt3__110shared_ptrI12InsertActionEC1B8ue170006Ev, symObjAddr: 0xA840, symBinAddr: 0x10001DB30, symSize: 0x2C }
  - { offsetInCU: 0x14479, offset: 0x7FB32, size: 0x8, addend: 0x0, symName: __ZNSt3__110shared_ptrI12InsertActionE18__enable_weak_thisB8ue170006Ez, symObjAddr: 0xA86C, symBinAddr: 0x10001DB5C, symSize: 0x10 }
  - { offsetInCU: 0x144A0, offset: 0x7FB59, size: 0x8, addend: 0x0, symName: __ZNSt3__110shared_ptrI12InsertActionEC2B8ue170006Ev, symObjAddr: 0xA87C, symBinAddr: 0x10001DB6C, symSize: 0x1C }
  - { offsetInCU: 0x144CA, offset: 0x7FB83, size: 0x8, addend: 0x0, symName: __ZNSt3__120__shared_ptr_emplaceI12InsertActionNS_9allocatorIS1_EEE8_Storage10__get_elemB8ue170006Ev, symObjAddr: 0xA898, symBinAddr: 0x10001DB88, symSize: 0x3C }
  - { offsetInCU: 0x1451D, offset: 0x7FBD6, size: 0x8, addend: 0x0, symName: __ZNSt3__117__compressed_pairINS_9allocatorI12InsertActionEES2_E17__get_second_baseB8ue170006EPS4_, symObjAddr: 0xA8D4, symBinAddr: 0x10001DBC4, symSize: 0x14 }
  - { offsetInCU: 0x14540, offset: 0x7FBF9, size: 0x8, addend: 0x0, symName: __ZNSt3__118__allocation_guardINS_9allocatorINS_20__shared_ptr_emplaceI12InsertActionNS1_IS3_EEEEEEED2B8ue170006Ev, symObjAddr: 0xA8E8, symBinAddr: 0x10001DBD8, symSize: 0x2C }
  - { offsetInCU: 0x1456A, offset: 0x7FC23, size: 0x8, addend: 0x0, symName: __ZNSt3__118__allocation_guardINS_9allocatorINS_20__shared_ptr_emplaceI12InsertActionNS1_IS3_EEEEEEE9__destroyB8ue170006Ev, symObjAddr: 0xA914, symBinAddr: 0x10001DC04, symSize: 0x4C }
  - { offsetInCU: 0x14590, offset: 0x7FC49, size: 0x8, addend: 0x0, symName: __ZNSt3__19allocatorI12InsertActionEC2B8ue170006Ev, symObjAddr: 0xA960, symBinAddr: 0x10001DC50, symSize: 0x2C }
  - { offsetInCU: 0x145BA, offset: 0x7FC73, size: 0x8, addend: 0x0, symName: __ZNSt3__116__non_trivial_ifILb1ENS_9allocatorI12InsertActionEEEC2B8ue170006Ev, symObjAddr: 0xA98C, symBinAddr: 0x10001DC7C, symSize: 0x14 }
  - { offsetInCU: 0x145E4, offset: 0x7FC9D, size: 0x8, addend: 0x0, symName: __ZNSt3__110shared_ptrI12InsertActionED2B8ue170006Ev, symObjAddr: 0xA9A0, symBinAddr: 0x10001DC90, symSize: 0x54 }
  - { offsetInCU: 0x1460E, offset: 0x7FCC7, size: 0x8, addend: 0x0, symName: __ZNSt3__110shared_ptrI6ActionEC2B8ue170006I12InsertActionvEEONS0_IT_EE, symObjAddr: 0xA9F4, symBinAddr: 0x10001DCE4, symSize: 0x40 }
  - { offsetInCU: 0x26, offset: 0x7FDDE, size: 0x8, addend: 0x0, symName: __ZN13MessageActionC2ENSt3__112basic_stringIcNS0_11char_traitsIcEENS0_9allocatorIcEEEE, symObjAddr: 0x0, symBinAddr: 0x10001DD24, symSize: 0x84 }
  - { offsetInCU: 0xE1D2, offset: 0x8DF8A, size: 0x8, addend: 0x0, symName: __ZN13MessageActionC2ENSt3__112basic_stringIcNS0_11char_traitsIcEENS0_9allocatorIcEEEE, symObjAddr: 0x0, symBinAddr: 0x10001DD24, symSize: 0x84 }
  - { offsetInCU: 0xE20D, offset: 0x8DFC5, size: 0x8, addend: 0x0, symName: __ZN6ActionD2Ev, symObjAddr: 0xA8, symBinAddr: 0x10001DDA8, symSize: 0x14 }
  - { offsetInCU: 0xE237, offset: 0x8DFEF, size: 0x8, addend: 0x0, symName: __ZN13MessageActionC1ENSt3__112basic_stringIcNS0_11char_traitsIcEENS0_9allocatorIcEEEE, symObjAddr: 0xBC, symBinAddr: 0x10001DDBC, symSize: 0x34 }
  - { offsetInCU: 0xE272, offset: 0x8E02A, size: 0x8, addend: 0x0, symName: __ZN13MessageAction5applyER16ExecutionContext, symObjAddr: 0xF0, symBinAddr: 0x10001DDF0, symSize: 0x78 }
  - { offsetInCU: 0xE2A8, offset: 0x8E060, size: 0x8, addend: 0x0, symName: __ZN13MessageActionD1Ev, symObjAddr: 0x168, symBinAddr: 0x10001DE68, symSize: 0x2C }
  - { offsetInCU: 0xE2D2, offset: 0x8E08A, size: 0x8, addend: 0x0, symName: __ZN13MessageActionD0Ev, symObjAddr: 0x194, symBinAddr: 0x10001DE94, symSize: 0x30 }
  - { offsetInCU: 0xE2FC, offset: 0x8E0B4, size: 0x8, addend: 0x0, symName: __ZN13MessageActionD2Ev, symObjAddr: 0x210, symBinAddr: 0x10001DEC4, symSize: 0x48 }
  - { offsetInCU: 0xE41D, offset: 0x9C505, size: 0x8, addend: 0x0, symName: __ZN12DeleteActionC2E8PositionS0_, symObjAddr: 0x0, symBinAddr: 0x10001DF0C, symSize: 0x68 }
  - { offsetInCU: 0xE465, offset: 0x9C54D, size: 0x8, addend: 0x0, symName: __ZN12DeleteActionC1E8PositionS0_, symObjAddr: 0xB8, symBinAddr: 0x10001DF74, symSize: 0x3C }
  - { offsetInCU: 0xE4AD, offset: 0x9C595, size: 0x8, addend: 0x0, symName: __ZN12DeleteAction5applyER16ExecutionContext, symObjAddr: 0xF4, symBinAddr: 0x10001DFB0, symSize: 0xB0 }
  - { offsetInCU: 0xE4F2, offset: 0x9C5DA, size: 0x8, addend: 0x0, symName: __ZNSt3__16vectorINS_12basic_stringIcNS_11char_traitsIcEENS_9allocatorIcEEEENS4_IS6_EEEaSB8ue170006EOS8_, symObjAddr: 0x1A4, symBinAddr: 0x10001E060, symSize: 0x34 }
  - { offsetInCU: 0xE529, offset: 0x9C611, size: 0x8, addend: 0x0, symName: __ZN12DeleteAction4undoER11EditorState, symObjAddr: 0x204, symBinAddr: 0x10001E094, symSize: 0x17C }
  - { offsetInCU: 0xE55F, offset: 0x9C647, size: 0x8, addend: 0x0, symName: __ZNSt3__16vectorINS_12basic_stringIcNS_11char_traitsIcEENS_9allocatorIcEEEENS4_IS6_EEE2atEm, symObjAddr: 0x3DC, symBinAddr: 0x10001E210, symSize: 0x68 }
  - { offsetInCU: 0xE59B, offset: 0x9C683, size: 0x8, addend: 0x0, symName: __ZNK12DeleteAction11canBeUndoneEv, symObjAddr: 0x4B4, symBinAddr: 0x10001E278, symSize: 0x18 }
  - { offsetInCU: 0xE5C2, offset: 0x9C6AA, size: 0x8, addend: 0x0, symName: __ZN12DeleteActionD1Ev, symObjAddr: 0x4CC, symBinAddr: 0x10001E290, symSize: 0x2C }
  - { offsetInCU: 0xE5EC, offset: 0x9C6D4, size: 0x8, addend: 0x0, symName: __ZN12DeleteActionD0Ev, symObjAddr: 0x4F8, symBinAddr: 0x10001E2BC, symSize: 0x30 }
  - { offsetInCU: 0xE616, offset: 0x9C6FE, size: 0x8, addend: 0x0, symName: __ZNSt3__16vectorINS_12basic_stringIcNS_11char_traitsIcEENS_9allocatorIcEEEENS4_IS6_EEE13__move_assignERS8_NS_17integral_constantIbLb1EEE, symObjAddr: 0x6D0, symBinAddr: 0x10001E2EC, symSize: 0x94 }
  - { offsetInCU: 0xE659, offset: 0x9C741, size: 0x8, addend: 0x0, symName: __ZNSt3__16vectorINS_12basic_stringIcNS_11char_traitsIcEENS_9allocatorIcEEEENS4_IS6_EEE19__move_assign_allocB8ue170006ERS8_, symObjAddr: 0x7F8, symBinAddr: 0x10001E380, symSize: 0x2C }
  - { offsetInCU: 0xE68E, offset: 0x9C776, size: 0x8, addend: 0x0, symName: __ZNSt3__16vectorINS_12basic_stringIcNS_11char_traitsIcEENS_9allocatorIcEEEENS4_IS6_EEE19__move_assign_allocB8ue170006ERS8_NS_17integral_constantIbLb1EEE, symObjAddr: 0xE54, symBinAddr: 0x10001E3AC, symSize: 0x38 }
  - { offsetInCU: 0xE6F2, offset: 0x9C7DA, size: 0x8, addend: 0x0, symName: __ZN12DeleteActionD2Ev, symObjAddr: 0x2584, symBinAddr: 0x10001E3E4, symSize: 0x48 }
  - { offsetInCU: 0x26, offset: 0x9C838, size: 0x8, addend: 0x0, symName: __ZN10UndoAction5applyER16ExecutionContext, symObjAddr: 0x0, symBinAddr: 0x10001E42C, symSize: 0x34 }
  - { offsetInCU: 0xF072, offset: 0xAB884, size: 0x8, addend: 0x0, symName: __ZN10UndoAction5applyER16ExecutionContext, symObjAddr: 0x0, symBinAddr: 0x10001E42C, symSize: 0x34 }
  - { offsetInCU: 0xF0A8, offset: 0xAB8BA, size: 0x8, addend: 0x0, symName: __ZN10UndoAction4undoER11EditorState, symObjAddr: 0x34, symBinAddr: 0x10001E460, symSize: 0x14 }
  - { offsetInCU: 0xF0DE, offset: 0xAB8F0, size: 0x8, addend: 0x0, symName: __ZNK10UndoAction11canBeUndoneEv, symObjAddr: 0x48, symBinAddr: 0x10001E474, symSize: 0x18 }
  - { offsetInCU: 0xF106, offset: 0xAB918, size: 0x8, addend: 0x0, symName: __ZN10UndoActionD1Ev, symObjAddr: 0x60, symBinAddr: 0x10001E48C, symSize: 0x2C }
  - { offsetInCU: 0xF130, offset: 0xAB942, size: 0x8, addend: 0x0, symName: __ZN10UndoActionD0Ev, symObjAddr: 0x8C, symBinAddr: 0x10001E4B8, symSize: 0x30 }
  - { offsetInCU: 0xF15A, offset: 0xAB96C, size: 0x8, addend: 0x0, symName: __ZN10UndoActionD2Ev, symObjAddr: 0xBC, symBinAddr: 0x10001E4E8, symSize: 0x2C }
  - { offsetInCU: 0x26, offset: 0xAB9C6, size: 0x8, addend: 0x0, symName: __ZN12IndentActionC2Ei, symObjAddr: 0x0, symBinAddr: 0x10001E514, symSize: 0x50 }
  - { offsetInCU: 0xE147, offset: 0xB9AE7, size: 0x8, addend: 0x0, symName: __ZN12IndentActionC2Ei, symObjAddr: 0x0, symBinAddr: 0x10001E514, symSize: 0x50 }
  - { offsetInCU: 0xE181, offset: 0xB9B21, size: 0x8, addend: 0x0, symName: __ZN12IndentActionC1Ei, symObjAddr: 0x74, symBinAddr: 0x10001E564, symSize: 0x34 }
  - { offsetInCU: 0xE1BB, offset: 0xB9B5B, size: 0x8, addend: 0x0, symName: __ZN12IndentAction5applyER16ExecutionContext, symObjAddr: 0xA8, symBinAddr: 0x10001E598, symSize: 0x9C }
  - { offsetInCU: 0xE21D, offset: 0xB9BBD, size: 0x8, addend: 0x0, symName: __ZNK6Cursor6getRowEv, symObjAddr: 0x15C, symBinAddr: 0x10001E634, symSize: 0x18 }
  - { offsetInCU: 0xE243, offset: 0xB9BE3, size: 0x8, addend: 0x0, symName: __ZN12IndentActionD1Ev, symObjAddr: 0x1B0, symBinAddr: 0x10001E64C, symSize: 0x2C }
  - { offsetInCU: 0xE26D, offset: 0xB9C0D, size: 0x8, addend: 0x0, symName: __ZN12IndentActionD0Ev, symObjAddr: 0x1DC, symBinAddr: 0x10001E678, symSize: 0x30 }
  - { offsetInCU: 0xE297, offset: 0xB9C37, size: 0x8, addend: 0x0, symName: __ZN12IndentActionD2Ev, symObjAddr: 0x284, symBinAddr: 0x10001E6A8, symSize: 0x2C }
  - { offsetInCU: 0x26, offset: 0xB9C91, size: 0x8, addend: 0x0, symName: __ZN24ParagraphSplittingAction5applyER16ExecutionContext, symObjAddr: 0x0, symBinAddr: 0x10001E6D4, symSize: 0x2C }
  - { offsetInCU: 0xE147, offset: 0xC7DB2, size: 0x8, addend: 0x0, symName: __ZN24ParagraphSplittingAction5applyER16ExecutionContext, symObjAddr: 0x0, symBinAddr: 0x10001E6D4, symSize: 0x2C }
  - { offsetInCU: 0xE17D, offset: 0xC7DE8, size: 0x8, addend: 0x0, symName: __ZN24ParagraphSplittingActionD1Ev, symObjAddr: 0x2C, symBinAddr: 0x10001E700, symSize: 0x2C }
  - { offsetInCU: 0xE1A7, offset: 0xC7E12, size: 0x8, addend: 0x0, symName: __ZN24ParagraphSplittingActionD0Ev, symObjAddr: 0x58, symBinAddr: 0x10001E72C, symSize: 0x30 }
  - { offsetInCU: 0xE1D1, offset: 0xC7E3C, size: 0x8, addend: 0x0, symName: __ZN24ParagraphSplittingActionD2Ev, symObjAddr: 0xB4, symBinAddr: 0x10001E75C, symSize: 0x2C }
  - { offsetInCU: 0x26, offset: 0xC7E91, size: 0x8, addend: 0x0, symName: __ZN12RangedActionC2E8PositionS0_, symObjAddr: 0x0, symBinAddr: 0x10001E788, symSize: 0x5C }
  - { offsetInCU: 0x29FC, offset: 0xCA867, size: 0x8, addend: 0x0, symName: __ZN12RangedActionC2E8PositionS0_, symObjAddr: 0x0, symBinAddr: 0x10001E788, symSize: 0x5C }
  - { offsetInCU: 0x2A44, offset: 0xCA8AF, size: 0x8, addend: 0x0, symName: __ZN12RangedActionD1Ev, symObjAddr: 0x80, symBinAddr: 0x10001E7E4, symSize: 0x14 }
  - { offsetInCU: 0x2A6E, offset: 0xCA8D9, size: 0x8, addend: 0x0, symName: __ZN12RangedActionD0Ev, symObjAddr: 0x94, symBinAddr: 0x10001E7F8, symSize: 0xC }
  - { offsetInCU: 0xE204, offset: 0xD8B0C, size: 0x8, addend: 0x0, symName: __ZN10SaveActionC2E16SaveConfirmation, symObjAddr: 0x0, symBinAddr: 0x10001E804, symSize: 0x50 }
  - { offsetInCU: 0xE23E, offset: 0xD8B46, size: 0x8, addend: 0x0, symName: __ZN10SaveActionC1E16SaveConfirmation, symObjAddr: 0x74, symBinAddr: 0x10001E854, symSize: 0x34 }
  - { offsetInCU: 0xE278, offset: 0xD8B80, size: 0x8, addend: 0x0, symName: __ZN10SaveAction5applyER16ExecutionContext, symObjAddr: 0xA8, symBinAddr: 0x10001E888, symSize: 0xAC }
  - { offsetInCU: 0xE2AE, offset: 0xD8BB6, size: 0x8, addend: 0x0, symName: __ZN11EditorState7getFileEv, symObjAddr: 0x154, symBinAddr: 0x10001E934, symSize: 0x14 }
  - { offsetInCU: 0xE2D9, offset: 0xD8BE1, size: 0x8, addend: 0x0, symName: __ZN10SaveActionD1Ev, symObjAddr: 0x19C, symBinAddr: 0x10001E948, symSize: 0x2C }
  - { offsetInCU: 0xE303, offset: 0xD8C0B, size: 0x8, addend: 0x0, symName: __ZN10SaveActionD0Ev, symObjAddr: 0x1C8, symBinAddr: 0x10001E974, symSize: 0x30 }
  - { offsetInCU: 0xE32D, offset: 0xD8C35, size: 0x8, addend: 0x0, symName: __ZN10SaveActionD2Ev, symObjAddr: 0x3F8, symBinAddr: 0x10001E9A4, symSize: 0x2C }
  - { offsetInCU: 0x26, offset: 0xD8C8F, size: 0x8, addend: 0x0, symName: __ZN17SectionMoveActionC2E8PositionS0_9Direction, symObjAddr: 0x0, symBinAddr: 0x10001E9D0, symSize: 0x70 }
  - { offsetInCU: 0xE1DC, offset: 0xE6E45, size: 0x8, addend: 0x0, symName: __ZN17SectionMoveActionC2E8PositionS0_9Direction, symObjAddr: 0x0, symBinAddr: 0x10001E9D0, symSize: 0x70 }
  - { offsetInCU: 0xE232, offset: 0xE6E9B, size: 0x8, addend: 0x0, symName: __ZN17SectionMoveActionC1E8PositionS0_9Direction, symObjAddr: 0x70, symBinAddr: 0x10001EA40, symSize: 0x44 }
  - { offsetInCU: 0xE288, offset: 0xE6EF1, size: 0x8, addend: 0x0, symName: __ZN17SectionMoveAction5applyER16ExecutionContext, symObjAddr: 0xB4, symBinAddr: 0x10001EA84, symSize: 0x7C }
  - { offsetInCU: 0xE2BE, offset: 0xE6F27, size: 0x8, addend: 0x0, symName: __ZN17SectionMoveActionD1Ev, symObjAddr: 0x130, symBinAddr: 0x10001EB00, symSize: 0x2C }
  - { offsetInCU: 0xE2E8, offset: 0xE6F51, size: 0x8, addend: 0x0, symName: __ZN17SectionMoveActionD0Ev, symObjAddr: 0x15C, symBinAddr: 0x10001EB2C, symSize: 0x30 }
  - { offsetInCU: 0xE312, offset: 0xE6F7B, size: 0x8, addend: 0x0, symName: __ZN17SectionMoveActionD2Ev, symObjAddr: 0x1B8, symBinAddr: 0x10001EB5C, symSize: 0x2C }
  - { offsetInCU: 0xE33C, offset: 0xE6FA5, size: 0x8, addend: 0x0, symName: __ZN12RangedActionD2Ev, symObjAddr: 0x1E4, symBinAddr: 0x10001EB88, symSize: 0x2C }
  - { offsetInCU: 0xBA0F, offset: 0xF29E8, size: 0x8, addend: 0x0, symName: __ZNSt3__1plB8ue170006IcNS_11char_traitsIcEENS_9allocatorIcEEEENS_12basic_stringIT_T0_T1_EEOS9_SA_, symObjAddr: 0x524, symBinAddr: 0x10001EF9C, symSize: 0x40 }
  - { offsetInCU: 0xE454, offset: 0xF542D, size: 0x8, addend: 0x0, symName: __ZN12InsertActionC2ENSt3__16vectorINS0_12basic_stringIcNS0_11char_traitsIcEENS0_9allocatorIcEEEENS5_IS7_EEEE8Position, symObjAddr: 0x0, symBinAddr: 0x10001EBB4, symSize: 0x90 }
  - { offsetInCU: 0xE49D, offset: 0xF5476, size: 0x8, addend: 0x0, symName: __ZN12InsertActionC1ENSt3__16vectorINS0_12basic_stringIcNS0_11char_traitsIcEENS0_9allocatorIcEEEENS5_IS7_EEEE8Position, symObjAddr: 0xFC, symBinAddr: 0x10001EC44, symSize: 0x3C }
  - { offsetInCU: 0xE4E6, offset: 0xF54BF, size: 0x8, addend: 0x0, symName: __ZN12InsertAction5applyER16ExecutionContext, symObjAddr: 0x138, symBinAddr: 0x10001EC80, symSize: 0x130 }
  - { offsetInCU: 0xE52C, offset: 0xF5505, size: 0x8, addend: 0x0, symName: __ZN12InsertAction4undoER11EditorState, symObjAddr: 0x338, symBinAddr: 0x10001EDB0, symSize: 0x1EC }
  - { offsetInCU: 0xE571, offset: 0xF554A, size: 0x8, addend: 0x0, symName: __ZNK8Position6formatEv, symObjAddr: 0x5A8, symBinAddr: 0x10001EFDC, symSize: 0x164 }
  - { offsetInCU: 0xE597, offset: 0xF5570, size: 0x8, addend: 0x0, symName: __ZNK12InsertAction11canBeUndoneEv, symObjAddr: 0x70C, symBinAddr: 0x10001F140, symSize: 0x18 }
  - { offsetInCU: 0xE5BF, offset: 0xF5598, size: 0x8, addend: 0x0, symName: __ZN12InsertActionD1Ev, symObjAddr: 0x724, symBinAddr: 0x10001F158, symSize: 0x2C }
  - { offsetInCU: 0xE5E9, offset: 0xF55C2, size: 0x8, addend: 0x0, symName: __ZN12InsertActionD0Ev, symObjAddr: 0x750, symBinAddr: 0x10001F184, symSize: 0x30 }
  - { offsetInCU: 0xE636, offset: 0xF560F, size: 0x8, addend: 0x0, symName: __ZN12InsertActionD2Ev, symObjAddr: 0x2500, symBinAddr: 0x10001F1B4, symSize: 0x48 }
  - { offsetInCU: 0xE204, offset: 0x103850, size: 0x8, addend: 0x0, symName: __ZN10QuitActionC2E8QuitMode, symObjAddr: 0x0, symBinAddr: 0x10001F1FC, symSize: 0x50 }
  - { offsetInCU: 0xE23E, offset: 0x10388A, size: 0x8, addend: 0x0, symName: __ZN10QuitActionC1E8QuitMode, symObjAddr: 0x74, symBinAddr: 0x10001F24C, symSize: 0x34 }
  - { offsetInCU: 0xE278, offset: 0x1038C4, size: 0x8, addend: 0x0, symName: __ZN10QuitAction5applyER16ExecutionContext, symObjAddr: 0xA8, symBinAddr: 0x10001F280, symSize: 0xC8 }
  - { offsetInCU: 0xE2BD, offset: 0x103909, size: 0x8, addend: 0x0, symName: __ZNK11EditorState12getSaveStateEv, symObjAddr: 0x170, symBinAddr: 0x10001F348, symSize: 0x24 }
  - { offsetInCU: 0xE2E8, offset: 0x103934, size: 0x8, addend: 0x0, symName: __ZN11EditorState9setIsQuitEb, symObjAddr: 0x1C8, symBinAddr: 0x10001F36C, symSize: 0x2C }
  - { offsetInCU: 0xE31C, offset: 0x103968, size: 0x8, addend: 0x0, symName: __ZN10QuitActionD1Ev, symObjAddr: 0x1F4, symBinAddr: 0x10001F398, symSize: 0x2C }
  - { offsetInCU: 0xE346, offset: 0x103992, size: 0x8, addend: 0x0, symName: __ZN10QuitActionD0Ev, symObjAddr: 0x220, symBinAddr: 0x10001F3C4, symSize: 0x30 }
  - { offsetInCU: 0xE370, offset: 0x1039BC, size: 0x8, addend: 0x0, symName: __ZNK8TextFile12getSaveStateEv, symObjAddr: 0x29C, symBinAddr: 0x10001F3F4, symSize: 0x18 }
  - { offsetInCU: 0xE396, offset: 0x1039E2, size: 0x8, addend: 0x0, symName: __ZN10QuitActionD2Ev, symObjAddr: 0x468, symBinAddr: 0x10001F40C, symSize: 0x2C }
  - { offsetInCU: 0x26, offset: 0x103A46, size: 0x8, addend: 0x0, symName: __ZN22ParagraphJoiningAction5applyER16ExecutionContext, symObjAddr: 0x0, symBinAddr: 0x10001F438, symSize: 0x8C }
  - { offsetInCU: 0xE1C1, offset: 0x111BE1, size: 0x8, addend: 0x0, symName: __ZN22ParagraphJoiningAction5applyER16ExecutionContext, symObjAddr: 0x0, symBinAddr: 0x10001F438, symSize: 0x8C }
  - { offsetInCU: 0xE206, offset: 0x111C26, size: 0x8, addend: 0x0, symName: __ZNK11EditorState21getNumberOfParagrahpsEv, symObjAddr: 0xBC, symBinAddr: 0x10001F4C4, symSize: 0x2C }
  - { offsetInCU: 0xE22C, offset: 0x111C4C, size: 0x8, addend: 0x0, symName: __ZN22ParagraphJoiningActionD1Ev, symObjAddr: 0xE8, symBinAddr: 0x10001F4F0, symSize: 0x2C }
  - { offsetInCU: 0xE256, offset: 0x111C76, size: 0x8, addend: 0x0, symName: __ZN22ParagraphJoiningActionD0Ev, symObjAddr: 0x114, symBinAddr: 0x10001F51C, symSize: 0x30 }
  - { offsetInCU: 0xE280, offset: 0x111CA0, size: 0x8, addend: 0x0, symName: __ZN22ParagraphJoiningActionD2Ev, symObjAddr: 0x170, symBinAddr: 0x10001F54C, symSize: 0x2C }
  - { offsetInCU: 0x26, offset: 0x111CFA, size: 0x8, addend: 0x0, symName: __ZN23FixedPositionMoveActionC2E10ScreenSize8Position, symObjAddr: 0x0, symBinAddr: 0x10001F578, symSize: 0x5C }
  - { offsetInCU: 0xB83A, offset: 0x11D50E, size: 0x8, addend: 0x0, symName: __ZNSt3__13minB8ue170006IiEERKT_S3_S3_, symObjAddr: 0x3AC, symBinAddr: 0x10001F8B0, symSize: 0x2C }
  - { offsetInCU: 0xB87D, offset: 0x11D551, size: 0x8, addend: 0x0, symName: __ZNSt3__13minB8ue170006IiNS_6__lessIvvEEEERKT_S5_S5_T0_, symObjAddr: 0x608, symBinAddr: 0x10001F938, symSize: 0x54 }
  - { offsetInCU: 0xE1E4, offset: 0x11FEB8, size: 0x8, addend: 0x0, symName: __ZN23FixedPositionMoveActionC2E10ScreenSize8Position, symObjAddr: 0x0, symBinAddr: 0x10001F578, symSize: 0x5C }
  - { offsetInCU: 0xE22C, offset: 0x11FF00, size: 0x8, addend: 0x0, symName: __ZN23FixedPositionMoveActionC1E10ScreenSize8Position, symObjAddr: 0x80, symBinAddr: 0x10001F5D4, symSize: 0x3C }
  - { offsetInCU: 0xE274, offset: 0x11FF48, size: 0x8, addend: 0x0, symName: __ZN23FixedPositionMoveAction5applyER16ExecutionContext, symObjAddr: 0xBC, symBinAddr: 0x10001F610, symSize: 0x2A0 }
  - { offsetInCU: 0xE36E, offset: 0x120042, size: 0x8, addend: 0x0, symName: __ZN23FixedPositionMoveActionD1Ev, symObjAddr: 0x440, symBinAddr: 0x10001F8DC, symSize: 0x2C }
  - { offsetInCU: 0xE398, offset: 0x12006C, size: 0x8, addend: 0x0, symName: __ZN23FixedPositionMoveActionD0Ev, symObjAddr: 0x46C, symBinAddr: 0x10001F908, symSize: 0x30 }
  - { offsetInCU: 0xE3CC, offset: 0x1200A0, size: 0x8, addend: 0x0, symName: __ZN23FixedPositionMoveActionD2Ev, symObjAddr: 0x6BC, symBinAddr: 0x10001F98C, symSize: 0x2C }
  - { offsetInCU: 0x26, offset: 0x1200F5, size: 0x8, addend: 0x0, symName: __ZN14UnindentActionC2Ei, symObjAddr: 0x0, symBinAddr: 0x10001F9B8, symSize: 0x50 }
  - { offsetInCU: 0xE142, offset: 0x12E211, size: 0x8, addend: 0x0, symName: __ZN14UnindentActionC2Ei, symObjAddr: 0x0, symBinAddr: 0x10001F9B8, symSize: 0x50 }
  - { offsetInCU: 0xE17C, offset: 0x12E24B, size: 0x8, addend: 0x0, symName: __ZN14UnindentActionC1Ei, symObjAddr: 0x74, symBinAddr: 0x10001FA08, symSize: 0x34 }
  - { offsetInCU: 0xE1B6, offset: 0x12E285, size: 0x8, addend: 0x0, symName: __ZN14UnindentAction5applyER16ExecutionContext, symObjAddr: 0xA8, symBinAddr: 0x10001FA3C, symSize: 0xFC }
  - { offsetInCU: 0xE244, offset: 0x12E313, size: 0x8, addend: 0x0, symName: __ZN14UnindentActionD1Ev, symObjAddr: 0x250, symBinAddr: 0x10001FB38, symSize: 0x2C }
  - { offsetInCU: 0xE26E, offset: 0x12E33D, size: 0x8, addend: 0x0, symName: __ZN14UnindentActionD0Ev, symObjAddr: 0x27C, symBinAddr: 0x10001FB64, symSize: 0x30 }
  - { offsetInCU: 0xE298, offset: 0x12E367, size: 0x8, addend: 0x0, symName: __ZN14UnindentActionD2Ev, symObjAddr: 0x338, symBinAddr: 0x10001FB94, symSize: 0x2C }
  - { offsetInCU: 0xBBDC, offset: 0x139F72, size: 0x8, addend: 0x0, symName: __ZNSt3__1neB8ue170006IPNS_12basic_stringIcNS_11char_traitsIcEENS_9allocatorIcEEEEEEbRKNS_11__wrap_iterIT_EESC_, symObjAddr: 0x700, symBinAddr: 0x10001FFD8, symSize: 0x34 }
  - { offsetInCU: 0xBC1F, offset: 0x139FB5, size: 0x8, addend: 0x0, symName: __ZNSt3__1eqB8ue170006IPNS_12basic_stringIcNS_11char_traitsIcEENS_9allocatorIcEEEEEEbRKNS_11__wrap_iterIT_EESC_, symObjAddr: 0x29D0, symBinAddr: 0x1000201E8, symSize: 0x48 }
  - { offsetInCU: 0xE663, offset: 0x13C9F9, size: 0x8, addend: 0x0, symName: __ZN13CaseSetActionC2E8PositionS0_4Case, symObjAddr: 0x0, symBinAddr: 0x10001FBC0, symSize: 0x7C }
  - { offsetInCU: 0xE6B9, offset: 0x13CA4F, size: 0x8, addend: 0x0, symName: __ZN13CaseSetActionC1E8PositionS0_4Case, symObjAddr: 0xA8, symBinAddr: 0x10001FC3C, symSize: 0x44 }
  - { offsetInCU: 0xE70F, offset: 0x13CAA5, size: 0x8, addend: 0x0, symName: __ZN13CaseSetAction5applyER16ExecutionContext, symObjAddr: 0xEC, symBinAddr: 0x10001FC80, symSize: 0x2F8 }
  - { offsetInCU: 0xE7AA, offset: 0x13CB40, size: 0x8, addend: 0x0, symName: __ZNSt3__16vectorINS_12basic_stringIcNS_11char_traitsIcEENS_9allocatorIcEEEENS4_IS6_EEE5beginB8ue170006Ev, symObjAddr: 0x6A0, symBinAddr: 0x10001FF78, symSize: 0x30 }
  - { offsetInCU: 0xE7D2, offset: 0x13CB68, size: 0x8, addend: 0x0, symName: __ZNSt3__16vectorINS_12basic_stringIcNS_11char_traitsIcEENS_9allocatorIcEEEENS4_IS6_EEE3endB8ue170006Ev, symObjAddr: 0x6D0, symBinAddr: 0x10001FFA8, symSize: 0x30 }
  - { offsetInCU: 0xE7FA, offset: 0x13CB90, size: 0x8, addend: 0x0, symName: __ZNKSt3__111__wrap_iterIPNS_12basic_stringIcNS_11char_traitsIcEENS_9allocatorIcEEEEEdeB8ue170006Ev, symObjAddr: 0x734, symBinAddr: 0x10002000C, symSize: 0x18 }
  - { offsetInCU: 0xE820, offset: 0x13CBB6, size: 0x8, addend: 0x0, symName: __ZNSt3__111__wrap_iterIPNS_12basic_stringIcNS_11char_traitsIcEENS_9allocatorIcEEEEEppB8ue170006Ev, symObjAddr: 0x74C, symBinAddr: 0x100020024, symSize: 0x20 }
  - { offsetInCU: 0xE846, offset: 0x13CBDC, size: 0x8, addend: 0x0, symName: __ZN13CaseSetAction4undoER11EditorState, symObjAddr: 0x76C, symBinAddr: 0x100020044, symSize: 0xAC }
  - { offsetInCU: 0xE87C, offset: 0x13CC12, size: 0x8, addend: 0x0, symName: __ZNK13CaseSetAction11canBeUndoneEv, symObjAddr: 0x818, symBinAddr: 0x1000200F0, symSize: 0x18 }
  - { offsetInCU: 0xE8A4, offset: 0x13CC3A, size: 0x8, addend: 0x0, symName: __ZN13CaseSetActionD1Ev, symObjAddr: 0x830, symBinAddr: 0x100020108, symSize: 0x2C }
  - { offsetInCU: 0xE8CE, offset: 0x13CC64, size: 0x8, addend: 0x0, symName: __ZN13CaseSetActionD0Ev, symObjAddr: 0x85C, symBinAddr: 0x100020134, symSize: 0x30 }
  - { offsetInCU: 0xE91B, offset: 0x13CCB1, size: 0x8, addend: 0x0, symName: __ZNSt3__16vectorINS_12basic_stringIcNS_11char_traitsIcEENS_9allocatorIcEEEENS4_IS6_EEE11__make_iterB8ue170006EPS6_, symObjAddr: 0x294C, symBinAddr: 0x100020164, symSize: 0x30 }
  - { offsetInCU: 0xE950, offset: 0x13CCE6, size: 0x8, addend: 0x0, symName: __ZNSt3__111__wrap_iterIPNS_12basic_stringIcNS_11char_traitsIcEENS_9allocatorIcEEEEEC1B8ue170006ES7_, symObjAddr: 0x297C, symBinAddr: 0x100020194, symSize: 0x34 }
  - { offsetInCU: 0xE988, offset: 0x13CD1E, size: 0x8, addend: 0x0, symName: __ZNSt3__111__wrap_iterIPNS_12basic_stringIcNS_11char_traitsIcEENS_9allocatorIcEEEEEC2B8ue170006ES7_, symObjAddr: 0x29B0, symBinAddr: 0x1000201C8, symSize: 0x20 }
  - { offsetInCU: 0xE9C0, offset: 0x13CD56, size: 0x8, addend: 0x0, symName: __ZNKSt3__111__wrap_iterIPNS_12basic_stringIcNS_11char_traitsIcEENS_9allocatorIcEEEEE4baseB8ue170006Ev, symObjAddr: 0x2A18, symBinAddr: 0x100020230, symSize: 0x18 }
  - { offsetInCU: 0xE9E6, offset: 0x13CD7C, size: 0x8, addend: 0x0, symName: __ZN13CaseSetActionD2Ev, symObjAddr: 0x2A30, symBinAddr: 0x100020248, symSize: 0x48 }
  - { offsetInCU: 0x26, offset: 0x13CDE9, size: 0x8, addend: 0x0, symName: __ZN18CharwiseMoveActionC2E10ScreenSize9Direction, symObjAddr: 0x0, symBinAddr: 0x100020290, symSize: 0x5C }
  - { offsetInCU: 0xE147, offset: 0x14AF0A, size: 0x8, addend: 0x0, symName: __ZN18CharwiseMoveActionC2E10ScreenSize9Direction, symObjAddr: 0x0, symBinAddr: 0x100020290, symSize: 0x5C }
  - { offsetInCU: 0xE18F, offset: 0x14AF52, size: 0x8, addend: 0x0, symName: __ZN18CharwiseMoveActionC1E10ScreenSize9Direction, symObjAddr: 0x80, symBinAddr: 0x1000202EC, symSize: 0x3C }
  - { offsetInCU: 0xE1D7, offset: 0x14AF9A, size: 0x8, addend: 0x0, symName: __ZN18CharwiseMoveAction5applyER16ExecutionContext, symObjAddr: 0xBC, symBinAddr: 0x100020328, symSize: 0x104 }
  - { offsetInCU: 0xE20D, offset: 0x14AFD0, size: 0x8, addend: 0x0, symName: __ZNSt16invalid_argumentC1B8ue170006EPKc, symObjAddr: 0x1D0, symBinAddr: 0x10002043C, symSize: 0x34 }
  - { offsetInCU: 0xE245, offset: 0x14B008, size: 0x8, addend: 0x0, symName: __ZN18CharwiseMoveActionD1Ev, symObjAddr: 0x204, symBinAddr: 0x100020470, symSize: 0x2C }
  - { offsetInCU: 0xE26F, offset: 0x14B032, size: 0x8, addend: 0x0, symName: __ZN18CharwiseMoveActionD0Ev, symObjAddr: 0x230, symBinAddr: 0x10002049C, symSize: 0x30 }
  - { offsetInCU: 0xE299, offset: 0x14B05C, size: 0x8, addend: 0x0, symName: __ZNSt16invalid_argumentC2B8ue170006EPKc, symObjAddr: 0x2AC, symBinAddr: 0x1000204CC, symSize: 0x4C }
  - { offsetInCU: 0xE2D1, offset: 0x14B094, size: 0x8, addend: 0x0, symName: __ZN18CharwiseMoveActionD2Ev, symObjAddr: 0x2F8, symBinAddr: 0x100020518, symSize: 0x2C }
  - { offsetInCU: 0x66, offset: 0x14B12E, size: 0x8, addend: 0x0, symName: __ZNSt3__16ranges5__cpo9iter_moveE, symObjAddr: 0x56B8, symBinAddr: 0x100058360, symSize: 0x0 }
  - { offsetInCU: 0xDC59, offset: 0x158D21, size: 0x8, addend: 0x0, symName: __ZNSt3__14swapB8ue170006IPPNS_10shared_ptrI6ActionEEEENS_9enable_ifIXaasr21is_move_constructibleIT_EE5valuesr18is_move_assignableIS7_EE5valueEvE4typeERS7_SA_, symObjAddr: 0x2F44, symBinAddr: 0x100021C58, symSize: 0x3C }
  - { offsetInCU: 0xDCAB, offset: 0x158D73, size: 0x8, addend: 0x0, symName: __ZNSt3__14moveB8ue170006IPPNS_10shared_ptrI6ActionEES5_EET0_T_S7_S6_, symObjAddr: 0x3028, symBinAddr: 0x100021D3C, symSize: 0x40 }
  - { offsetInCU: 0xDD05, offset: 0x158DCD, size: 0x8, addend: 0x0, symName: __ZNSt3__16__moveB8ue170006INS_17_ClassicAlgPolicyEPPNS_10shared_ptrI6ActionEES6_S6_EENS_4pairIT0_T2_EES8_T1_S9_, symObjAddr: 0x312C, symBinAddr: 0x100021E40, symSize: 0x44 }
  - { offsetInCU: 0xDD71, offset: 0x158E39, size: 0x8, addend: 0x0, symName: __ZNSt3__123__dispatch_copy_or_moveB8ue170006INS_17_ClassicAlgPolicyENS_11__move_loopIS1_EENS_14__move_trivialEPPNS_10shared_ptrI6ActionEES9_S9_EENS_4pairIT2_T4_EESB_T3_SC_, symObjAddr: 0x3170, symBinAddr: 0x100021E84, symSize: 0x44 }
  - { offsetInCU: 0xDDEF, offset: 0x158EB7, size: 0x8, addend: 0x0, symName: __ZNSt3__121__unwrap_and_dispatchB8ue170006INS_10__overloadINS_11__move_loopINS_17_ClassicAlgPolicyEEENS_14__move_trivialEEEPPNS_10shared_ptrI6ActionEESB_SB_Li0EEENS_4pairIT0_T2_EESD_T1_SE_, symObjAddr: 0x31B4, symBinAddr: 0x100021EC8, symSize: 0xB4 }
  - { offsetInCU: 0xDE7F, offset: 0x158F47, size: 0x8, addend: 0x0, symName: __ZNSt3__114__unwrap_rangeB8ue170006IPPNS_10shared_ptrI6ActionEES5_EEDaT_T0_, symObjAddr: 0x3268, symBinAddr: 0x100021F7C, symSize: 0x3C }
  - { offsetInCU: 0xE046, offset: 0x15910E, size: 0x8, addend: 0x0, symName: __ZNSt3__113__unwrap_iterB8ue170006IPPNS_10shared_ptrI6ActionEENS_18__unwrap_iter_implIS5_Lb1EEELi0EEEDTclsrT0_8__unwrapclsr3stdE7declvalIT_EEEES9_, symObjAddr: 0x32EC, symBinAddr: 0x100022000, symSize: 0x24 }
  - { offsetInCU: 0xE08A, offset: 0x159152, size: 0x8, addend: 0x0, symName: __ZNSt3__19make_pairB8ue170006IPPNS_10shared_ptrI6ActionEES5_EENS_4pairINS_18__unwrap_ref_decayIT_E4typeENS7_IT0_E4typeEEEOS8_OSB_, symObjAddr: 0x3310, symBinAddr: 0x100022024, symSize: 0x38 }
  - { offsetInCU: 0xE0D9, offset: 0x1591A1, size: 0x8, addend: 0x0, symName: __ZNSt3__114__rewrap_rangeB8ue170006IPPNS_10shared_ptrI6ActionEES5_S5_EET0_S6_T1_, symObjAddr: 0x3348, symBinAddr: 0x10002205C, symSize: 0x2C }
  - { offsetInCU: 0xE12E, offset: 0x1591F6, size: 0x8, addend: 0x0, symName: __ZNSt3__113__rewrap_iterB8ue170006IPPNS_10shared_ptrI6ActionEES5_NS_18__unwrap_iter_implIS5_Lb1EEEEET_S8_T0_, symObjAddr: 0x3374, symBinAddr: 0x100022088, symSize: 0x3C }
  - { offsetInCU: 0xE1D3, offset: 0x15929B, size: 0x8, addend: 0x0, symName: __ZNSt3__119__copy_trivial_implB8ue170006IPNS_10shared_ptrI6ActionEES4_EENS_4pairIPT_PT0_EES7_S7_S9_, symObjAddr: 0x3478, symBinAddr: 0x10002218C, symSize: 0x80 }
  - { offsetInCU: 0xE23C, offset: 0x159304, size: 0x8, addend: 0x0, symName: __ZNSt3__119__constexpr_memmoveB8ue170006IPNS_10shared_ptrI6ActionEES4_Li0EEEPT_S6_PT0_NS_15__element_countE, symObjAddr: 0x34F8, symBinAddr: 0x10002220C, symSize: 0x64 }
  - { offsetInCU: 0xE2AB, offset: 0x159373, size: 0x8, addend: 0x0, symName: __ZNSt3__19make_pairB8ue170006IRPPNS_10shared_ptrI6ActionEES5_EENS_4pairINS_18__unwrap_ref_decayIT_E4typeENS8_IT0_E4typeEEEOS9_OSC_, symObjAddr: 0x355C, symBinAddr: 0x100022270, symSize: 0x38 }
  - { offsetInCU: 0xE34D, offset: 0x159415, size: 0x8, addend: 0x0, symName: __ZNSt3__18distanceB8ue170006INS_13move_iteratorIPPNS_10shared_ptrI6ActionEEEEEENS_15iterator_traitsIT_E15difference_typeES9_S9_, symObjAddr: 0x3780, symBinAddr: 0x100022494, symSize: 0x3C }
  - { offsetInCU: 0xE3B7, offset: 0x15947F, size: 0x8, addend: 0x0, symName: __ZNSt3__112construct_atB8ue170006IPNS_10shared_ptrI6ActionEEJS4_EPS4_EEPT_S7_DpOT0_, symObjAddr: 0x390C, symBinAddr: 0x100022620, symSize: 0x2C }
  - { offsetInCU: 0xE429, offset: 0x1594F1, size: 0x8, addend: 0x0, symName: __ZNSt3__110__distanceB8ue170006INS_13move_iteratorIPPNS_10shared_ptrI6ActionEEEEEENS_15iterator_traitsIT_E15difference_typeES9_S9_NS_26random_access_iterator_tagE, symObjAddr: 0x39B4, symBinAddr: 0x1000226C8, symSize: 0x30 }
  - { offsetInCU: 0xE477, offset: 0x15953F, size: 0x8, addend: 0x0, symName: __ZNSt3__1miB8ue170006IPPNS_10shared_ptrI6ActionEES5_EEDTmicldtfp_4baseEcldtfp0_4baseEERKNS_13move_iteratorIT_EERKNS7_IT0_EE, symObjAddr: 0x39E4, symBinAddr: 0x1000226F8, symSize: 0x4C }
  - { offsetInCU: 0xE4C6, offset: 0x15958E, size: 0x8, addend: 0x0, symName: __ZNSt3__112construct_atB8ue170006IPNS_10shared_ptrI6ActionEEJRKS4_EPS4_EEPT_S9_DpOT0_, symObjAddr: 0x3A64, symBinAddr: 0x100022778, symSize: 0x2C }
  - { offsetInCU: 0xE538, offset: 0x159600, size: 0x8, addend: 0x0, symName: __ZNSt3__113move_backwardB8ue170006IPPNS_10shared_ptrI6ActionEES5_EET0_T_S7_S6_, symObjAddr: 0x3C10, symBinAddr: 0x1000227A4, symSize: 0x40 }
  - { offsetInCU: 0xE592, offset: 0x15965A, size: 0x8, addend: 0x0, symName: __ZNSt3__115__move_backwardB8ue170006INS_17_ClassicAlgPolicyEPPNS_10shared_ptrI6ActionEES6_S6_EENS_4pairIT0_T2_EES8_T1_S9_, symObjAddr: 0x3C50, symBinAddr: 0x1000227E4, symSize: 0x44 }
  - { offsetInCU: 0xE5FE, offset: 0x1596C6, size: 0x8, addend: 0x0, symName: __ZNSt3__123__dispatch_copy_or_moveB8ue170006INS_17_ClassicAlgPolicyENS_20__move_backward_loopIS1_EENS_23__move_backward_trivialEPPNS_10shared_ptrI6ActionEES9_S9_EENS_4pairIT2_T4_EESB_T3_SC_, symObjAddr: 0x3C94, symBinAddr: 0x100022828, symSize: 0x44 }
  - { offsetInCU: 0xE67C, offset: 0x159744, size: 0x8, addend: 0x0, symName: __ZNSt3__121__unwrap_and_dispatchB8ue170006INS_10__overloadINS_20__move_backward_loopINS_17_ClassicAlgPolicyEEENS_23__move_backward_trivialEEEPPNS_10shared_ptrI6ActionEESB_SB_Li0EEENS_4pairIT0_T2_EESD_T1_SE_, symObjAddr: 0x3CD8, symBinAddr: 0x10002286C, symSize: 0xB4 }
  - { offsetInCU: 0xE752, offset: 0x15981A, size: 0x8, addend: 0x0, symName: __ZNSt3__128__copy_backward_trivial_implB8ue170006IPNS_10shared_ptrI6ActionEES4_EENS_4pairIPT_PT0_EES7_S7_S9_, symObjAddr: 0x3DD4, symBinAddr: 0x100022968, symSize: 0x90 }
  - { offsetInCU: 0xE7BB, offset: 0x159883, size: 0x8, addend: 0x0, symName: __ZNSt3__19make_pairB8ue170006IRPPNS_10shared_ptrI6ActionEES6_EENS_4pairINS_18__unwrap_ref_decayIT_E4typeENS8_IT0_E4typeEEEOS9_OSC_, symObjAddr: 0x3E64, symBinAddr: 0x1000229F8, symSize: 0x38 }
  - { offsetInCU: 0xE80A, offset: 0x1598D2, size: 0x8, addend: 0x0, symName: __ZNSt3__119__allocate_at_leastB8ue170006INS_9allocatorIPNS_10shared_ptrI6ActionEEEEEENS_19__allocation_resultINS_16allocator_traitsIT_E7pointerEEERS9_m, symObjAddr: 0x40A4, symBinAddr: 0x100022BB0, symSize: 0x40 }
  - { offsetInCU: 0x114D1, offset: 0x15C599, size: 0x8, addend: 0x0, symName: __ZN7History3addENSt3__110shared_ptrI6ActionEE, symObjAddr: 0x0, symBinAddr: 0x100020544, symSize: 0xA8 }
  - { offsetInCU: 0x11508, offset: 0x15C5D0, size: 0x8, addend: 0x0, symName: __ZNKSt3__110shared_ptrI6ActionEptB8ue170006Ev, symObjAddr: 0xA8, symBinAddr: 0x1000205EC, symSize: 0x18 }
  - { offsetInCU: 0x1152E, offset: 0x15C5F6, size: 0x8, addend: 0x0, symName: __ZNSt3__15dequeINS_10shared_ptrI6ActionEENS_9allocatorIS3_EEE9push_backERKS3_, symObjAddr: 0xC0, symBinAddr: 0x100020604, symSize: 0xAC }
  - { offsetInCU: 0x11574, offset: 0x15C63C, size: 0x8, addend: 0x0, symName: __ZNSt3__15stackINS_10shared_ptrI6ActionEENS_5dequeIS3_NS_9allocatorIS3_EEEEEC1B8ue170006Ev, symObjAddr: 0x16C, symBinAddr: 0x1000206B0, symSize: 0x2C }
  - { offsetInCU: 0x1159E, offset: 0x15C666, size: 0x8, addend: 0x0, symName: __ZNSt3__15stackINS_10shared_ptrI6ActionEENS_5dequeIS3_NS_9allocatorIS3_EEEEEaSB8ue170006EOS8_, symObjAddr: 0x198, symBinAddr: 0x1000206DC, symSize: 0x34 }
  - { offsetInCU: 0x115D2, offset: 0x15C69A, size: 0x8, addend: 0x0, symName: __ZNSt3__15dequeINS_10shared_ptrI6ActionEENS_9allocatorIS3_EEE9pop_frontEv, symObjAddr: 0x220, symBinAddr: 0x100020710, symSize: 0xD4 }
  - { offsetInCU: 0x11627, offset: 0x15C6EF, size: 0x8, addend: 0x0, symName: __ZN7History4undoER11EditorState, symObjAddr: 0x2F4, symBinAddr: 0x1000207E4, symSize: 0x100 }
  - { offsetInCU: 0x11671, offset: 0x15C739, size: 0x8, addend: 0x0, symName: __ZNSt3__15dequeINS_10shared_ptrI6ActionEENS_9allocatorIS3_EEE4backEv, symObjAddr: 0x458, symBinAddr: 0x1000208E4, symSize: 0x68 }
  - { offsetInCU: 0x116A8, offset: 0x15C770, size: 0x8, addend: 0x0, symName: __ZNSt3__15dequeINS_10shared_ptrI6ActionEENS_9allocatorIS3_EEE8pop_backEv, symObjAddr: 0x4F4, symBinAddr: 0x10002094C, symSize: 0xE0 }
  - { offsetInCU: 0x1170C, offset: 0x15C7D4, size: 0x8, addend: 0x0, symName: __ZNSt3__15stackINS_10shared_ptrI6ActionEENS_5dequeIS3_NS_9allocatorIS3_EEEEE4pushB8ue170006ERKS3_, symObjAddr: 0x5D4, symBinAddr: 0x100020A2C, symSize: 0x2C }
  - { offsetInCU: 0x11746, offset: 0x15C80E, size: 0x8, addend: 0x0, symName: __ZNKSt3__15dequeINS_10shared_ptrI6ActionEENS_9allocatorIS3_EEE12__back_spareB8ue170006Ev, symObjAddr: 0x1CE8, symBinAddr: 0x100020A58, symSize: 0x54 }
  - { offsetInCU: 0x1176C, offset: 0x15C834, size: 0x8, addend: 0x0, symName: __ZNSt3__15dequeINS_10shared_ptrI6ActionEENS_9allocatorIS3_EEE19__add_back_capacityEv, symObjAddr: 0x1D3C, symBinAddr: 0x100020AAC, symSize: 0x34C }
  - { offsetInCU: 0x11821, offset: 0x15C8E9, size: 0x8, addend: 0x0, symName: __ZNKSt3__15dequeINS_10shared_ptrI6ActionEENS_9allocatorIS3_EEE24__annotate_increase_backB8ue170006Em, symObjAddr: 0x2088, symBinAddr: 0x100020DF8, symSize: 0x7C }
  - { offsetInCU: 0x11856, offset: 0x15C91E, size: 0x8, addend: 0x0, symName: __ZNKSt3__15dequeINS_10shared_ptrI6ActionEENS_9allocatorIS3_EEE10__capacityB8ue170006Ev, symObjAddr: 0x2134, symBinAddr: 0x100020E74, symSize: 0x60 }
  - { offsetInCU: 0x1187C, offset: 0x15C944, size: 0x8, addend: 0x0, symName: __ZNKSt3__15dequeINS_10shared_ptrI6ActionEENS_9allocatorIS3_EEE13__front_spareB8ue170006Ev, symObjAddr: 0x2194, symBinAddr: 0x100020ED4, symSize: 0x18 }
  - { offsetInCU: 0x118A2, offset: 0x15C96A, size: 0x8, addend: 0x0, symName: __ZNSt3__114__split_bufferIPNS_10shared_ptrI6ActionEENS_9allocatorIS4_EEE9push_backB8ue170006ERKS4_, symObjAddr: 0x21AC, symBinAddr: 0x100020EEC, symSize: 0x260 }
  - { offsetInCU: 0x1191A, offset: 0x15C9E2, size: 0x8, addend: 0x0, symName: __ZNKSt3__114__split_bufferIPNS_10shared_ptrI6ActionEENS_9allocatorIS4_EEE12__back_spareB8ue170006Ev, symObjAddr: 0x240C, symBinAddr: 0x10002114C, symSize: 0x40 }
  - { offsetInCU: 0x11940, offset: 0x15CA08, size: 0x8, addend: 0x0, symName: __ZNSt3__114__split_bufferIPNS_10shared_ptrI6ActionEENS_9allocatorIS4_EEE9push_backEOS4_, symObjAddr: 0x244C, symBinAddr: 0x10002118C, symSize: 0x260 }
  - { offsetInCU: 0x119B8, offset: 0x15CA80, size: 0x8, addend: 0x0, symName: __ZNSt3__116allocator_traitsINS_9allocatorINS_10shared_ptrI6ActionEEEEE8allocateB8ue170006ERS5_m, symObjAddr: 0x26AC, symBinAddr: 0x1000213EC, symSize: 0x2C }
  - { offsetInCU: 0x119EB, offset: 0x15CAB3, size: 0x8, addend: 0x0, symName: __ZNSt3__114__split_bufferIPNS_10shared_ptrI6ActionEENS_9allocatorIS4_EEE10push_frontEOS4_, symObjAddr: 0x26D8, symBinAddr: 0x100021418, symSize: 0x25C }
  - { offsetInCU: 0x11A63, offset: 0x15CB2B, size: 0x8, addend: 0x0, symName: __ZNSt3__114__split_bufferIPNS_10shared_ptrI6ActionEERNS_9allocatorIS4_EEEC1EmmS7_, symObjAddr: 0x2960, symBinAddr: 0x100021674, symSize: 0x44 }
  - { offsetInCU: 0x11ABE, offset: 0x15CB86, size: 0x8, addend: 0x0, symName: __ZNSt3__122__allocator_destructorINS_9allocatorINS_10shared_ptrI6ActionEEEEEC1B8ue170006ERS5_m, symObjAddr: 0x29A4, symBinAddr: 0x1000216B8, symSize: 0x3C }
  - { offsetInCU: 0x11B86, offset: 0x15CC4E, size: 0x8, addend: 0x0, symName: __ZNSt3__110unique_ptrIPNS_10shared_ptrI6ActionEENS_22__allocator_destructorINS_9allocatorIS3_EEEEEC1B8ue170006ILb1EvEES4_NS_16__dependent_typeINS_27__unique_ptr_deleter_sfinaeIS8_EEXT_EE20__good_rval_ref_typeE, symObjAddr: 0x29E0, symBinAddr: 0x1000216F4, symSize: 0x3C }
  - { offsetInCU: 0x11BD7, offset: 0x15CC9F, size: 0x8, addend: 0x0, symName: __ZNSt3__114__split_bufferIPNS_10shared_ptrI6ActionEERNS_9allocatorIS4_EEE9push_backEOS4_, symObjAddr: 0x2A1C, symBinAddr: 0x100021730, symSize: 0x260 }
  - { offsetInCU: 0x11C4F, offset: 0x15CD17, size: 0x8, addend: 0x0, symName: __ZNKSt3__110unique_ptrIPNS_10shared_ptrI6ActionEENS_22__allocator_destructorINS_9allocatorIS3_EEEEE3getB8ue170006Ev, symObjAddr: 0x2C7C, symBinAddr: 0x100021990, symSize: 0x28 }
  - { offsetInCU: 0x11C75, offset: 0x15CD3D, size: 0x8, addend: 0x0, symName: __ZNSt3__110unique_ptrIPNS_10shared_ptrI6ActionEENS_22__allocator_destructorINS_9allocatorIS3_EEEEE7releaseB8ue170006Ev, symObjAddr: 0x2CA4, symBinAddr: 0x1000219B8, symSize: 0x44 }
  - { offsetInCU: 0x11CAA, offset: 0x15CD72, size: 0x8, addend: 0x0, symName: __ZNSt3__114__split_bufferIPNS_10shared_ptrI6ActionEERNS_9allocatorIS4_EEE10push_frontERKS4_, symObjAddr: 0x2CE8, symBinAddr: 0x1000219FC, symSize: 0x25C }
  - { offsetInCU: 0x11D22, offset: 0x15CDEA, size: 0x8, addend: 0x0, symName: __ZNSt3__114__split_bufferIPNS_10shared_ptrI6ActionEENS_9allocatorIS4_EEE9__end_capB8ue170006Ev, symObjAddr: 0x2F80, symBinAddr: 0x100021C94, symSize: 0x28 }
  - { offsetInCU: 0x11D48, offset: 0x15CE10, size: 0x8, addend: 0x0, symName: __ZNSt3__114__split_bufferIPNS_10shared_ptrI6ActionEERNS_9allocatorIS4_EEE9__end_capB8ue170006Ev, symObjAddr: 0x2FA8, symBinAddr: 0x100021CBC, symSize: 0x28 }
  - { offsetInCU: 0x11D6E, offset: 0x15CE36, size: 0x8, addend: 0x0, symName: __ZNSt3__110unique_ptrIPNS_10shared_ptrI6ActionEENS_22__allocator_destructorINS_9allocatorIS3_EEEEED1B8ue170006Ev, symObjAddr: 0x2FD0, symBinAddr: 0x100021CE4, symSize: 0x2C }
  - { offsetInCU: 0x11D98, offset: 0x15CE60, size: 0x8, addend: 0x0, symName: __ZNSt3__114__split_bufferIPNS_10shared_ptrI6ActionEERNS_9allocatorIS4_EEED1Ev, symObjAddr: 0x2FFC, symBinAddr: 0x100021D10, symSize: 0x2C }
  - { offsetInCU: 0x11DC4, offset: 0x15CE8C, size: 0x8, addend: 0x0, symName: __ZNSt3__114__split_bufferIPNS_10shared_ptrI6ActionEERNS_9allocatorIS4_EEE18__construct_at_endINS_13move_iteratorIPS4_EEEENS_9enable_ifIXsr31__has_forward_iterator_categoryIT_EE5valueEvE4typeESE_SE_, symObjAddr: 0x3068, symBinAddr: 0x100021D7C, symSize: 0x60 }
  - { offsetInCU: 0x11E11, offset: 0x15CED9, size: 0x8, addend: 0x0, symName: __ZNSt3__113move_iteratorIPPNS_10shared_ptrI6ActionEEEC1B8ue170006ES5_, symObjAddr: 0x30C8, symBinAddr: 0x100021DDC, symSize: 0x34 }
  - { offsetInCU: 0x11E49, offset: 0x15CF11, size: 0x8, addend: 0x0, symName: __ZNSt3__116allocator_traitsINS_9allocatorIPNS_10shared_ptrI6ActionEEEEE9constructB8ue170006IS5_JRKS5_EvvEEvRS6_PT_DpOT0_, symObjAddr: 0x30FC, symBinAddr: 0x100021E10, symSize: 0x30 }
  - { offsetInCU: 0x11EC1, offset: 0x15CF89, size: 0x8, addend: 0x0, symName: __ZNKSt3__114__move_trivialclB8ue170006IPNS_10shared_ptrI6ActionEES5_Li0EEENS_4pairIPT_PT0_EES8_S8_SA_, symObjAddr: 0x32A4, symBinAddr: 0x100021FB8, symSize: 0x48 }
  - { offsetInCU: 0x11F29, offset: 0x15CFF1, size: 0x8, addend: 0x0, symName: __ZNSt3__119__unwrap_range_implIPPNS_10shared_ptrI6ActionEES5_E8__unwrapB8ue170006ES5_S5_, symObjAddr: 0x33B0, symBinAddr: 0x1000220C4, symSize: 0x58 }
  - { offsetInCU: 0x11F5F, offset: 0x15D027, size: 0x8, addend: 0x0, symName: __ZNSt3__14pairIPPNS_10shared_ptrI6ActionEES5_EC1B8ue170006IS5_S5_LPv0EEEOT_OT0_, symObjAddr: 0x3408, symBinAddr: 0x10002211C, symSize: 0x3C }
  - { offsetInCU: 0x11FBE, offset: 0x15D086, size: 0x8, addend: 0x0, symName: __ZNSt3__14pairIPPNS_10shared_ptrI6ActionEES5_EC2B8ue170006IS5_S5_LPv0EEEOT_OT0_, symObjAddr: 0x3444, symBinAddr: 0x100022158, symSize: 0x34 }
  - { offsetInCU: 0x1201D, offset: 0x15D0E5, size: 0x8, addend: 0x0, symName: __ZNSt3__14pairIPPNS_10shared_ptrI6ActionEES5_EC1B8ue170006IRS5_S5_LPv0EEEOT_OT0_, symObjAddr: 0x3594, symBinAddr: 0x1000222A8, symSize: 0x3C }
  - { offsetInCU: 0x1207C, offset: 0x15D144, size: 0x8, addend: 0x0, symName: __ZNSt3__14pairIPPNS_10shared_ptrI6ActionEES5_EC2B8ue170006IRS5_S5_LPv0EEEOT_OT0_, symObjAddr: 0x35D0, symBinAddr: 0x1000222E4, symSize: 0x34 }
  - { offsetInCU: 0x120DB, offset: 0x15D1A3, size: 0x8, addend: 0x0, symName: __ZNSt3__118__unwrap_iter_implIPPNS_10shared_ptrI6ActionEELb1EE8__unwrapB8ue170006ES5_, symObjAddr: 0x3604, symBinAddr: 0x100022318, symSize: 0x24 }
  - { offsetInCU: 0x120FE, offset: 0x15D1C6, size: 0x8, addend: 0x0, symName: __ZNSt3__119__unwrap_range_implIPPNS_10shared_ptrI6ActionEES5_E8__rewrapB8ue170006ES5_S5_, symObjAddr: 0x3628, symBinAddr: 0x10002233C, symSize: 0x2C }
  - { offsetInCU: 0x1212F, offset: 0x15D1F7, size: 0x8, addend: 0x0, symName: __ZNSt3__118__unwrap_iter_implIPPNS_10shared_ptrI6ActionEELb1EE8__rewrapB8ue170006ES5_S5_, symObjAddr: 0x3654, symBinAddr: 0x100022368, symSize: 0x50 }
  - { offsetInCU: 0x12160, offset: 0x15D228, size: 0x8, addend: 0x0, symName: __ZNSt3__114__split_bufferIPNS_10shared_ptrI6ActionEERNS_9allocatorIS4_EEE28__construct_at_end_with_sizeINS_13move_iteratorIPS4_EEEEvT_m, symObjAddr: 0x36A4, symBinAddr: 0x1000223B8, symSize: 0xDC }
  - { offsetInCU: 0x121C6, offset: 0x15D28E, size: 0x8, addend: 0x0, symName: __ZNSt3__114__split_bufferIPNS_10shared_ptrI6ActionEERNS_9allocatorIS4_EEE21_ConstructTransactionC1B8ue170006EPPS4_m, symObjAddr: 0x37BC, symBinAddr: 0x1000224D0, symSize: 0x3C }
  - { offsetInCU: 0x12211, offset: 0x15D2D9, size: 0x8, addend: 0x0, symName: __ZNSt3__116allocator_traitsINS_9allocatorIPNS_10shared_ptrI6ActionEEEEE9constructB8ue170006IS5_JS5_EvvEEvRS6_PT_DpOT0_, symObjAddr: 0x37F8, symBinAddr: 0x10002250C, symSize: 0x30 }
  - { offsetInCU: 0x12266, offset: 0x15D32E, size: 0x8, addend: 0x0, symName: __ZNSt3__114__split_bufferIPNS_10shared_ptrI6ActionEERNS_9allocatorIS4_EEE7__allocB8ue170006Ev, symObjAddr: 0x3828, symBinAddr: 0x10002253C, symSize: 0x28 }
  - { offsetInCU: 0x1228C, offset: 0x15D354, size: 0x8, addend: 0x0, symName: __ZNKSt3__113move_iteratorIPPNS_10shared_ptrI6ActionEEEdeB8ue170006Ev, symObjAddr: 0x3850, symBinAddr: 0x100022564, symSize: 0x2C }
  - { offsetInCU: 0x122B2, offset: 0x15D37A, size: 0x8, addend: 0x0, symName: __ZNSt3__113move_iteratorIPPNS_10shared_ptrI6ActionEEEppB8ue170006Ev, symObjAddr: 0x387C, symBinAddr: 0x100022590, symSize: 0x20 }
  - { offsetInCU: 0x122D8, offset: 0x15D3A0, size: 0x8, addend: 0x0, symName: __ZNSt3__114__split_bufferIPNS_10shared_ptrI6ActionEERNS_9allocatorIS4_EEE21_ConstructTransactionD1B8ue170006Ev, symObjAddr: 0x389C, symBinAddr: 0x1000225B0, symSize: 0x2C }
  - { offsetInCU: 0x12302, offset: 0x15D3CA, size: 0x8, addend: 0x0, symName: __ZNSt3__114__split_bufferIPNS_10shared_ptrI6ActionEERNS_9allocatorIS4_EEE21_ConstructTransactionC2B8ue170006EPPS4_m, symObjAddr: 0x38C8, symBinAddr: 0x1000225DC, symSize: 0x44 }
  - { offsetInCU: 0x12348, offset: 0x15D410, size: 0x8, addend: 0x0, symName: __ZNSt3__117__compressed_pairIPPNS_10shared_ptrI6ActionEERNS_9allocatorIS4_EEE6secondB8ue170006Ev, symObjAddr: 0x3938, symBinAddr: 0x10002264C, symSize: 0x28 }
  - { offsetInCU: 0x1236E, offset: 0x15D436, size: 0x8, addend: 0x0, symName: __ZNSt3__122__compressed_pair_elemIRNS_9allocatorIPNS_10shared_ptrI6ActionEEEELi1ELb0EE5__getB8ue170006Ev, symObjAddr: 0x3960, symBinAddr: 0x100022674, symSize: 0x18 }
  - { offsetInCU: 0x12399, offset: 0x15D461, size: 0x8, addend: 0x0, symName: __ZNKSt3__16ranges11__iter_move4__fnclB8ue170006IRKPPNS_10shared_ptrI6ActionEEEEDTclsr3stdE4movedeclsr3stdE7forwardIT_Efp_EEEOSB_, symObjAddr: 0x3978, symBinAddr: 0x10002268C, symSize: 0x1C }
  - { offsetInCU: 0x123D6, offset: 0x15D49E, size: 0x8, addend: 0x0, symName: __ZNSt3__114__split_bufferIPNS_10shared_ptrI6ActionEERNS_9allocatorIS4_EEE21_ConstructTransactionD2B8ue170006Ev, symObjAddr: 0x3994, symBinAddr: 0x1000226A8, symSize: 0x20 }
  - { offsetInCU: 0x12400, offset: 0x15D4C8, size: 0x8, addend: 0x0, symName: __ZNKRSt3__113move_iteratorIPPNS_10shared_ptrI6ActionEEE4baseB8ue170006Ev, symObjAddr: 0x3A30, symBinAddr: 0x100022744, symSize: 0x14 }
  - { offsetInCU: 0x12426, offset: 0x15D4EE, size: 0x8, addend: 0x0, symName: __ZNSt3__113move_iteratorIPPNS_10shared_ptrI6ActionEEEC2B8ue170006ES5_, symObjAddr: 0x3A44, symBinAddr: 0x100022758, symSize: 0x20 }
  - { offsetInCU: 0x12468, offset: 0x15D530, size: 0x8, addend: 0x0, symName: __ZNKSt3__123__move_backward_trivialclB8ue170006IPNS_10shared_ptrI6ActionEES5_Li0EEENS_4pairIPT_PT0_EES8_S8_SA_, symObjAddr: 0x3D8C, symBinAddr: 0x100022920, symSize: 0x48 }
  - { offsetInCU: 0x124D0, offset: 0x15D598, size: 0x8, addend: 0x0, symName: __ZNSt3__14pairIPPNS_10shared_ptrI6ActionEES5_EC1B8ue170006IRS5_S8_LPv0EEEOT_OT0_, symObjAddr: 0x3E9C, symBinAddr: 0x100022A30, symSize: 0x3C }
  - { offsetInCU: 0x1252F, offset: 0x15D5F7, size: 0x8, addend: 0x0, symName: __ZNSt3__14pairIPPNS_10shared_ptrI6ActionEES5_EC2B8ue170006IRS5_S8_LPv0EEEOT_OT0_, symObjAddr: 0x3ED8, symBinAddr: 0x100022A6C, symSize: 0x34 }
  - { offsetInCU: 0x1258E, offset: 0x15D656, size: 0x8, addend: 0x0, symName: __ZNSt3__114__split_bufferIPNS_10shared_ptrI6ActionEERNS_9allocatorIS4_EEEC2EmmS7_, symObjAddr: 0x3F94, symBinAddr: 0x100022AA0, symSize: 0xD4 }
  - { offsetInCU: 0x12606, offset: 0x15D6CE, size: 0x8, addend: 0x0, symName: __ZNSt3__117__compressed_pairIPPNS_10shared_ptrI6ActionEERNS_9allocatorIS4_EEEC1B8ue170006IDnS8_EEOT_OT0_, symObjAddr: 0x4068, symBinAddr: 0x100022B74, symSize: 0x3C }
  - { offsetInCU: 0x1265E, offset: 0x15D726, size: 0x8, addend: 0x0, symName: __ZNSt3__117__compressed_pairIPPNS_10shared_ptrI6ActionEERNS_9allocatorIS4_EEEC2B8ue170006IDnS8_EEOT_OT0_, symObjAddr: 0x40E4, symBinAddr: 0x100022BF0, symSize: 0x48 }
  - { offsetInCU: 0x126B6, offset: 0x15D77E, size: 0x8, addend: 0x0, symName: __ZNSt3__122__compressed_pair_elemIPPNS_10shared_ptrI6ActionEELi0ELb0EEC2B8ue170006IDnvEEOT_, symObjAddr: 0x412C, symBinAddr: 0x100022C38, symSize: 0x1C }
  - { offsetInCU: 0x126F8, offset: 0x15D7C0, size: 0x8, addend: 0x0, symName: __ZNSt3__122__compressed_pair_elemIRNS_9allocatorIPNS_10shared_ptrI6ActionEEEELi1ELb0EEC2B8ue170006IS7_vEEOT_, symObjAddr: 0x4148, symBinAddr: 0x100022C54, symSize: 0x20 }
  - { offsetInCU: 0x1273A, offset: 0x15D802, size: 0x8, addend: 0x0, symName: __ZNSt3__19allocatorIPNS_10shared_ptrI6ActionEEE8allocateB8ue170006Em, symObjAddr: 0x4168, symBinAddr: 0x100022C74, symSize: 0x58 }
  - { offsetInCU: 0x12778, offset: 0x15D840, size: 0x8, addend: 0x0, symName: __ZNSt3__116allocator_traitsINS_9allocatorIPNS_10shared_ptrI6ActionEEEEE8max_sizeB8ue170006IS6_vvEEmRKS6_, symObjAddr: 0x41C0, symBinAddr: 0x100022CCC, symSize: 0x28 }
  - { offsetInCU: 0x127A4, offset: 0x15D86C, size: 0x8, addend: 0x0, symName: __ZNSt3__122__allocator_destructorINS_9allocatorINS_10shared_ptrI6ActionEEEEEC2B8ue170006ERS5_m, symObjAddr: 0x41E8, symBinAddr: 0x100022CF4, symSize: 0x2C }
  - { offsetInCU: 0x127EA, offset: 0x15D8B2, size: 0x8, addend: 0x0, symName: __ZNSt3__110unique_ptrIPNS_10shared_ptrI6ActionEENS_22__allocator_destructorINS_9allocatorIS3_EEEEEC2B8ue170006ILb1EvEES4_NS_16__dependent_typeINS_27__unique_ptr_deleter_sfinaeIS8_EEXT_EE20__good_rval_ref_typeE, symObjAddr: 0x4214, symBinAddr: 0x100022D20, symSize: 0x48 }
  - { offsetInCU: 0x1283B, offset: 0x15D903, size: 0x8, addend: 0x0, symName: __ZNSt3__117__compressed_pairIPNS_10shared_ptrI6ActionEENS_22__allocator_destructorINS_9allocatorIS3_EEEEEC1B8ue170006IRS4_S8_EEOT_OT0_, symObjAddr: 0x425C, symBinAddr: 0x100022D68, symSize: 0x3C }
  - { offsetInCU: 0x12893, offset: 0x15D95B, size: 0x8, addend: 0x0, symName: __ZNSt3__117__compressed_pairIPNS_10shared_ptrI6ActionEENS_22__allocator_destructorINS_9allocatorIS3_EEEEEC2B8ue170006IRS4_S8_EEOT_OT0_, symObjAddr: 0x4298, symBinAddr: 0x100022DA4, symSize: 0x48 }
  - { offsetInCU: 0x128EB, offset: 0x15D9B3, size: 0x8, addend: 0x0, symName: __ZNSt3__122__compressed_pair_elemIPNS_10shared_ptrI6ActionEELi0ELb0EEC2B8ue170006IRS4_vEEOT_, symObjAddr: 0x42E0, symBinAddr: 0x100022DEC, symSize: 0x24 }
  - { offsetInCU: 0x1292D, offset: 0x15D9F5, size: 0x8, addend: 0x0, symName: __ZNSt3__122__compressed_pair_elemINS_22__allocator_destructorINS_9allocatorINS_10shared_ptrI6ActionEEEEEELi1ELb0EEC2B8ue170006IS7_vEEOT_, symObjAddr: 0x4304, symBinAddr: 0x100022E10, symSize: 0x24 }
  - { offsetInCU: 0x1296F, offset: 0x15DA37, size: 0x8, addend: 0x0, symName: __ZNKSt3__117__compressed_pairIPNS_10shared_ptrI6ActionEENS_22__allocator_destructorINS_9allocatorIS3_EEEEE5firstB8ue170006Ev, symObjAddr: 0x4328, symBinAddr: 0x100022E34, symSize: 0x24 }
  - { offsetInCU: 0x12995, offset: 0x15DA5D, size: 0x8, addend: 0x0, symName: __ZNSt3__117__compressed_pairIPNS_10shared_ptrI6ActionEENS_22__allocator_destructorINS_9allocatorIS3_EEEEE5firstB8ue170006Ev, symObjAddr: 0x4360, symBinAddr: 0x100022E58, symSize: 0x24 }
  - { offsetInCU: 0x129BB, offset: 0x15DA83, size: 0x8, addend: 0x0, symName: __ZNSt3__117__compressed_pairIPPNS_10shared_ptrI6ActionEENS_9allocatorIS4_EEE5firstB8ue170006Ev, symObjAddr: 0x4398, symBinAddr: 0x100022E7C, symSize: 0x24 }
  - { offsetInCU: 0x129E1, offset: 0x15DAA9, size: 0x8, addend: 0x0, symName: __ZNSt3__122__compressed_pair_elemIPPNS_10shared_ptrI6ActionEELi0ELb0EE5__getB8ue170006Ev, symObjAddr: 0x43BC, symBinAddr: 0x100022EA0, symSize: 0x14 }
  - { offsetInCU: 0x12A07, offset: 0x15DACF, size: 0x8, addend: 0x0, symName: __ZNSt3__117__compressed_pairIPPNS_10shared_ptrI6ActionEERNS_9allocatorIS4_EEE5firstB8ue170006Ev, symObjAddr: 0x43D0, symBinAddr: 0x100022EB4, symSize: 0x24 }
  - { offsetInCU: 0x12A2D, offset: 0x15DAF5, size: 0x8, addend: 0x0, symName: __ZNSt3__110unique_ptrIPNS_10shared_ptrI6ActionEENS_22__allocator_destructorINS_9allocatorIS3_EEEEED2B8ue170006Ev, symObjAddr: 0x43F4, symBinAddr: 0x100022ED8, symSize: 0x30 }
  - { offsetInCU: 0x12A57, offset: 0x15DB1F, size: 0x8, addend: 0x0, symName: __ZNSt3__110unique_ptrIPNS_10shared_ptrI6ActionEENS_22__allocator_destructorINS_9allocatorIS3_EEEEE5resetB8ue170006ES4_, symObjAddr: 0x4424, symBinAddr: 0x100022F08, symSize: 0x78 }
  - { offsetInCU: 0x12A9B, offset: 0x15DB63, size: 0x8, addend: 0x0, symName: __ZNSt3__117__compressed_pairIPNS_10shared_ptrI6ActionEENS_22__allocator_destructorINS_9allocatorIS3_EEEEE6secondB8ue170006Ev, symObjAddr: 0x449C, symBinAddr: 0x100022F80, symSize: 0x28 }
  - { offsetInCU: 0x12AC1, offset: 0x15DB89, size: 0x8, addend: 0x0, symName: __ZNSt3__122__allocator_destructorINS_9allocatorINS_10shared_ptrI6ActionEEEEEclB8ue170006EPS4_, symObjAddr: 0x44C4, symBinAddr: 0x100022FA8, symSize: 0x34 }
  - { offsetInCU: 0x12AF5, offset: 0x15DBBD, size: 0x8, addend: 0x0, symName: __ZNSt3__122__compressed_pair_elemINS_22__allocator_destructorINS_9allocatorINS_10shared_ptrI6ActionEEEEEELi1ELb0EE5__getB8ue170006Ev, symObjAddr: 0x44F8, symBinAddr: 0x100022FDC, symSize: 0x14 }
  - { offsetInCU: 0x12B1B, offset: 0x15DBE3, size: 0x8, addend: 0x0, symName: __ZNSt3__114__split_bufferIPNS_10shared_ptrI6ActionEERNS_9allocatorIS4_EEED2Ev, symObjAddr: 0x450C, symBinAddr: 0x100022FF0, symSize: 0x8C }
  - { offsetInCU: 0x12B47, offset: 0x15DC0F, size: 0x8, addend: 0x0, symName: __ZNSt3__114__split_bufferIPNS_10shared_ptrI6ActionEERNS_9allocatorIS4_EEE5clearB8ue170006Ev, symObjAddr: 0x4598, symBinAddr: 0x10002307C, symSize: 0x28 }
  - { offsetInCU: 0x12B6D, offset: 0x15DC35, size: 0x8, addend: 0x0, symName: __ZNKSt3__114__split_bufferIPNS_10shared_ptrI6ActionEERNS_9allocatorIS4_EEE8capacityB8ue170006Ev, symObjAddr: 0x45C0, symBinAddr: 0x1000230A4, symSize: 0x40 }
  - { offsetInCU: 0x12B93, offset: 0x15DC5B, size: 0x8, addend: 0x0, symName: __ZNSt3__114__split_bufferIPNS_10shared_ptrI6ActionEERNS_9allocatorIS4_EEE17__destruct_at_endB8ue170006EPS4_, symObjAddr: 0x4600, symBinAddr: 0x1000230E4, symSize: 0x2C }
  - { offsetInCU: 0x12BC7, offset: 0x15DC8F, size: 0x8, addend: 0x0, symName: __ZNSt3__114__split_bufferIPNS_10shared_ptrI6ActionEERNS_9allocatorIS4_EEE17__destruct_at_endB8ue170006EPS4_NS_17integral_constantIbLb0EEE, symObjAddr: 0x462C, symBinAddr: 0x100023110, symSize: 0x80 }
  - { offsetInCU: 0x12C08, offset: 0x15DCD0, size: 0x8, addend: 0x0, symName: __ZNKSt3__114__split_bufferIPNS_10shared_ptrI6ActionEERNS_9allocatorIS4_EEE9__end_capB8ue170006Ev, symObjAddr: 0x46AC, symBinAddr: 0x100023190, symSize: 0x28 }
  - { offsetInCU: 0x12C2E, offset: 0x15DCF6, size: 0x8, addend: 0x0, symName: __ZNKSt3__117__compressed_pairIPPNS_10shared_ptrI6ActionEERNS_9allocatorIS4_EEE5firstB8ue170006Ev, symObjAddr: 0x46D4, symBinAddr: 0x1000231B8, symSize: 0x24 }
  - { offsetInCU: 0x12C54, offset: 0x15DD1C, size: 0x8, addend: 0x0, symName: __ZNSt3__15stackINS_10shared_ptrI6ActionEENS_5dequeIS3_NS_9allocatorIS3_EEEEEC2B8ue170006Ev, symObjAddr: 0x4734, symBinAddr: 0x1000231DC, symSize: 0x2C }
  - { offsetInCU: 0x12C7E, offset: 0x15DD46, size: 0x8, addend: 0x0, symName: __ZNSt3__15dequeINS_10shared_ptrI6ActionEENS_9allocatorIS3_EEEC1B8ue170006Ev, symObjAddr: 0x4760, symBinAddr: 0x100023208, symSize: 0x2C }
  - { offsetInCU: 0x12CA8, offset: 0x15DD70, size: 0x8, addend: 0x0, symName: __ZNSt3__15dequeINS_10shared_ptrI6ActionEENS_9allocatorIS3_EEEC2B8ue170006Ev, symObjAddr: 0x478C, symBinAddr: 0x100023234, symSize: 0x5C }
  - { offsetInCU: 0x12CD2, offset: 0x15DD9A, size: 0x8, addend: 0x0, symName: __ZNSt3__114__split_bufferIPNS_10shared_ptrI6ActionEENS_9allocatorIS4_EEEC1B8ue170006Ev, symObjAddr: 0x47E8, symBinAddr: 0x100023290, symSize: 0x2C }
  - { offsetInCU: 0x12D01, offset: 0x15DDC9, size: 0x8, addend: 0x0, symName: __ZNSt3__117__compressed_pairImNS_9allocatorINS_10shared_ptrI6ActionEEEEEC1B8ue170006IiNS_18__default_init_tagEEEOT_OT0_, symObjAddr: 0x4814, symBinAddr: 0x1000232BC, symSize: 0x3C }
  - { offsetInCU: 0x12D59, offset: 0x15DE21, size: 0x8, addend: 0x0, symName: __ZNSt3__114__split_bufferIPNS_10shared_ptrI6ActionEENS_9allocatorIS4_EEEC2B8ue170006Ev, symObjAddr: 0x4850, symBinAddr: 0x1000232F8, symSize: 0x50 }
  - { offsetInCU: 0x12D83, offset: 0x15DE4B, size: 0x8, addend: 0x0, symName: __ZNSt3__117__compressed_pairIPPNS_10shared_ptrI6ActionEENS_9allocatorIS4_EEEC1B8ue170006IDnNS_18__default_init_tagEEEOT_OT0_, symObjAddr: 0x48A0, symBinAddr: 0x100023348, symSize: 0x3C }
  - { offsetInCU: 0x12DDB, offset: 0x15DEA3, size: 0x8, addend: 0x0, symName: __ZNSt3__117__compressed_pairIPPNS_10shared_ptrI6ActionEENS_9allocatorIS4_EEEC2B8ue170006IDnNS_18__default_init_tagEEEOT_OT0_, symObjAddr: 0x48DC, symBinAddr: 0x100023384, symSize: 0x40 }
  - { offsetInCU: 0x12E33, offset: 0x15DEFB, size: 0x8, addend: 0x0, symName: __ZNSt3__122__compressed_pair_elemINS_9allocatorIPNS_10shared_ptrI6ActionEEEELi1ELb1EEC2B8ue170006ENS_18__default_init_tagE, symObjAddr: 0x491C, symBinAddr: 0x1000233C4, symSize: 0x2C }
  - { offsetInCU: 0x12E68, offset: 0x15DF30, size: 0x8, addend: 0x0, symName: __ZNSt3__19allocatorIPNS_10shared_ptrI6ActionEEEC2B8ue170006Ev, symObjAddr: 0x4948, symBinAddr: 0x1000233F0, symSize: 0x2C }
  - { offsetInCU: 0x12E92, offset: 0x15DF5A, size: 0x8, addend: 0x0, symName: __ZNSt3__116__non_trivial_ifILb1ENS_9allocatorIPNS_10shared_ptrI6ActionEEEEEC2B8ue170006Ev, symObjAddr: 0x4974, symBinAddr: 0x10002341C, symSize: 0x14 }
  - { offsetInCU: 0x12EBC, offset: 0x15DF84, size: 0x8, addend: 0x0, symName: __ZNSt3__117__compressed_pairImNS_9allocatorINS_10shared_ptrI6ActionEEEEEC2B8ue170006IiNS_18__default_init_tagEEEOT_OT0_, symObjAddr: 0x4988, symBinAddr: 0x100023430, symSize: 0x40 }
  - { offsetInCU: 0x12F14, offset: 0x15DFDC, size: 0x8, addend: 0x0, symName: __ZNSt3__15dequeINS_10shared_ptrI6ActionEENS_9allocatorIS3_EEEaSEOS6_, symObjAddr: 0x4A58, symBinAddr: 0x100023470, symSize: 0x34 }
  - { offsetInCU: 0x12F4B, offset: 0x15E013, size: 0x8, addend: 0x0, symName: __ZNSt3__15dequeINS_10shared_ptrI6ActionEENS_9allocatorIS3_EEE13__move_assignERS6_NS_17integral_constantIbLb1EEE, symObjAddr: 0x4A8C, symBinAddr: 0x1000234A4, symSize: 0x40 }
  - { offsetInCU: 0x12F8E, offset: 0x15E056, size: 0x8, addend: 0x0, symName: __ZNSt3__15dequeINS_10shared_ptrI6ActionEENS_9allocatorIS3_EEE13shrink_to_fitEv, symObjAddr: 0x4ACC, symBinAddr: 0x1000234E4, symSize: 0xE4 }
  - { offsetInCU: 0x12FC5, offset: 0x15E08D, size: 0x8, addend: 0x0, symName: __ZNSt3__15dequeINS_10shared_ptrI6ActionEENS_9allocatorIS3_EEE13__move_assignB8ue170006ERS6_, symObjAddr: 0x4BB0, symBinAddr: 0x1000235C8, symSize: 0x84 }
  - { offsetInCU: 0x12FFA, offset: 0x15E0C2, size: 0x8, addend: 0x0, symName: __ZNSt3__114__split_bufferIPNS_10shared_ptrI6ActionEENS_9allocatorIS4_EEE4backB8ue170006Ev, symObjAddr: 0x4C34, symBinAddr: 0x10002364C, symSize: 0x1C }
  - { offsetInCU: 0x13020, offset: 0x15E0E8, size: 0x8, addend: 0x0, symName: __ZNSt3__114__split_bufferIPNS_10shared_ptrI6ActionEENS_9allocatorIS4_EEE8pop_backB8ue170006Ev, symObjAddr: 0x4C50, symBinAddr: 0x100023668, symSize: 0x2C }
  - { offsetInCU: 0x13046, offset: 0x15E10E, size: 0x8, addend: 0x0, symName: __ZNSt3__15dequeINS_10shared_ptrI6ActionEENS_9allocatorIS3_EEE26__maybe_remove_front_spareB8ue170006Eb, symObjAddr: 0x4C7C, symBinAddr: 0x100023694, symSize: 0xEC }
  - { offsetInCU: 0x1307B, offset: 0x15E143, size: 0x8, addend: 0x0, symName: __ZNSt3__15dequeINS_10shared_ptrI6ActionEENS_9allocatorIS3_EEE25__maybe_remove_back_spareB8ue170006Eb, symObjAddr: 0x4D68, symBinAddr: 0x100023780, symSize: 0xE8 }
  - { offsetInCU: 0x130B0, offset: 0x15E178, size: 0x8, addend: 0x0, symName: __ZNSt3__114__split_bufferIPNS_10shared_ptrI6ActionEENS_9allocatorIS4_EEE13shrink_to_fitEv, symObjAddr: 0x4E50, symBinAddr: 0x100023868, symSize: 0x188 }
  - { offsetInCU: 0x130ED, offset: 0x15E1B5, size: 0x8, addend: 0x0, symName: __ZNKSt3__15dequeINS_10shared_ptrI6ActionEENS_9allocatorIS3_EEE20__front_spare_blocksB8ue170006Ev, symObjAddr: 0x4FD8, symBinAddr: 0x1000239F0, symSize: 0x2C }
  - { offsetInCU: 0x13113, offset: 0x15E1DB, size: 0x8, addend: 0x0, symName: __ZNKSt3__15dequeINS_10shared_ptrI6ActionEENS_9allocatorIS3_EEE19__back_spare_blocksB8ue170006Ev, symObjAddr: 0x5004, symBinAddr: 0x100023A1C, symSize: 0x2C }
  - { offsetInCU: 0x13139, offset: 0x15E201, size: 0x8, addend: 0x0, symName: __ZNSt3__114__split_bufferIPNS_10shared_ptrI6ActionEENS_9allocatorIS4_EEEaSEOS7_, symObjAddr: 0x5030, symBinAddr: 0x100023A48, symSize: 0xBC }
  - { offsetInCU: 0x1316F, offset: 0x15E237, size: 0x8, addend: 0x0, symName: __ZNSt3__15dequeINS_10shared_ptrI6ActionEENS_9allocatorIS3_EEE19__move_assign_allocB8ue170006ERS6_, symObjAddr: 0x50EC, symBinAddr: 0x100023B04, symSize: 0x2C }
  - { offsetInCU: 0x131A4, offset: 0x15E26C, size: 0x8, addend: 0x0, symName: __ZNSt3__114__split_bufferIPNS_10shared_ptrI6ActionEENS_9allocatorIS4_EEE19__move_assign_allocB8ue170006ERS7_NS_17integral_constantIbLb1EEE, symObjAddr: 0x5118, symBinAddr: 0x100023B30, symSize: 0x38 }
  - { offsetInCU: 0x131E3, offset: 0x15E2AB, size: 0x8, addend: 0x0, symName: __ZNSt3__15dequeINS_10shared_ptrI6ActionEENS_9allocatorIS3_EEE19__move_assign_allocB8ue170006ERS6_NS_17integral_constantIbLb1EEE, symObjAddr: 0x5150, symBinAddr: 0x100023B68, symSize: 0x38 }
  - { offsetInCU: 0x13224, offset: 0x15E2EC, size: 0x8, addend: 0x0, symName: __ZNKSt3__15dequeINS_10shared_ptrI6ActionEENS_9allocatorIS3_EEE23__annotate_shrink_frontB8ue170006Emm, symObjAddr: 0x51E8, symBinAddr: 0x100023BA0, symSize: 0x70 }
  - { offsetInCU: 0x13268, offset: 0x15E330, size: 0x8, addend: 0x0, symName: __ZNKSt3__15dequeINS_10shared_ptrI6ActionEENS_9allocatorIS3_EEE22__annotate_shrink_backB8ue170006Emm, symObjAddr: 0x5480, symBinAddr: 0x100023C10, symSize: 0x60 }
  - { offsetInCU: 0x5D, offset: 0x15E443, size: 0x8, addend: 0x0, symName: __ZNSt3__17nulloptE, symObjAddr: 0x21760, symBinAddr: 0x100058364, symSize: 0x0 }
  - { offsetInCU: 0x77, offset: 0x15E45D, size: 0x8, addend: 0x0, symName: __ZNSt3__18in_placeE, symObjAddr: 0x21ACC, symBinAddr: 0x1000586D0, symSize: 0x0 }
  - { offsetInCU: 0xCCC3, offset: 0x16B0A9, size: 0x8, addend: 0x0, symName: __ZNSt3__17advanceB8ue170006INS_16reverse_iteratorIPNS_10shared_ptrI6ActionEEEEllvEEvRT_T0_, symObjAddr: 0x9C24, symBinAddr: 0x10002A9B8, symSize: 0x38 }
  - { offsetInCU: 0x1D760, offset: 0x17BB46, size: 0x8, addend: 0x0, symName: __ZNSt3__13getB8ue170006ILm0E8PositionS1_EEONS_13tuple_elementIXT_ENS_4pairIT0_T1_EEE4typeEOS6_, symObjAddr: 0x3194, symBinAddr: 0x100026C04, symSize: 0x24 }
  - { offsetInCU: 0x1D7AA, offset: 0x17BB90, size: 0x8, addend: 0x0, symName: __ZNSt3__13getB8ue170006ILm1E8PositionS1_EEONS_13tuple_elementIXT_ENS_4pairIT0_T1_EEE4typeEOS6_, symObjAddr: 0x31B8, symBinAddr: 0x100026C28, symSize: 0x24 }
  - { offsetInCU: 0x1D7F4, offset: 0x17BBDA, size: 0x8, addend: 0x0, symName: __ZNSt3__111make_sharedB8ue170006I17SectionMoveActionJR8PositionS3_9DirectionEvEENS_10shared_ptrIT_EEDpOT0_, symObjAddr: 0x31DC, symBinAddr: 0x100026C4C, symSize: 0x50 }
  - { offsetInCU: 0x1DA7B, offset: 0x17BE61, size: 0x8, addend: 0x0, symName: __ZNSt3__111make_sharedB8ue170006I22ParagraphJoiningActionJEvEENS_10shared_ptrIT_EEDpOT0_, symObjAddr: 0x3260, symBinAddr: 0x100026CD0, symSize: 0x38 }
  - { offsetInCU: 0x1DCC5, offset: 0x17C0AB, size: 0x8, addend: 0x0, symName: __ZNSt3__111make_sharedB8ue170006I10UndoActionJEvEENS_10shared_ptrIT_EEDpOT0_, symObjAddr: 0x4A38, symBinAddr: 0x1000281F4, symSize: 0x38 }
  - { offsetInCU: 0x1DF0F, offset: 0x17C2F5, size: 0x8, addend: 0x0, symName: __ZNSt3__111make_sharedB8ue170006I13MessageActionJRA66_KcEvEENS_10shared_ptrIT_EEDpOT0_, symObjAddr: 0x4AFC, symBinAddr: 0x10002828C, symSize: 0x40 }
  - { offsetInCU: 0x1E16E, offset: 0x17C554, size: 0x8, addend: 0x0, symName: __ZNSt3__111make_sharedB8ue170006I13MessageActionJRA63_KcEvEENS_10shared_ptrIT_EEDpOT0_, symObjAddr: 0x4B9C, symBinAddr: 0x10002832C, symSize: 0x40 }
  - { offsetInCU: 0x1E1B1, offset: 0x17C597, size: 0x8, addend: 0x0, symName: __ZNSt3__111make_sharedB8ue170006I13MessageActionJRA69_KcEvEENS_10shared_ptrIT_EEDpOT0_, symObjAddr: 0x4BDC, symBinAddr: 0x10002836C, symSize: 0x40 }
  - { offsetInCU: 0x1E1F4, offset: 0x17C5DA, size: 0x8, addend: 0x0, symName: __ZNSt3__111make_sharedB8ue170006I18CharwiseMoveActionJR10ScreenSizeR9DirectionEvEENS_10shared_ptrIT_EEDpOT0_, symObjAddr: 0x4C1C, symBinAddr: 0x1000283AC, symSize: 0x48 }
  - { offsetInCU: 0x1F397, offset: 0x17D77D, size: 0x8, addend: 0x0, symName: __ZNSt3__111make_sharedB8ue170006I17SectionMoveActionJR8PositionS3_R9DirectionEvEENS_10shared_ptrIT_EEDpOT0_, symObjAddr: 0x5288, symBinAddr: 0x1000289B8, symSize: 0x50 }
  - { offsetInCU: 0x1F402, offset: 0x17D7E8, size: 0x8, addend: 0x0, symName: __ZNSt3__111make_sharedB8ue170006I13CaseSetActionJR8PositionS3_R4CaseEvEENS_10shared_ptrIT_EEDpOT0_, symObjAddr: 0x5330, symBinAddr: 0x100028A60, symSize: 0x50 }
  - { offsetInCU: 0x1F689, offset: 0x17DA6F, size: 0x8, addend: 0x0, symName: __ZNSt3__111make_sharedB8ue170006I10QuitActionJ8QuitModeEvEENS_10shared_ptrIT_EEDpOT0_, symObjAddr: 0x53E0, symBinAddr: 0x100028B10, symSize: 0x40 }
  - { offsetInCU: 0x1F8E8, offset: 0x17DCCE, size: 0x8, addend: 0x0, symName: __ZNSt3__111make_sharedB8ue170006I10SaveActionJR16SaveConfirmationEvEENS_10shared_ptrIT_EEDpOT0_, symObjAddr: 0x5490, symBinAddr: 0x100028BC0, symSize: 0x40 }
  - { offsetInCU: 0x2064C, offset: 0x17EA32, size: 0x8, addend: 0x0, symName: __ZNSt3__111make_sharedB8ue170006I13MessageActionJRNS_12basic_stringIcNS_11char_traitsIcEENS_9allocatorIcEEEEEvEENS_10shared_ptrIT_EEDpOT0_, symObjAddr: 0x575C, symBinAddr: 0x100028E08, symSize: 0x40 }
  - { offsetInCU: 0x21CC0, offset: 0x1800A6, size: 0x8, addend: 0x0, symName: __ZNSt3__112construct_atB8ue170006I14CommandDetailsJRS1_EPS1_EEPT_S5_DpOT0_, symObjAddr: 0x6418, symBinAddr: 0x100029438, symSize: 0x34 }
  - { offsetInCU: 0x21E78, offset: 0x18025E, size: 0x8, addend: 0x0, symName: __ZNSt3__112construct_atB8ue170006INS_10shared_ptrI6ActionEEJNS1_I18CharwiseMoveActionEEEPS3_EEPT_S8_DpOT0_, symObjAddr: 0x8FD4, symBinAddr: 0x100029DE8, symSize: 0x3C }
  - { offsetInCU: 0x21EEA, offset: 0x1802D0, size: 0x8, addend: 0x0, symName: __ZNSt3__142__uninitialized_allocator_move_if_noexceptB8ue170006INS_9allocatorINS_10shared_ptrI6ActionEEEENS_16reverse_iteratorIPS4_EES8_S8_EET2_RT_T0_T1_S9_, symObjAddr: 0x94F0, symBinAddr: 0x10002A284, symSize: 0x124 }
  - { offsetInCU: 0x21F8A, offset: 0x180370, size: 0x8, addend: 0x0, symName: __ZNSt3__14swapB8ue170006IPNS_10shared_ptrI6ActionEEEENS_9enable_ifIXaasr21is_move_constructibleIT_EE5valuesr18is_move_assignableIS6_EE5valueEvE4typeERS6_S9_, symObjAddr: 0x9614, symBinAddr: 0x10002A3A8, symSize: 0x3C }
  - { offsetInCU: 0x21FDC, offset: 0x1803C2, size: 0x8, addend: 0x0, symName: __ZNSt3__122__make_exception_guardB8ue170006INS_29_AllocatorDestroyRangeReverseINS_9allocatorINS_10shared_ptrI6ActionEEEENS_16reverse_iteratorIPS5_EEEEEENS_28__exception_guard_exceptionsIT_EESC_, symObjAddr: 0x9650, symBinAddr: 0x10002A3E4, symSize: 0x4C }
  - { offsetInCU: 0x22012, offset: 0x1803F8, size: 0x8, addend: 0x0, symName: __ZNSt3__112construct_atB8ue170006INS_10shared_ptrI6ActionEEJS3_EPS3_EEPT_S6_DpOT0_, symObjAddr: 0x981C, symBinAddr: 0x10002A5B0, symSize: 0x3C }
  - { offsetInCU: 0x22084, offset: 0x18046A, size: 0x8, addend: 0x0, symName: __ZNSt3__119__allocator_destroyB8ue170006INS_9allocatorINS_10shared_ptrI6ActionEEEENS_16reverse_iteratorINS6_IPS4_EEEES9_EEvRT_T0_T1_, symObjAddr: 0x99D0, symBinAddr: 0x10002A764, symSize: 0x70 }
  - { offsetInCU: 0x220E9, offset: 0x1804CF, size: 0x8, addend: 0x0, symName: __ZNSt3__1neB8ue170006INS_16reverse_iteratorIPNS_10shared_ptrI6ActionEEEES6_EEbRKNS1_IT_EERKNS1_IT0_EE, symObjAddr: 0x9A7C, symBinAddr: 0x10002A810, symSize: 0x60 }
  - { offsetInCU: 0x22135, offset: 0x18051B, size: 0x8, addend: 0x0, symName: __ZNSt3__112__to_addressB8ue170006INS_16reverse_iteratorINS1_IPNS_10shared_ptrI6ActionEEEEEEvEEu7__decayIDTclsr19__to_address_helperIT_EE6__callclsr3stdE7declvalIRKS8_EEEEESA_, symObjAddr: 0x9ADC, symBinAddr: 0x10002A870, symSize: 0x24 }
  - { offsetInCU: 0x22195, offset: 0x18057B, size: 0x8, addend: 0x0, symName: __ZNSt3__14prevB8ue170006INS_16reverse_iteratorIPNS_10shared_ptrI6ActionEEEEEENS_9enable_ifIXsr29__has_input_iterator_categoryIT_EE5valueES8_E4typeES8_NS_15iterator_traitsIS8_E15difference_typeE, symObjAddr: 0x9BD8, symBinAddr: 0x10002A96C, symSize: 0x4C }
  - { offsetInCU: 0x221D8, offset: 0x1805BE, size: 0x8, addend: 0x0, symName: __ZNSt3__19__advanceB8ue170006INS_16reverse_iteratorIPNS_10shared_ptrI6ActionEEEEEEvRT_NS_15iterator_traitsIS7_E15difference_typeENS_26random_access_iterator_tagE, symObjAddr: 0x9C5C, symBinAddr: 0x10002A9F0, symSize: 0x2C }
  - { offsetInCU: 0x22222, offset: 0x180608, size: 0x8, addend: 0x0, symName: __ZNSt3__17launderB8ue170006IKNS_4pairIKc14CommandDetailsEEEEPT_S7_, symObjAddr: 0xB710, symBinAddr: 0x10002C20C, symSize: 0x24 }
  - { offsetInCU: 0x22259, offset: 0x18063F, size: 0x8, addend: 0x0, symName: __ZNSt3__19__launderB8ue170006IKNS_4pairIKc14CommandDetailsEEEEPT_S7_, symObjAddr: 0xB734, symBinAddr: 0x10002C230, symSize: 0x14 }
  - { offsetInCU: 0x22308, offset: 0x1806EE, size: 0x8, addend: 0x0, symName: __ZNSt3__112construct_atB8ue170006INS_4pairIKc14CommandDetailsEEJRKS4_EPS4_EEPT_S9_DpOT0_, symObjAddr: 0xBAB4, symBinAddr: 0x10002C5B0, symSize: 0x34 }
  - { offsetInCU: 0x2237A, offset: 0x180760, size: 0x8, addend: 0x0, symName: __ZNSt3__17launderB8ue170006INS_4pairIKc14CommandDetailsEEEEPT_S6_, symObjAddr: 0xBB0C, symBinAddr: 0x10002C608, symSize: 0x24 }
  - { offsetInCU: 0x223B1, offset: 0x180797, size: 0x8, addend: 0x0, symName: __ZNSt3__19__launderB8ue170006INS_4pairIKc14CommandDetailsEEEEPT_S6_, symObjAddr: 0xBB30, symBinAddr: 0x10002C62C, symSize: 0x14 }
  - { offsetInCU: 0x223E8, offset: 0x1807CE, size: 0x8, addend: 0x0, symName: __ZNSt3__110destroy_atB8ue170006INS_4pairIKc14CommandDetailsEELi0EEEvPT_, symObjAddr: 0xC5F4, symBinAddr: 0x10002D040, symSize: 0x24 }
  - { offsetInCU: 0x2241F, offset: 0x180805, size: 0x8, addend: 0x0, symName: __ZNSt3__112__destroy_atB8ue170006INS_4pairIKc14CommandDetailsEELi0EEEvPT_, symObjAddr: 0xC618, symBinAddr: 0x10002D064, symSize: 0x10 }
  - { offsetInCU: 0x22456, offset: 0x18083C, size: 0x8, addend: 0x0, symName: __ZNSt3__1eqB8ue170006ERKNS_25__hash_map_const_iteratorINS_21__hash_const_iteratorIPNS_11__hash_nodeINS_17__hash_value_typeIc14CommandDetailsEEPvEEEEEESC_, symObjAddr: 0xC8A8, symBinAddr: 0x10002D2F4, symSize: 0x30 }
  - { offsetInCU: 0x22493, offset: 0x180879, size: 0x8, addend: 0x0, symName: __ZNSt3__1eqB8ue170006ERKNS_21__hash_const_iteratorIPNS_11__hash_nodeINS_17__hash_value_typeIc14CommandDetailsEEPvEEEESA_, symObjAddr: 0xC950, symBinAddr: 0x10002D39C, symSize: 0x30 }
  - { offsetInCU: 0x224D0, offset: 0x1808B6, size: 0x8, addend: 0x0, symName: __ZNSt3__1eqB8ue170006ERKNS_19__hash_map_iteratorINS_15__hash_iteratorIPNS_11__hash_nodeINS_17__hash_value_typeIc14CommandDetailsEEPvEEEEEESC_, symObjAddr: 0xCD0C, symBinAddr: 0x10002D758, symSize: 0x30 }
  - { offsetInCU: 0x2250D, offset: 0x1808F3, size: 0x8, addend: 0x0, symName: __ZNSt3__1eqB8ue170006ERKNS_15__hash_iteratorIPNS_11__hash_nodeINS_17__hash_value_typeIc14CommandDetailsEEPvEEEESA_, symObjAddr: 0xD034, symBinAddr: 0x10002DA1C, symSize: 0x30 }
  - { offsetInCU: 0x225B0, offset: 0x180996, size: 0x8, addend: 0x0, symName: __ZNSt3__115allocate_sharedB8ue170006I17SectionMoveActionNS_9allocatorIS1_EEJR8PositionS5_9DirectionEvEENS_10shared_ptrIT_EERKT0_DpOT1_, symObjAddr: 0xDC7C, symBinAddr: 0x10002DAA4, symSize: 0xA8 }
  - { offsetInCU: 0x229DF, offset: 0x180DC5, size: 0x8, addend: 0x0, symName: __ZNSt3__112construct_atB8ue170006I17SectionMoveActionJR8PositionS3_9DirectionEPS1_EEPT_S7_DpOT0_, symObjAddr: 0xE390, symBinAddr: 0x10002E1B8, symSize: 0x68 }
  - { offsetInCU: 0x22A77, offset: 0x180E5D, size: 0x8, addend: 0x0, symName: __ZNSt3__110destroy_atB8ue170006I17SectionMoveActionLi0EEEvPT_, symObjAddr: 0xE494, symBinAddr: 0x10002E2BC, symSize: 0x24 }
  - { offsetInCU: 0x22AAE, offset: 0x180E94, size: 0x8, addend: 0x0, symName: __ZNSt3__112__destroy_atB8ue170006I17SectionMoveActionLi0EEEvPT_, symObjAddr: 0xE4B8, symBinAddr: 0x10002E2E0, symSize: 0x2C }
  - { offsetInCU: 0x22B18, offset: 0x180EFE, size: 0x8, addend: 0x0, symName: __ZNSt3__115allocate_sharedB8ue170006I22ParagraphJoiningActionNS_9allocatorIS1_EEJEvEENS_10shared_ptrIT_EERKT0_DpOT1_, symObjAddr: 0xE724, symBinAddr: 0x10002E54C, symSize: 0x90 }
  - { offsetInCU: 0x22EA4, offset: 0x18128A, size: 0x8, addend: 0x0, symName: __ZNSt3__112construct_atB8ue170006I22ParagraphJoiningActionJEPS1_EEPT_S4_DpOT0_, symObjAddr: 0xEDD4, symBinAddr: 0x10002EBFC, symSize: 0x38 }
  - { offsetInCU: 0x22F02, offset: 0x1812E8, size: 0x8, addend: 0x0, symName: __ZNSt3__110destroy_atB8ue170006I22ParagraphJoiningActionLi0EEEvPT_, symObjAddr: 0xEF88, symBinAddr: 0x10002ED40, symSize: 0x24 }
  - { offsetInCU: 0x22F39, offset: 0x18131F, size: 0x8, addend: 0x0, symName: __ZNSt3__112__destroy_atB8ue170006I22ParagraphJoiningActionLi0EEEvPT_, symObjAddr: 0xEFAC, symBinAddr: 0x10002ED64, symSize: 0x2C }
  - { offsetInCU: 0x230CF, offset: 0x1814B5, size: 0x8, addend: 0x0, symName: __ZNSt3__115allocate_sharedB8ue170006I10UndoActionNS_9allocatorIS1_EEJEvEENS_10shared_ptrIT_EERKT0_DpOT1_, symObjAddr: 0x11D08, symBinAddr: 0x10002F04C, symSize: 0x90 }
  - { offsetInCU: 0x2345B, offset: 0x181841, size: 0x8, addend: 0x0, symName: __ZNSt3__112construct_atB8ue170006I10UndoActionJEPS1_EEPT_S4_DpOT0_, symObjAddr: 0x123B8, symBinAddr: 0x10002F6FC, symSize: 0x38 }
  - { offsetInCU: 0x234B9, offset: 0x18189F, size: 0x8, addend: 0x0, symName: __ZNSt3__110destroy_atB8ue170006I10UndoActionLi0EEEvPT_, symObjAddr: 0x124FC, symBinAddr: 0x10002F840, symSize: 0x24 }
  - { offsetInCU: 0x234F0, offset: 0x1818D6, size: 0x8, addend: 0x0, symName: __ZNSt3__112__destroy_atB8ue170006I10UndoActionLi0EEEvPT_, symObjAddr: 0x12520, symBinAddr: 0x10002F864, symSize: 0x2C }
  - { offsetInCU: 0x2355A, offset: 0x181940, size: 0x8, addend: 0x0, symName: __ZNSt3__115allocate_sharedB8ue170006I13MessageActionNS_9allocatorIS1_EEJRA66_KcEvEENS_10shared_ptrIT_EERKT0_DpOT1_, symObjAddr: 0x127C8, symBinAddr: 0x10002FB0C, symSize: 0x98 }
  - { offsetInCU: 0x2399C, offset: 0x181D82, size: 0x8, addend: 0x0, symName: __ZNSt3__112construct_atB8ue170006I13MessageActionJRA66_KcEPS1_EEPT_S7_DpOT0_, symObjAddr: 0x12E9C, symBinAddr: 0x1000301E0, symSize: 0x7C }
  - { offsetInCU: 0x23A0E, offset: 0x181DF4, size: 0x8, addend: 0x0, symName: __ZNSt3__110destroy_atB8ue170006I13MessageActionLi0EEEvPT_, symObjAddr: 0x12FB4, symBinAddr: 0x1000302F8, symSize: 0x24 }
  - { offsetInCU: 0x23A45, offset: 0x181E2B, size: 0x8, addend: 0x0, symName: __ZNSt3__112__destroy_atB8ue170006I13MessageActionLi0EEEvPT_, symObjAddr: 0x12FD8, symBinAddr: 0x10003031C, symSize: 0x2C }
  - { offsetInCU: 0x23AAF, offset: 0x181E95, size: 0x8, addend: 0x0, symName: __ZNSt3__115allocate_sharedB8ue170006I13MessageActionNS_9allocatorIS1_EEJRA63_KcEvEENS_10shared_ptrIT_EERKT0_DpOT1_, symObjAddr: 0x13284, symBinAddr: 0x1000305C8, symSize: 0x98 }
  - { offsetInCU: 0x23B28, offset: 0x181F0E, size: 0x8, addend: 0x0, symName: __ZNSt3__112construct_atB8ue170006I13MessageActionJRA63_KcEPS1_EEPT_S7_DpOT0_, symObjAddr: 0x13448, symBinAddr: 0x10003078C, symSize: 0x7C }
  - { offsetInCU: 0x23B9A, offset: 0x181F80, size: 0x8, addend: 0x0, symName: __ZNSt3__115allocate_sharedB8ue170006I13MessageActionNS_9allocatorIS1_EEJRA69_KcEvEENS_10shared_ptrIT_EERKT0_DpOT1_, symObjAddr: 0x134C4, symBinAddr: 0x100030808, symSize: 0x98 }
  - { offsetInCU: 0x23C13, offset: 0x181FF9, size: 0x8, addend: 0x0, symName: __ZNSt3__112construct_atB8ue170006I13MessageActionJRA69_KcEPS1_EEPT_S7_DpOT0_, symObjAddr: 0x13688, symBinAddr: 0x1000309CC, symSize: 0x7C }
  - { offsetInCU: 0x23C85, offset: 0x18206B, size: 0x8, addend: 0x0, symName: __ZNSt3__115allocate_sharedB8ue170006I18CharwiseMoveActionNS_9allocatorIS1_EEJR10ScreenSizeR9DirectionEvEENS_10shared_ptrIT_EERKT0_DpOT1_, symObjAddr: 0x13704, symBinAddr: 0x100030A48, symSize: 0xA0 }
  - { offsetInCU: 0x23D12, offset: 0x1820F8, size: 0x8, addend: 0x0, symName: __ZNSt3__112construct_atB8ue170006I18CharwiseMoveActionJR10ScreenSizeR9DirectionEPS1_EEPT_S8_DpOT0_, symObjAddr: 0x138E8, symBinAddr: 0x100030C2C, symSize: 0x54 }
  - { offsetInCU: 0x23D97, offset: 0x18217D, size: 0x8, addend: 0x0, symName: __ZNSt3__17launderB8ue170006IKNS_4pairIKcNS_12basic_stringIcNS_11char_traitsIcEENS_9allocatorIcEEEEEEEEPT_SC_, symObjAddr: 0x14BA0, symBinAddr: 0x100031EE4, symSize: 0x24 }
  - { offsetInCU: 0x23DCE, offset: 0x1821B4, size: 0x8, addend: 0x0, symName: __ZNSt3__19__launderB8ue170006IKNS_4pairIKcNS_12basic_stringIcNS_11char_traitsIcEENS_9allocatorIcEEEEEEEEPT_SC_, symObjAddr: 0x14BC4, symBinAddr: 0x100031F08, symSize: 0x14 }
  - { offsetInCU: 0x23E7D, offset: 0x182263, size: 0x8, addend: 0x0, symName: __ZNSt3__112construct_atB8ue170006INS_4pairIKcNS_12basic_stringIcNS_11char_traitsIcEENS_9allocatorIcEEEEEEJRKS9_EPS9_EEPT_SE_DpOT0_, symObjAddr: 0x14F44, symBinAddr: 0x100032288, symSize: 0x3C }
  - { offsetInCU: 0x23EEF, offset: 0x1822D5, size: 0x8, addend: 0x0, symName: __ZNSt3__17launderB8ue170006INS_4pairIKcNS_12basic_stringIcNS_11char_traitsIcEENS_9allocatorIcEEEEEEEEPT_SB_, symObjAddr: 0x15020, symBinAddr: 0x100032364, symSize: 0x24 }
  - { offsetInCU: 0x23F26, offset: 0x18230C, size: 0x8, addend: 0x0, symName: __ZNSt3__19__launderB8ue170006INS_4pairIKcNS_12basic_stringIcNS_11char_traitsIcEENS_9allocatorIcEEEEEEEEPT_SB_, symObjAddr: 0x15044, symBinAddr: 0x100032388, symSize: 0x14 }
  - { offsetInCU: 0x23F5D, offset: 0x182343, size: 0x8, addend: 0x0, symName: __ZNSt3__110destroy_atB8ue170006INS_4pairIKcNS_12basic_stringIcNS_11char_traitsIcEENS_9allocatorIcEEEEEELi0EEEvPT_, symObjAddr: 0x15A58, symBinAddr: 0x100032D9C, symSize: 0x24 }
  - { offsetInCU: 0x23F94, offset: 0x18237A, size: 0x8, addend: 0x0, symName: __ZNSt3__112__destroy_atB8ue170006INS_4pairIKcNS_12basic_stringIcNS_11char_traitsIcEENS_9allocatorIcEEEEEELi0EEEvPT_, symObjAddr: 0x15A7C, symBinAddr: 0x100032DC0, symSize: 0x24 }
  - { offsetInCU: 0x23FCB, offset: 0x1823B1, size: 0x8, addend: 0x0, symName: __ZNSt3__1eqB8ue170006ERKNS_25__hash_map_const_iteratorINS_21__hash_const_iteratorIPNS_11__hash_nodeINS_17__hash_value_typeIcNS_12basic_stringIcNS_11char_traitsIcEENS_9allocatorIcEEEEEEPvEEEEEESH_, symObjAddr: 0x15D20, symBinAddr: 0x100033064, symSize: 0x30 }
  - { offsetInCU: 0x24008, offset: 0x1823EE, size: 0x8, addend: 0x0, symName: __ZNSt3__1eqB8ue170006ERKNS_21__hash_const_iteratorIPNS_11__hash_nodeINS_17__hash_value_typeIcNS_12basic_stringIcNS_11char_traitsIcEENS_9allocatorIcEEEEEEPvEEEESF_, symObjAddr: 0x15DC8, symBinAddr: 0x10003310C, symSize: 0x30 }
  - { offsetInCU: 0x24045, offset: 0x18242B, size: 0x8, addend: 0x0, symName: __ZNSt3__1eqB8ue170006ERKNS_19__hash_map_iteratorINS_15__hash_iteratorIPNS_11__hash_nodeINS_17__hash_value_typeIcNS_12basic_stringIcNS_11char_traitsIcEENS_9allocatorIcEEEEEEPvEEEEEESH_, symObjAddr: 0x16184, symBinAddr: 0x1000334C8, symSize: 0x30 }
  - { offsetInCU: 0x24082, offset: 0x182468, size: 0x8, addend: 0x0, symName: __ZNSt3__1eqB8ue170006ERKNS_15__hash_iteratorIPNS_11__hash_nodeINS_17__hash_value_typeIcNS_12basic_stringIcNS_11char_traitsIcEENS_9allocatorIcEEEEEEPvEEEESF_, symObjAddr: 0x16448, symBinAddr: 0x10003378C, symSize: 0x30 }
  - { offsetInCU: 0x24125, offset: 0x18250B, size: 0x8, addend: 0x0, symName: __ZNSt3__115allocate_sharedB8ue170006I17SectionMoveActionNS_9allocatorIS1_EEJR8PositionS5_R9DirectionEvEENS_10shared_ptrIT_EERKT0_DpOT1_, symObjAddr: 0x164D0, symBinAddr: 0x100033814, symSize: 0xA8 }
  - { offsetInCU: 0x241C7, offset: 0x1825AD, size: 0x8, addend: 0x0, symName: __ZNSt3__112construct_atB8ue170006I17SectionMoveActionJR8PositionS3_R9DirectionEPS1_EEPT_S8_DpOT0_, symObjAddr: 0x166D4, symBinAddr: 0x100033A18, symSize: 0x68 }
  - { offsetInCU: 0x2425F, offset: 0x182645, size: 0x8, addend: 0x0, symName: __ZNSt3__115allocate_sharedB8ue170006I13CaseSetActionNS_9allocatorIS1_EEJR8PositionS5_R4CaseEvEENS_10shared_ptrIT_EERKT0_DpOT1_, symObjAddr: 0x1673C, symBinAddr: 0x100033A80, symSize: 0xA8 }
  - { offsetInCU: 0x24648, offset: 0x182A2E, size: 0x8, addend: 0x0, symName: __ZNSt3__112construct_atB8ue170006I13CaseSetActionJR8PositionS3_R4CaseEPS1_EEPT_S8_DpOT0_, symObjAddr: 0x16E50, symBinAddr: 0x100034194, symSize: 0x68 }
  - { offsetInCU: 0x246E0, offset: 0x182AC6, size: 0x8, addend: 0x0, symName: __ZNSt3__110destroy_atB8ue170006I13CaseSetActionLi0EEEvPT_, symObjAddr: 0x16F54, symBinAddr: 0x100034298, symSize: 0x24 }
  - { offsetInCU: 0x24717, offset: 0x182AFD, size: 0x8, addend: 0x0, symName: __ZNSt3__112__destroy_atB8ue170006I13CaseSetActionLi0EEEvPT_, symObjAddr: 0x16F78, symBinAddr: 0x1000342BC, symSize: 0x2C }
  - { offsetInCU: 0x24781, offset: 0x182B67, size: 0x8, addend: 0x0, symName: __ZNSt3__115allocate_sharedB8ue170006I10QuitActionNS_9allocatorIS1_EEJ8QuitModeEvEENS_10shared_ptrIT_EERKT0_DpOT1_, symObjAddr: 0x17224, symBinAddr: 0x100034568, symSize: 0x98 }
  - { offsetInCU: 0x24B2D, offset: 0x182F13, size: 0x8, addend: 0x0, symName: __ZNSt3__112construct_atB8ue170006I10QuitActionJ8QuitModeEPS1_EEPT_S5_DpOT0_, symObjAddr: 0x178F8, symBinAddr: 0x100034C3C, symSize: 0x40 }
  - { offsetInCU: 0x24B9F, offset: 0x182F85, size: 0x8, addend: 0x0, symName: __ZNSt3__110destroy_atB8ue170006I10QuitActionLi0EEEvPT_, symObjAddr: 0x179D4, symBinAddr: 0x100034D18, symSize: 0x24 }
  - { offsetInCU: 0x24BD6, offset: 0x182FBC, size: 0x8, addend: 0x0, symName: __ZNSt3__112__destroy_atB8ue170006I10QuitActionLi0EEEvPT_, symObjAddr: 0x179F8, symBinAddr: 0x100034D3C, symSize: 0x2C }
  - { offsetInCU: 0x24C40, offset: 0x183026, size: 0x8, addend: 0x0, symName: __ZNSt3__115allocate_sharedB8ue170006I10SaveActionNS_9allocatorIS1_EEJR16SaveConfirmationEvEENS_10shared_ptrIT_EERKT0_DpOT1_, symObjAddr: 0x17C64, symBinAddr: 0x100034FA8, symSize: 0x98 }
  - { offsetInCU: 0x24FEC, offset: 0x1833D2, size: 0x8, addend: 0x0, symName: __ZNSt3__112construct_atB8ue170006I10SaveActionJR16SaveConfirmationEPS1_EEPT_S6_DpOT0_, symObjAddr: 0x18338, symBinAddr: 0x10003567C, symSize: 0x40 }
  - { offsetInCU: 0x2505E, offset: 0x183444, size: 0x8, addend: 0x0, symName: __ZNSt3__110destroy_atB8ue170006I10SaveActionLi0EEEvPT_, symObjAddr: 0x18414, symBinAddr: 0x100035758, symSize: 0x24 }
  - { offsetInCU: 0x25095, offset: 0x18347B, size: 0x8, addend: 0x0, symName: __ZNSt3__112__destroy_atB8ue170006I10SaveActionLi0EEEvPT_, symObjAddr: 0x18438, symBinAddr: 0x10003577C, symSize: 0x2C }
  - { offsetInCU: 0x250FF, offset: 0x1834E5, size: 0x8, addend: 0x0, symName: __ZNSt3__17launderB8ue170006IKNS_4pairIKc11ParseResultEEEEPT_S7_, symObjAddr: 0x19990, symBinAddr: 0x100036CD4, symSize: 0x24 }
  - { offsetInCU: 0x25136, offset: 0x18351C, size: 0x8, addend: 0x0, symName: __ZNSt3__19__launderB8ue170006IKNS_4pairIKc11ParseResultEEEEPT_S7_, symObjAddr: 0x199B4, symBinAddr: 0x100036CF8, symSize: 0x14 }
  - { offsetInCU: 0x251E5, offset: 0x1835CB, size: 0x8, addend: 0x0, symName: __ZNSt3__112construct_atB8ue170006INS_4pairIKc11ParseResultEEJRKS4_EPS4_EEPT_S9_DpOT0_, symObjAddr: 0x19D34, symBinAddr: 0x100037078, symSize: 0x3C }
  - { offsetInCU: 0x25257, offset: 0x18363D, size: 0x8, addend: 0x0, symName: __ZNSt3__17launderB8ue170006INS_4pairIKc11ParseResultEEEEPT_S6_, symObjAddr: 0x19E10, symBinAddr: 0x100037154, symSize: 0x24 }
  - { offsetInCU: 0x2528E, offset: 0x183674, size: 0x8, addend: 0x0, symName: __ZNSt3__19__launderB8ue170006INS_4pairIKc11ParseResultEEEEPT_S6_, symObjAddr: 0x19E34, symBinAddr: 0x100037178, symSize: 0x14 }
  - { offsetInCU: 0x252C5, offset: 0x1836AB, size: 0x8, addend: 0x0, symName: __ZNSt3__110destroy_atB8ue170006INS_4pairIKc11ParseResultEELi0EEEvPT_, symObjAddr: 0x1A848, symBinAddr: 0x100037B8C, symSize: 0x24 }
  - { offsetInCU: 0x252FC, offset: 0x1836E2, size: 0x8, addend: 0x0, symName: __ZNSt3__112__destroy_atB8ue170006INS_4pairIKc11ParseResultEELi0EEEvPT_, symObjAddr: 0x1A86C, symBinAddr: 0x100037BB0, symSize: 0x24 }
  - { offsetInCU: 0x25333, offset: 0x183719, size: 0x8, addend: 0x0, symName: __ZNSt3__1eqB8ue170006ERKNS_25__hash_map_const_iteratorINS_21__hash_const_iteratorIPNS_11__hash_nodeINS_17__hash_value_typeIc11ParseResultEEPvEEEEEESC_, symObjAddr: 0x1AB10, symBinAddr: 0x100037E54, symSize: 0x30 }
  - { offsetInCU: 0x25370, offset: 0x183756, size: 0x8, addend: 0x0, symName: __ZNSt3__1eqB8ue170006ERKNS_21__hash_const_iteratorIPNS_11__hash_nodeINS_17__hash_value_typeIc11ParseResultEEPvEEEESA_, symObjAddr: 0x1ABB8, symBinAddr: 0x100037EFC, symSize: 0x30 }
  - { offsetInCU: 0x253AD, offset: 0x183793, size: 0x8, addend: 0x0, symName: __ZNSt3__1eqB8ue170006ERKNS_19__hash_map_iteratorINS_15__hash_iteratorIPNS_11__hash_nodeINS_17__hash_value_typeIc11ParseResultEEPvEEEEEESC_, symObjAddr: 0x1AF74, symBinAddr: 0x1000382B8, symSize: 0x30 }
  - { offsetInCU: 0x253EA, offset: 0x1837D0, size: 0x8, addend: 0x0, symName: __ZNSt3__1eqB8ue170006ERKNS_15__hash_iteratorIPNS_11__hash_nodeINS_17__hash_value_typeIc11ParseResultEEPvEEEESA_, symObjAddr: 0x1B238, symBinAddr: 0x10003857C, symSize: 0x30 }
  - { offsetInCU: 0x2548D, offset: 0x183873, size: 0x8, addend: 0x0, symName: __ZNSt3__115allocate_sharedB8ue170006I13MessageActionNS_9allocatorIS1_EEJRNS_12basic_stringIcNS_11char_traitsIcEENS2_IcEEEEEvEENS_10shared_ptrIT_EERKT0_DpOT1_, symObjAddr: 0x1B2C0, symBinAddr: 0x100038604, symSize: 0x98 }
  - { offsetInCU: 0x25506, offset: 0x1838EC, size: 0x8, addend: 0x0, symName: __ZNSt3__112construct_atB8ue170006I13MessageActionJRNS_12basic_stringIcNS_11char_traitsIcEENS_9allocatorIcEEEEEPS1_EEPT_SB_DpOT0_, symObjAddr: 0x1B484, symBinAddr: 0x1000387C8, symSize: 0x7C }
  - { offsetInCU: 0x25578, offset: 0x18395E, size: 0x8, addend: 0x0, symName: __ZNSt3__17launderB8ue170006IKNS_4pairIKccEEEEPT_S6_, symObjAddr: 0x1C764, symBinAddr: 0x100039AA8, symSize: 0x24 }
  - { offsetInCU: 0x255AF, offset: 0x183995, size: 0x8, addend: 0x0, symName: __ZNSt3__19__launderB8ue170006IKNS_4pairIKccEEEEPT_S6_, symObjAddr: 0x1C788, symBinAddr: 0x100039ACC, symSize: 0x14 }
  - { offsetInCU: 0x2565E, offset: 0x183A44, size: 0x8, addend: 0x0, symName: __ZNSt3__112construct_atB8ue170006INS_4pairIKccEEJRKS3_EPS3_EEPT_S8_DpOT0_, symObjAddr: 0x1CB08, symBinAddr: 0x100039E4C, symSize: 0x2C }
  - { offsetInCU: 0x256D0, offset: 0x183AB6, size: 0x8, addend: 0x0, symName: __ZNSt3__17launderB8ue170006INS_4pairIKccEEEEPT_S5_, symObjAddr: 0x1CB58, symBinAddr: 0x100039E9C, symSize: 0x24 }
  - { offsetInCU: 0x25707, offset: 0x183AED, size: 0x8, addend: 0x0, symName: __ZNSt3__19__launderB8ue170006INS_4pairIKccEEEEPT_S5_, symObjAddr: 0x1CB7C, symBinAddr: 0x100039EC0, symSize: 0x14 }
  - { offsetInCU: 0x2573E, offset: 0x183B24, size: 0x8, addend: 0x0, symName: __ZNSt3__110destroy_atB8ue170006INS_4pairIKccEELi0EEEvPT_, symObjAddr: 0x1D590, symBinAddr: 0x10003A8D4, symSize: 0x24 }
  - { offsetInCU: 0x25775, offset: 0x183B5B, size: 0x8, addend: 0x0, symName: __ZNSt3__112__destroy_atB8ue170006INS_4pairIKccEELi0EEEvPT_, symObjAddr: 0x1D5B4, symBinAddr: 0x10003A8F8, symSize: 0x10 }
  - { offsetInCU: 0x257AC, offset: 0x183B92, size: 0x8, addend: 0x0, symName: __ZNSt3__1eqB8ue170006ERKNS_25__hash_map_const_iteratorINS_21__hash_const_iteratorIPNS_11__hash_nodeINS_17__hash_value_typeIccEEPvEEEEEESB_, symObjAddr: 0x1D844, symBinAddr: 0x10003AB88, symSize: 0x30 }
  - { offsetInCU: 0x257E9, offset: 0x183BCF, size: 0x8, addend: 0x0, symName: __ZNSt3__1eqB8ue170006ERKNS_21__hash_const_iteratorIPNS_11__hash_nodeINS_17__hash_value_typeIccEEPvEEEES9_, symObjAddr: 0x1D8EC, symBinAddr: 0x10003AC30, symSize: 0x30 }
  - { offsetInCU: 0x25826, offset: 0x183C0C, size: 0x8, addend: 0x0, symName: __ZNSt3__1eqB8ue170006ERKNS_19__hash_map_iteratorINS_15__hash_iteratorIPNS_11__hash_nodeINS_17__hash_value_typeIccEEPvEEEEEESB_, symObjAddr: 0x1DCA8, symBinAddr: 0x10003AFEC, symSize: 0x30 }
  - { offsetInCU: 0x25863, offset: 0x183C49, size: 0x8, addend: 0x0, symName: __ZNSt3__1eqB8ue170006ERKNS_15__hash_iteratorIPNS_11__hash_nodeINS_17__hash_value_typeIccEEPvEEEES9_, symObjAddr: 0x1DF6C, symBinAddr: 0x10003B2B0, symSize: 0x30 }
  - { offsetInCU: 0x25906, offset: 0x183CEC, size: 0x8, addend: 0x0, symName: __ZNSt3__17launderB8ue170006IKNS_4pairIKc5ScopeEEEEPT_S7_, symObjAddr: 0x1F258, symBinAddr: 0x10003C59C, symSize: 0x24 }
  - { offsetInCU: 0x2593D, offset: 0x183D23, size: 0x8, addend: 0x0, symName: __ZNSt3__19__launderB8ue170006IKNS_4pairIKc5ScopeEEEEPT_S7_, symObjAddr: 0x1F27C, symBinAddr: 0x10003C5C0, symSize: 0x14 }
  - { offsetInCU: 0x259EC, offset: 0x183DD2, size: 0x8, addend: 0x0, symName: __ZNSt3__112construct_atB8ue170006INS_4pairIKc5ScopeEEJRKS4_EPS4_EEPT_S9_DpOT0_, symObjAddr: 0x1F5FC, symBinAddr: 0x10003C940, symSize: 0x2C }
  - { offsetInCU: 0x25A5E, offset: 0x183E44, size: 0x8, addend: 0x0, symName: __ZNSt3__17launderB8ue170006INS_4pairIKc5ScopeEEEEPT_S6_, symObjAddr: 0x1F64C, symBinAddr: 0x10003C990, symSize: 0x24 }
  - { offsetInCU: 0x25A95, offset: 0x183E7B, size: 0x8, addend: 0x0, symName: __ZNSt3__19__launderB8ue170006INS_4pairIKc5ScopeEEEEPT_S6_, symObjAddr: 0x1F670, symBinAddr: 0x10003C9B4, symSize: 0x14 }
  - { offsetInCU: 0x25ACC, offset: 0x183EB2, size: 0x8, addend: 0x0, symName: __ZNSt3__110destroy_atB8ue170006INS_4pairIKc5ScopeEELi0EEEvPT_, symObjAddr: 0x20084, symBinAddr: 0x10003D3C8, symSize: 0x24 }
  - { offsetInCU: 0x25B03, offset: 0x183EE9, size: 0x8, addend: 0x0, symName: __ZNSt3__112__destroy_atB8ue170006INS_4pairIKc5ScopeEELi0EEEvPT_, symObjAddr: 0x200A8, symBinAddr: 0x10003D3EC, symSize: 0x10 }
  - { offsetInCU: 0x25B3A, offset: 0x183F20, size: 0x8, addend: 0x0, symName: __ZNSt3__1eqB8ue170006ERKNS_25__hash_map_const_iteratorINS_21__hash_const_iteratorIPNS_11__hash_nodeINS_17__hash_value_typeIc5ScopeEEPvEEEEEESC_, symObjAddr: 0x20338, symBinAddr: 0x10003D67C, symSize: 0x30 }
  - { offsetInCU: 0x25B77, offset: 0x183F5D, size: 0x8, addend: 0x0, symName: __ZNSt3__1eqB8ue170006ERKNS_21__hash_const_iteratorIPNS_11__hash_nodeINS_17__hash_value_typeIc5ScopeEEPvEEEESA_, symObjAddr: 0x203E0, symBinAddr: 0x10003D724, symSize: 0x30 }
  - { offsetInCU: 0x25BB4, offset: 0x183F9A, size: 0x8, addend: 0x0, symName: __ZNSt3__1eqB8ue170006ERKNS_19__hash_map_iteratorINS_15__hash_iteratorIPNS_11__hash_nodeINS_17__hash_value_typeIc5ScopeEEPvEEEEEESC_, symObjAddr: 0x2079C, symBinAddr: 0x10003DAE0, symSize: 0x30 }
  - { offsetInCU: 0x25BF1, offset: 0x183FD7, size: 0x8, addend: 0x0, symName: __ZNSt3__1eqB8ue170006ERKNS_15__hash_iteratorIPNS_11__hash_nodeINS_17__hash_value_typeIc5ScopeEEPvEEEESA_, symObjAddr: 0x20A60, symBinAddr: 0x10003DDA4, symSize: 0x30 }
  - { offsetInCU: 0x26D01, offset: 0x1850E7, size: 0x8, addend: 0x0, symName: __ZNSt3__16vectorINS_10shared_ptrI6ActionEENS_9allocatorIS3_EEE26__swap_out_circular_bufferERNS_14__split_bufferIS3_RS5_EE, symObjAddr: 0x9108, symBinAddr: 0x100029F1C, symSize: 0x110 }
  - { offsetInCU: 0x2AB2E, offset: 0x188F14, size: 0x8, addend: 0x0, symName: __ZN13CommandParser10parseInputEc14ParsingContext, symObjAddr: 0x0, symBinAddr: 0x100023C70, symSize: 0x120 }
  - { offsetInCU: 0x2AB83, offset: 0x188F69, size: 0x8, addend: 0x0, symName: __ZNKSt3__123__optional_storage_baseI14CommandDetailsLb0EE9has_valueB8ue170006Ev, symObjAddr: 0x120, symBinAddr: 0x100023D90, symSize: 0x1C }
  - { offsetInCU: 0x2ABA9, offset: 0x188F8F, size: 0x8, addend: 0x0, symName: __ZN13CommandParser16parseAsParameterEc, symObjAddr: 0x13C, symBinAddr: 0x100023DAC, symSize: 0x1A8 }
  - { offsetInCU: 0x2ABFC, offset: 0x188FE2, size: 0x8, addend: 0x0, symName: __ZN13CommandParser15parseAsOperatorEc, symObjAddr: 0x2E4, symBinAddr: 0x100023F54, symSize: 0x224 }
  - { offsetInCU: 0x2AC54, offset: 0x18903A, size: 0x8, addend: 0x0, symName: __ZN13CommandParser15generateActionsE14ParsingContext, symObjAddr: 0x508, symBinAddr: 0x100024178, symSize: 0x10E4 }
  - { offsetInCU: 0x2ACF8, offset: 0x1890DE, size: 0x8, addend: 0x0, symName: __ZNSt3__18optionalI14CommandDetailsEptB8ue170006Ev, symObjAddr: 0x162C, symBinAddr: 0x10002529C, symSize: 0x24 }
  - { offsetInCU: 0x2AD1E, offset: 0x189104, size: 0x8, addend: 0x0, symName: __ZNSt3__18optionalI14CommandDetailsEaSB8ue170006ENS_9nullopt_tE, symObjAddr: 0x1650, symBinAddr: 0x1000252C0, symSize: 0x2C }
  - { offsetInCU: 0x2AE1D, offset: 0x189203, size: 0x8, addend: 0x0, symName: __ZNSt3__113unordered_mapIc14CommandDetailsNS_4hashIcEENS_8equal_toIcEENS_9allocatorINS_4pairIKcS1_EEEEEC1ESt16initializer_listIS9_E, symObjAddr: 0x16A8, symBinAddr: 0x1000252EC, symSize: 0x3C }
  - { offsetInCU: 0x2AE58, offset: 0x18923E, size: 0x8, addend: 0x0, symName: __ZNKSt3__113unordered_mapIc14CommandDetailsNS_4hashIcEENS_8equal_toIcEENS_9allocatorINS_4pairIKcS1_EEEEE8containsB8ue170006ERS8_, symObjAddr: 0x16E4, symBinAddr: 0x100025328, symSize: 0x64 }
  - { offsetInCU: 0x2AE8D, offset: 0x189273, size: 0x8, addend: 0x0, symName: __ZNSt3__113unordered_mapIc14CommandDetailsNS_4hashIcEENS_8equal_toIcEENS_9allocatorINS_4pairIKcS1_EEEEE2atERS8_, symObjAddr: 0x1748, symBinAddr: 0x10002538C, symSize: 0x7C }
  - { offsetInCU: 0x2AED8, offset: 0x1892BE, size: 0x8, addend: 0x0, symName: __ZNSt3__18optionalI14CommandDetailsEaSB8ue170006IRS1_vEERS2_OT_, symObjAddr: 0x17C4, symBinAddr: 0x100025408, symSize: 0x70 }
  - { offsetInCU: 0x2AF17, offset: 0x1892FD, size: 0x8, addend: 0x0, symName: __ZNSt3__113unordered_mapIc14CommandDetailsNS_4hashIcEENS_8equal_toIcEENS_9allocatorINS_4pairIKcS1_EEEEED1B8ue170006Ev, symObjAddr: 0x1834, symBinAddr: 0x100025478, symSize: 0x2C }
  - { offsetInCU: 0x2AF41, offset: 0x189327, size: 0x8, addend: 0x0, symName: __ZN13CommandParser11charToScopeEc, symObjAddr: 0x1860, symBinAddr: 0x1000254A4, symSize: 0x130 }
  - { offsetInCU: 0x2AF8A, offset: 0x189370, size: 0x8, addend: 0x0, symName: __ZNKSt3__123__optional_storage_baseI5ScopeLb0EE9has_valueB8ue170006Ev, symObjAddr: 0x1990, symBinAddr: 0x1000255D4, symSize: 0x1C }
  - { offsetInCU: 0x2AFB0, offset: 0x189396, size: 0x8, addend: 0x0, symName: __ZN13CommandParser16isRangeIndicatorEc, symObjAddr: 0x19AC, symBinAddr: 0x1000255F0, symSize: 0x64 }
  - { offsetInCU: 0x2AFE8, offset: 0x1893CE, size: 0x8, addend: 0x0, symName: __ZN13CommandParser24getOpeningRangeIndicatorEc, symObjAddr: 0x1A10, symBinAddr: 0x100025654, symSize: 0x1A4 }
  - { offsetInCU: 0x2B035, offset: 0x18941B, size: 0x8, addend: 0x0, symName: __ZNSt3__18optionalIcEC1B8ue170006IcLi0EEEOT_, symObjAddr: 0x1BB4, symBinAddr: 0x1000257F8, symSize: 0x34 }
  - { offsetInCU: 0x2B07D, offset: 0x189463, size: 0x8, addend: 0x0, symName: __ZNSt3__18optionalIcEC1B8ue170006IRcLi0EEEOT_, symObjAddr: 0x1BE8, symBinAddr: 0x10002582C, symSize: 0x34 }
  - { offsetInCU: 0x2B0C5, offset: 0x1894AB, size: 0x8, addend: 0x0, symName: __ZN13CommandParser10emptyParseEv, symObjAddr: 0x1C1C, symBinAddr: 0x100025860, symSize: 0x3C }
  - { offsetInCU: 0x2B0EE, offset: 0x1894D4, size: 0x8, addend: 0x0, symName: __ZN13CommandParser12generateHintEv, symObjAddr: 0x1C58, symBinAddr: 0x10002589C, symSize: 0x5AC }
  - { offsetInCU: 0x2B11D, offset: 0x189503, size: 0x8, addend: 0x0, symName: __ZN13CommandParser25generateCharacterwiseMoveE10ScreenSize, symObjAddr: 0x2264, symBinAddr: 0x100025E48, symSize: 0x20C }
  - { offsetInCU: 0x2B155, offset: 0x18953B, size: 0x8, addend: 0x0, symName: __ZN13CommandParser26generateMultiCharacterMoveE14ParsingContext11EndBehavior, symObjAddr: 0x2470, symBinAddr: 0x100026054, symSize: 0x734 }
  - { offsetInCU: 0x2B20D, offset: 0x1895F3, size: 0x8, addend: 0x0, symName: __ZNSt3__18optionalI8ModeTypeEC1B8ue170006IRS1_Li0EEEOT_, symObjAddr: 0x2BDC, symBinAddr: 0x100026788, symSize: 0x34 }
  - { offsetInCU: 0x2B278, offset: 0x18965E, size: 0x8, addend: 0x0, symName: __ZN13CommandParser31generatParagraphCreationCommandE14ParsingContext, symObjAddr: 0x2D20, symBinAddr: 0x1000267BC, symSize: 0x41C }
  - { offsetInCU: 0x2B346, offset: 0x18972C, size: 0x8, addend: 0x0, symName: __ZN13ScopeSettingsD1Ev, symObjAddr: 0x3168, symBinAddr: 0x100026BD8, symSize: 0x2C }
  - { offsetInCU: 0x2B395, offset: 0x18977B, size: 0x8, addend: 0x0, symName: __ZNSt3__110shared_ptrI6ActionEC1B8ue170006I17SectionMoveActionvEEONS0_IT_EE, symObjAddr: 0x322C, symBinAddr: 0x100026C9C, symSize: 0x34 }
  - { offsetInCU: 0x2B3FB, offset: 0x1897E1, size: 0x8, addend: 0x0, symName: __ZNSt3__110shared_ptrI6ActionEC1B8ue170006I22ParagraphJoiningActionvEEONS0_IT_EE, symObjAddr: 0x3298, symBinAddr: 0x100026D08, symSize: 0x34 }
  - { offsetInCU: 0x2B43E, offset: 0x189824, size: 0x8, addend: 0x0, symName: __ZNSt3__110shared_ptrI22ParagraphJoiningActionED1B8ue170006Ev, symObjAddr: 0x32CC, symBinAddr: 0x100026D3C, symSize: 0x2C }
  - { offsetInCU: 0x2B468, offset: 0x18984E, size: 0x8, addend: 0x0, symName: __ZNSt3__110shared_ptrI17SectionMoveActionED1B8ue170006Ev, symObjAddr: 0x32F8, symBinAddr: 0x100026D68, symSize: 0x2C }
  - { offsetInCU: 0x2B4AB, offset: 0x189891, size: 0x8, addend: 0x0, symName: __ZN13CommandParser22generateCaseSetCommandE14ParsingContext4Case, symObjAddr: 0x35D8, symBinAddr: 0x100026D94, symSize: 0x6E0 }
  - { offsetInCU: 0x2B55E, offset: 0x189944, size: 0x8, addend: 0x0, symName: __ZN13CommandParser19generateFileCommandERK8Settings, symObjAddr: 0x3CB8, symBinAddr: 0x100027474, symSize: 0xD80 }
  - { offsetInCU: 0x2B5EB, offset: 0x1899D1, size: 0x8, addend: 0x0, symName: __ZNSt3__110shared_ptrI6ActionEC1B8ue170006I10UndoActionvEEONS0_IT_EE, symObjAddr: 0x4A70, symBinAddr: 0x10002822C, symSize: 0x34 }
  - { offsetInCU: 0x2B62E, offset: 0x189A14, size: 0x8, addend: 0x0, symName: __ZNSt3__110shared_ptrI10UndoActionED1B8ue170006Ev, symObjAddr: 0x4AA4, symBinAddr: 0x100028260, symSize: 0x2C }
  - { offsetInCU: 0x2B67B, offset: 0x189A61, size: 0x8, addend: 0x0, symName: __ZNSt3__110shared_ptrI6ActionEC1B8ue170006I13MessageActionvEEONS0_IT_EE, symObjAddr: 0x4B3C, symBinAddr: 0x1000282CC, symSize: 0x34 }
  - { offsetInCU: 0x2B6BE, offset: 0x189AA4, size: 0x8, addend: 0x0, symName: __ZNSt3__110shared_ptrI13MessageActionED1B8ue170006Ev, symObjAddr: 0x4B70, symBinAddr: 0x100028300, symSize: 0x2C }
  - { offsetInCU: 0x2B6E8, offset: 0x189ACE, size: 0x8, addend: 0x0, symName: __ZN13CommandParser16getAntiDelimiterEc, symObjAddr: 0x4C64, symBinAddr: 0x1000283F4, symSize: 0x3B4 }
  - { offsetInCU: 0x2B748, offset: 0x189B2E, size: 0x8, addend: 0x0, symName: __ZNSt3__14pairIKcNS_12basic_stringIcNS_11char_traitsIcEENS_9allocatorIcEEEEEC1B8ue170006IcRA2_S1_LPv0EEEOT_OT0_, symObjAddr: 0x5018, symBinAddr: 0x1000287A8, symSize: 0x3C }
  - { offsetInCU: 0x2B7A7, offset: 0x189B8D, size: 0x8, addend: 0x0, symName: __ZNSt3__14pairIKcNS_12basic_stringIcNS_11char_traitsIcEENS_9allocatorIcEEEEED1Ev, symObjAddr: 0x5054, symBinAddr: 0x1000287E4, symSize: 0x2C }
  - { offsetInCU: 0x2B89B, offset: 0x189C81, size: 0x8, addend: 0x0, symName: __ZNSt3__113unordered_mapIcNS_12basic_stringIcNS_11char_traitsIcEENS_9allocatorIcEEEENS_4hashIcEENS_8equal_toIcEENS4_INS_4pairIKcS6_EEEEEC1ESt16initializer_listISD_E, symObjAddr: 0x5080, symBinAddr: 0x100028810, symSize: 0x3C }
  - { offsetInCU: 0x2B8D6, offset: 0x189CBC, size: 0x8, addend: 0x0, symName: __ZNKSt3__113unordered_mapIcNS_12basic_stringIcNS_11char_traitsIcEENS_9allocatorIcEEEENS_4hashIcEENS_8equal_toIcEENS4_INS_4pairIKcS6_EEEEE8containsB8ue170006ERSC_, symObjAddr: 0x50BC, symBinAddr: 0x10002884C, symSize: 0x64 }
  - { offsetInCU: 0x2B90B, offset: 0x189CF1, size: 0x8, addend: 0x0, symName: __ZNSt3__113unordered_mapIcNS_12basic_stringIcNS_11char_traitsIcEENS_9allocatorIcEEEENS_4hashIcEENS_8equal_toIcEENS4_INS_4pairIKcS6_EEEEE2atERSC_, symObjAddr: 0x5120, symBinAddr: 0x1000288B0, symSize: 0x7C }
  - { offsetInCU: 0x2B951, offset: 0x189D37, size: 0x8, addend: 0x0, symName: __ZNSt3__113unordered_mapIcNS_12basic_stringIcNS_11char_traitsIcEENS_9allocatorIcEEEENS_4hashIcEENS_8equal_toIcEENS4_INS_4pairIKcS6_EEEEED1B8ue170006Ev, symObjAddr: 0x519C, symBinAddr: 0x10002892C, symSize: 0x2C }
  - { offsetInCU: 0x2BA48, offset: 0x189E2E, size: 0x8, addend: 0x0, symName: __ZNSt3__18optionalINS_12basic_stringIcNS_11char_traitsIcEENS_9allocatorIcEEEEEC1B8ue170006IS6_Li0EEEOT_, symObjAddr: 0x5228, symBinAddr: 0x100028958, symSize: 0x34 }
  - { offsetInCU: 0x2BADA, offset: 0x189EC0, size: 0x8, addend: 0x0, symName: __ZN13RangeSettingsD1Ev, symObjAddr: 0x525C, symBinAddr: 0x10002898C, symSize: 0x2C }
  - { offsetInCU: 0x2BB06, offset: 0x189EEC, size: 0x8, addend: 0x0, symName: __ZNRSt3__18optionalI5ScopeEdeB8ue170006Ev, symObjAddr: 0x52D8, symBinAddr: 0x100028A08, symSize: 0x24 }
  - { offsetInCU: 0x2BB36, offset: 0x189F1C, size: 0x8, addend: 0x0, symName: __ZN13ScopeSettingsC1ERKS_, symObjAddr: 0x52FC, symBinAddr: 0x100028A2C, symSize: 0x34 }
  - { offsetInCU: 0x2BB8E, offset: 0x189F74, size: 0x8, addend: 0x0, symName: __ZNSt3__110shared_ptrI6ActionEC1B8ue170006I13CaseSetActionvEEONS0_IT_EE, symObjAddr: 0x5380, symBinAddr: 0x100028AB0, symSize: 0x34 }
  - { offsetInCU: 0x2BBD1, offset: 0x189FB7, size: 0x8, addend: 0x0, symName: __ZNSt3__110shared_ptrI13CaseSetActionED1B8ue170006Ev, symObjAddr: 0x53B4, symBinAddr: 0x100028AE4, symSize: 0x2C }
  - { offsetInCU: 0x2BC1E, offset: 0x18A004, size: 0x8, addend: 0x0, symName: __ZNSt3__110shared_ptrI6ActionEC1B8ue170006I10QuitActionvEEONS0_IT_EE, symObjAddr: 0x5420, symBinAddr: 0x100028B50, symSize: 0x34 }
  - { offsetInCU: 0x2BC6B, offset: 0x18A051, size: 0x8, addend: 0x0, symName: __ZNSt3__14pairIKc11ParseResultEC1B8ue170006ILb1ELPv0EEERS1_RKS2_, symObjAddr: 0x5454, symBinAddr: 0x100028B84, symSize: 0x3C }
  - { offsetInCU: 0x2BCE5, offset: 0x18A0CB, size: 0x8, addend: 0x0, symName: __ZNSt3__110shared_ptrI6ActionEC1B8ue170006I10SaveActionvEEONS0_IT_EE, symObjAddr: 0x54D0, symBinAddr: 0x100028C00, symSize: 0x34 }
  - { offsetInCU: 0x2BDF0, offset: 0x18A1D6, size: 0x8, addend: 0x0, symName: __ZNSt3__113unordered_mapIc11ParseResultNS_4hashIcEENS_8equal_toIcEENS_9allocatorINS_4pairIKcS1_EEEEEC1ESt16initializer_listIS9_E, symObjAddr: 0x5504, symBinAddr: 0x100028C34, symSize: 0x3C }
  - { offsetInCU: 0x2BE2B, offset: 0x18A211, size: 0x8, addend: 0x0, symName: __ZNSt3__14pairIKc11ParseResultED1Ev, symObjAddr: 0x5540, symBinAddr: 0x100028C70, symSize: 0x2C }
  - { offsetInCU: 0x2BE57, offset: 0x18A23D, size: 0x8, addend: 0x0, symName: __ZNSt3__110shared_ptrI10QuitActionED1B8ue170006Ev, symObjAddr: 0x556C, symBinAddr: 0x100028C9C, symSize: 0x2C }
  - { offsetInCU: 0x2BE81, offset: 0x18A267, size: 0x8, addend: 0x0, symName: __ZNSt3__110shared_ptrI10SaveActionED1B8ue170006Ev, symObjAddr: 0x5598, symBinAddr: 0x100028CC8, symSize: 0x2C }
  - { offsetInCU: 0x2BEAB, offset: 0x18A291, size: 0x8, addend: 0x0, symName: __ZNKSt3__113unordered_mapIc11ParseResultNS_4hashIcEENS_8equal_toIcEENS_9allocatorINS_4pairIKcS1_EEEEE8containsB8ue170006ERS8_, symObjAddr: 0x55C4, symBinAddr: 0x100028CF4, symSize: 0x64 }
  - { offsetInCU: 0x2BEE0, offset: 0x18A2C6, size: 0x8, addend: 0x0, symName: __ZNSt3__113unordered_mapIc11ParseResultNS_4hashIcEENS_8equal_toIcEENS_9allocatorINS_4pairIKcS1_EEEEE2atERS8_, symObjAddr: 0x5628, symBinAddr: 0x100028D58, symSize: 0x7C }
  - { offsetInCU: 0x2BF26, offset: 0x18A30C, size: 0x8, addend: 0x0, symName: __ZN11ParseResultC1ERKS_, symObjAddr: 0x56A4, symBinAddr: 0x100028DD4, symSize: 0x34 }
  - { offsetInCU: 0x2BF5B, offset: 0x18A341, size: 0x8, addend: 0x0, symName: __ZNSt3__113unordered_mapIc11ParseResultNS_4hashIcEENS_8equal_toIcEENS_9allocatorINS_4pairIKcS1_EEEEED1B8ue170006Ev, symObjAddr: 0x579C, symBinAddr: 0x100028E48, symSize: 0x2C }
  - { offsetInCU: 0x2BF85, offset: 0x18A36B, size: 0x8, addend: 0x0, symName: __ZNSt3__16vectorINS_10shared_ptrI6ActionEENS_9allocatorIS3_EEE12emplace_backIJNS1_I18CharwiseMoveActionEEEEERS3_DpOT_, symObjAddr: 0x57C8, symBinAddr: 0x100028E74, symSize: 0x74 }
  - { offsetInCU: 0x2BFC7, offset: 0x18A3AD, size: 0x8, addend: 0x0, symName: __ZNSt3__14pairIKccEC1B8ue170006IccLPv0EEEOT_OT0_, symObjAddr: 0x583C, symBinAddr: 0x100028EE8, symSize: 0x3C }
  - { offsetInCU: 0x2C0EE, offset: 0x18A4D4, size: 0x8, addend: 0x0, symName: __ZNSt3__113unordered_mapIccNS_4hashIcEENS_8equal_toIcEENS_9allocatorINS_4pairIKccEEEEEC1ESt16initializer_listIS8_E, symObjAddr: 0x5878, symBinAddr: 0x100028F24, symSize: 0x3C }
  - { offsetInCU: 0x2C129, offset: 0x18A50F, size: 0x8, addend: 0x0, symName: __ZNKSt3__113unordered_mapIccNS_4hashIcEENS_8equal_toIcEENS_9allocatorINS_4pairIKccEEEEE8containsB8ue170006ERS7_, symObjAddr: 0x58B4, symBinAddr: 0x100028F60, symSize: 0x64 }
  - { offsetInCU: 0x2C15E, offset: 0x18A544, size: 0x8, addend: 0x0, symName: __ZNSt3__113unordered_mapIccNS_4hashIcEENS_8equal_toIcEENS_9allocatorINS_4pairIKccEEEEE2atERS7_, symObjAddr: 0x5918, symBinAddr: 0x100028FC4, symSize: 0x7C }
  - { offsetInCU: 0x2C1A4, offset: 0x18A58A, size: 0x8, addend: 0x0, symName: __ZNSt3__113unordered_mapIccNS_4hashIcEENS_8equal_toIcEENS_9allocatorINS_4pairIKccEEEEED1B8ue170006Ev, symObjAddr: 0x5994, symBinAddr: 0x100029040, symSize: 0x2C }
  - { offsetInCU: 0x2C1CE, offset: 0x18A5B4, size: 0x8, addend: 0x0, symName: __ZN13CommandParser24getClosingRangeIndicatorEc, symObjAddr: 0x59C0, symBinAddr: 0x10002906C, symSize: 0x1A4 }
  - { offsetInCU: 0x2C2DE, offset: 0x18A6C4, size: 0x8, addend: 0x0, symName: __ZNSt3__113unordered_mapIc5ScopeNS_4hashIcEENS_8equal_toIcEENS_9allocatorINS_4pairIKcS1_EEEEEC1ESt16initializer_listIS9_E, symObjAddr: 0x5B64, symBinAddr: 0x100029210, symSize: 0x3C }
  - { offsetInCU: 0x2C319, offset: 0x18A6FF, size: 0x8, addend: 0x0, symName: __ZNKSt3__113unordered_mapIc5ScopeNS_4hashIcEENS_8equal_toIcEENS_9allocatorINS_4pairIKcS1_EEEEE8containsB8ue170006ERS8_, symObjAddr: 0x5BA0, symBinAddr: 0x10002924C, symSize: 0x64 }
  - { offsetInCU: 0x2C34E, offset: 0x18A734, size: 0x8, addend: 0x0, symName: __ZNSt3__113unordered_mapIc5ScopeNS_4hashIcEENS_8equal_toIcEENS_9allocatorINS_4pairIKcS1_EEEEE2atERS8_, symObjAddr: 0x5C04, symBinAddr: 0x1000292B0, symSize: 0x7C }
  - { offsetInCU: 0x2C399, offset: 0x18A77F, size: 0x8, addend: 0x0, symName: __ZNSt3__18optionalI5ScopeEC1B8ue170006IRS1_Li0EEEOT_, symObjAddr: 0x5C80, symBinAddr: 0x10002932C, symSize: 0x34 }
  - { offsetInCU: 0x2C3E1, offset: 0x18A7C7, size: 0x8, addend: 0x0, symName: __ZNSt3__18optionalI5ScopeEC1B8ue170006ENS_9nullopt_tE, symObjAddr: 0x5CB4, symBinAddr: 0x100029360, symSize: 0x2C }
  - { offsetInCU: 0x2C417, offset: 0x18A7FD, size: 0x8, addend: 0x0, symName: __ZNSt3__113unordered_mapIc5ScopeNS_4hashIcEENS_8equal_toIcEENS_9allocatorINS_4pairIKcS1_EEEEED1B8ue170006Ev, symObjAddr: 0x5CE0, symBinAddr: 0x10002938C, symSize: 0x2C }
  - { offsetInCU: 0x2C441, offset: 0x18A827, size: 0x8, addend: 0x0, symName: __ZNRSt3__123__optional_storage_baseI14CommandDetailsLb0EE5__getB8ue170006Ev, symObjAddr: 0x5D0C, symBinAddr: 0x1000293B8, symSize: 0x14 }
  - { offsetInCU: 0x2C467, offset: 0x18A84D, size: 0x8, addend: 0x0, symName: __ZNSt3__124__optional_destruct_baseI14CommandDetailsLb1EE5resetB8ue170006Ev, symObjAddr: 0x5D20, symBinAddr: 0x1000293CC, symSize: 0x30 }
  - { offsetInCU: 0x2C48D, offset: 0x18A873, size: 0x8, addend: 0x0, symName: __ZNSt3__123__optional_storage_baseI14CommandDetailsLb0EE11__constructB8ue170006IJRS1_EEEvDpOT_, symObjAddr: 0x63DC, symBinAddr: 0x1000293FC, symSize: 0x3C }
  - { offsetInCU: 0x2C4CD, offset: 0x18A8B3, size: 0x8, addend: 0x0, symName: __ZNSt3__18optionalIcEC2B8ue170006IcLi0EEEOT_, symObjAddr: 0x644C, symBinAddr: 0x10002946C, symSize: 0x34 }
  - { offsetInCU: 0x2C51A, offset: 0x18A900, size: 0x8, addend: 0x0, symName: __ZNSt3__127__optional_move_assign_baseIcLb1EECI2NS_24__optional_destruct_baseIcLb1EEEIJcEEENS_10in_place_tEDpOT_, symObjAddr: 0x6480, symBinAddr: 0x1000294A0, symSize: 0x34 }
  - { offsetInCU: 0x2C55E, offset: 0x18A944, size: 0x8, addend: 0x0, symName: __ZNSt3__127__optional_copy_assign_baseIcLb1EECI2NS_24__optional_destruct_baseIcLb1EEEIJcEEENS_10in_place_tEDpOT_, symObjAddr: 0x64B4, symBinAddr: 0x1000294D4, symSize: 0x34 }
  - { offsetInCU: 0x2C5A2, offset: 0x18A988, size: 0x8, addend: 0x0, symName: __ZNSt3__120__optional_move_baseIcLb1EECI2NS_24__optional_destruct_baseIcLb1EEEIJcEEENS_10in_place_tEDpOT_, symObjAddr: 0x64E8, symBinAddr: 0x100029508, symSize: 0x34 }
  - { offsetInCU: 0x2C5E6, offset: 0x18A9CC, size: 0x8, addend: 0x0, symName: __ZNSt3__120__optional_copy_baseIcLb1EECI2NS_24__optional_destruct_baseIcLb1EEEIJcEEENS_10in_place_tEDpOT_, symObjAddr: 0x651C, symBinAddr: 0x10002953C, symSize: 0x34 }
  - { offsetInCU: 0x2C625, offset: 0x18AA0B, size: 0x8, addend: 0x0, symName: __ZNSt3__123__optional_storage_baseIcLb0EECI2NS_24__optional_destruct_baseIcLb1EEEIJcEEENS_10in_place_tEDpOT_, symObjAddr: 0x6550, symBinAddr: 0x100029570, symSize: 0x34 }
  - { offsetInCU: 0x2C664, offset: 0x18AA4A, size: 0x8, addend: 0x0, symName: __ZNSt3__124__optional_destruct_baseIcLb1EEC2B8ue170006IJcEEENS_10in_place_tEDpOT_, symObjAddr: 0x6584, symBinAddr: 0x1000295A4, symSize: 0x2C }
  - { offsetInCU: 0x2C6B4, offset: 0x18AA9A, size: 0x8, addend: 0x0, symName: __ZNSt3__18optionalIcEC2B8ue170006IRcLi0EEEOT_, symObjAddr: 0x65B0, symBinAddr: 0x1000295D0, symSize: 0x34 }
  - { offsetInCU: 0x2C6FC, offset: 0x18AAE2, size: 0x8, addend: 0x0, symName: __ZNSt3__127__optional_move_assign_baseIcLb1EECI2NS_24__optional_destruct_baseIcLb1EEEIJRcEEENS_10in_place_tEDpOT_, symObjAddr: 0x65E4, symBinAddr: 0x100029604, symSize: 0x34 }
  - { offsetInCU: 0x2C73B, offset: 0x18AB21, size: 0x8, addend: 0x0, symName: __ZNSt3__127__optional_copy_assign_baseIcLb1EECI2NS_24__optional_destruct_baseIcLb1EEEIJRcEEENS_10in_place_tEDpOT_, symObjAddr: 0x6618, symBinAddr: 0x100029638, symSize: 0x34 }
  - { offsetInCU: 0x2C77A, offset: 0x18AB60, size: 0x8, addend: 0x0, symName: __ZNSt3__120__optional_move_baseIcLb1EECI2NS_24__optional_destruct_baseIcLb1EEEIJRcEEENS_10in_place_tEDpOT_, symObjAddr: 0x664C, symBinAddr: 0x10002966C, symSize: 0x34 }
  - { offsetInCU: 0x2C7B9, offset: 0x18AB9F, size: 0x8, addend: 0x0, symName: __ZNSt3__120__optional_copy_baseIcLb1EECI2NS_24__optional_destruct_baseIcLb1EEEIJRcEEENS_10in_place_tEDpOT_, symObjAddr: 0x6680, symBinAddr: 0x1000296A0, symSize: 0x34 }
  - { offsetInCU: 0x2C7F8, offset: 0x18ABDE, size: 0x8, addend: 0x0, symName: __ZNSt3__123__optional_storage_baseIcLb0EECI2NS_24__optional_destruct_baseIcLb1EEEIJRcEEENS_10in_place_tEDpOT_, symObjAddr: 0x66B4, symBinAddr: 0x1000296D4, symSize: 0x34 }
  - { offsetInCU: 0x2C837, offset: 0x18AC1D, size: 0x8, addend: 0x0, symName: __ZNSt3__124__optional_destruct_baseIcLb1EEC2B8ue170006IJRcEEENS_10in_place_tEDpOT_, symObjAddr: 0x66E8, symBinAddr: 0x100029708, symSize: 0x2C }
  - { offsetInCU: 0x2C8A5, offset: 0x18AC8B, size: 0x8, addend: 0x0, symName: __ZNSt3__18optionalI8ModeTypeEC2B8ue170006IRS1_Li0EEEOT_, symObjAddr: 0x69C8, symBinAddr: 0x100029734, symSize: 0x34 }
  - { offsetInCU: 0x2C8ED, offset: 0x18ACD3, size: 0x8, addend: 0x0, symName: __ZNSt3__127__optional_move_assign_baseI8ModeTypeLb1EECI2NS_24__optional_destruct_baseIS1_Lb1EEEIJRS1_EEENS_10in_place_tEDpOT_, symObjAddr: 0x69FC, symBinAddr: 0x100029768, symSize: 0x34 }
  - { offsetInCU: 0x2C92C, offset: 0x18AD12, size: 0x8, addend: 0x0, symName: __ZNSt3__127__optional_copy_assign_baseI8ModeTypeLb1EECI2NS_24__optional_destruct_baseIS1_Lb1EEEIJRS1_EEENS_10in_place_tEDpOT_, symObjAddr: 0x6A30, symBinAddr: 0x10002979C, symSize: 0x34 }
  - { offsetInCU: 0x2C96B, offset: 0x18AD51, size: 0x8, addend: 0x0, symName: __ZNSt3__120__optional_move_baseI8ModeTypeLb1EECI2NS_24__optional_destruct_baseIS1_Lb1EEEIJRS1_EEENS_10in_place_tEDpOT_, symObjAddr: 0x6A64, symBinAddr: 0x1000297D0, symSize: 0x34 }
  - { offsetInCU: 0x2C9AA, offset: 0x18AD90, size: 0x8, addend: 0x0, symName: __ZNSt3__120__optional_copy_baseI8ModeTypeLb1EECI2NS_24__optional_destruct_baseIS1_Lb1EEEIJRS1_EEENS_10in_place_tEDpOT_, symObjAddr: 0x6A98, symBinAddr: 0x100029804, symSize: 0x34 }
  - { offsetInCU: 0x2C9E9, offset: 0x18ADCF, size: 0x8, addend: 0x0, symName: __ZNSt3__123__optional_storage_baseI8ModeTypeLb0EECI2NS_24__optional_destruct_baseIS1_Lb1EEEIJRS1_EEENS_10in_place_tEDpOT_, symObjAddr: 0x6ACC, symBinAddr: 0x100029838, symSize: 0x34 }
  - { offsetInCU: 0x2CA28, offset: 0x18AE0E, size: 0x8, addend: 0x0, symName: __ZNSt3__124__optional_destruct_baseI8ModeTypeLb1EEC2B8ue170006IJRS1_EEENS_10in_place_tEDpOT_, symObjAddr: 0x6B00, symBinAddr: 0x10002986C, symSize: 0x2C }
  - { offsetInCU: 0x2CA9B, offset: 0x18AE81, size: 0x8, addend: 0x0, symName: __ZN13ScopeSettingsD2Ev, symObjAddr: 0x80C0, symBinAddr: 0x100029898, symSize: 0x30 }
  - { offsetInCU: 0x2CAE5, offset: 0x18AECB, size: 0x8, addend: 0x0, symName: __ZNSt3__110__get_pairILm0EE3getB8ue170006I8PositionS3_EEOT_ONS_4pairIS4_T0_EE, symObjAddr: 0x80F0, symBinAddr: 0x1000298C8, symSize: 0x14 }
  - { offsetInCU: 0x2CB1B, offset: 0x18AF01, size: 0x8, addend: 0x0, symName: __ZNSt3__110__get_pairILm1EE3getB8ue170006I8PositionS3_EEOT0_ONS_4pairIT_S4_EE, symObjAddr: 0x8104, symBinAddr: 0x1000298DC, symSize: 0x18 }
  - { offsetInCU: 0x2CB51, offset: 0x18AF37, size: 0x8, addend: 0x0, symName: __ZNSt3__14pairIKcNS_12basic_stringIcNS_11char_traitsIcEENS_9allocatorIcEEEEEC2B8ue170006IcRA2_S1_LPv0EEEOT_OT0_, symObjAddr: 0x82F0, symBinAddr: 0x1000298F4, symSize: 0x48 }
  - { offsetInCU: 0x2CBB0, offset: 0x18AF96, size: 0x8, addend: 0x0, symName: __ZNSt3__14pairIKcNS_12basic_stringIcNS_11char_traitsIcEENS_9allocatorIcEEEEED2Ev, symObjAddr: 0x8338, symBinAddr: 0x10002993C, symSize: 0x30 }
  - { offsetInCU: 0x2CBDC, offset: 0x18AFC2, size: 0x8, addend: 0x0, symName: __ZNSt3__18optionalINS_12basic_stringIcNS_11char_traitsIcEENS_9allocatorIcEEEEEC2B8ue170006IS6_Li0EEEOT_, symObjAddr: 0x83C8, symBinAddr: 0x10002996C, symSize: 0x34 }
  - { offsetInCU: 0x2CC24, offset: 0x18B00A, size: 0x8, addend: 0x0, symName: __ZNSt3__127__optional_move_assign_baseINS_12basic_stringIcNS_11char_traitsIcEENS_9allocatorIcEEEELb0EECI2NS_24__optional_destruct_baseIS6_Lb0EEEIJS6_EEENS_10in_place_tEDpOT_, symObjAddr: 0x83FC, symBinAddr: 0x1000299A0, symSize: 0x34 }
  - { offsetInCU: 0x2CC63, offset: 0x18B049, size: 0x8, addend: 0x0, symName: __ZNSt3__127__optional_copy_assign_baseINS_12basic_stringIcNS_11char_traitsIcEENS_9allocatorIcEEEELb0EECI2NS_24__optional_destruct_baseIS6_Lb0EEEIJS6_EEENS_10in_place_tEDpOT_, symObjAddr: 0x8430, symBinAddr: 0x1000299D4, symSize: 0x34 }
  - { offsetInCU: 0x2CCA2, offset: 0x18B088, size: 0x8, addend: 0x0, symName: __ZNSt3__120__optional_move_baseINS_12basic_stringIcNS_11char_traitsIcEENS_9allocatorIcEEEELb0EECI2NS_24__optional_destruct_baseIS6_Lb0EEEIJS6_EEENS_10in_place_tEDpOT_, symObjAddr: 0x8464, symBinAddr: 0x100029A08, symSize: 0x34 }
  - { offsetInCU: 0x2CCE1, offset: 0x18B0C7, size: 0x8, addend: 0x0, symName: __ZNSt3__120__optional_copy_baseINS_12basic_stringIcNS_11char_traitsIcEENS_9allocatorIcEEEELb0EECI2NS_24__optional_destruct_baseIS6_Lb0EEEIJS6_EEENS_10in_place_tEDpOT_, symObjAddr: 0x8498, symBinAddr: 0x100029A3C, symSize: 0x34 }
  - { offsetInCU: 0x2CD20, offset: 0x18B106, size: 0x8, addend: 0x0, symName: __ZNSt3__123__optional_storage_baseINS_12basic_stringIcNS_11char_traitsIcEENS_9allocatorIcEEEELb0EECI2NS_24__optional_destruct_baseIS6_Lb0EEEIJS6_EEENS_10in_place_tEDpOT_, symObjAddr: 0x84CC, symBinAddr: 0x100029A70, symSize: 0x34 }
  - { offsetInCU: 0x2CD5F, offset: 0x18B145, size: 0x8, addend: 0x0, symName: __ZNSt3__124__optional_destruct_baseINS_12basic_stringIcNS_11char_traitsIcEENS_9allocatorIcEEEELb0EEC2B8ue170006IJS6_EEENS_10in_place_tEDpOT_, symObjAddr: 0x8500, symBinAddr: 0x100029AA4, symSize: 0x3C }
  - { offsetInCU: 0x2CDAF, offset: 0x18B195, size: 0x8, addend: 0x0, symName: __ZN13RangeSettingsD2Ev, symObjAddr: 0x85B8, symBinAddr: 0x100029AE0, symSize: 0x38 }
  - { offsetInCU: 0x2CDDB, offset: 0x18B1C1, size: 0x8, addend: 0x0, symName: __ZNRSt3__123__optional_storage_baseI5ScopeLb0EE5__getB8ue170006Ev, symObjAddr: 0x876C, symBinAddr: 0x100029B18, symSize: 0x14 }
  - { offsetInCU: 0x2CE01, offset: 0x18B1E7, size: 0x8, addend: 0x0, symName: __ZN13ScopeSettingsC2ERKS_, symObjAddr: 0x8780, symBinAddr: 0x100029B2C, symSize: 0x48 }
  - { offsetInCU: 0x2CE36, offset: 0x18B21C, size: 0x8, addend: 0x0, symName: __ZNSt3__14pairIKc11ParseResultEC2B8ue170006ILb1ELPv0EEERS1_RKS2_, symObjAddr: 0x87C8, symBinAddr: 0x100029B74, symSize: 0x48 }
  - { offsetInCU: 0x2CE8D, offset: 0x18B273, size: 0x8, addend: 0x0, symName: __ZNSt3__14pairIKc11ParseResultED2Ev, symObjAddr: 0x8810, symBinAddr: 0x100029BBC, symSize: 0x30 }
  - { offsetInCU: 0x2CEB9, offset: 0x18B29F, size: 0x8, addend: 0x0, symName: __ZN11ParseResultC2ERKS_, symObjAddr: 0x8840, symBinAddr: 0x100029BEC, symSize: 0x48 }
  - { offsetInCU: 0x2CEEE, offset: 0x18B2D4, size: 0x8, addend: 0x0, symName: __ZNSt3__16vectorINS_10shared_ptrI6ActionEENS_9allocatorIS3_EEE22__construct_one_at_endB8ue170006IJNS1_I18CharwiseMoveActionEEEEEvDpOT_, symObjAddr: 0x8E20, symBinAddr: 0x100029C34, symSize: 0x90 }
  - { offsetInCU: 0x2CF3D, offset: 0x18B323, size: 0x8, addend: 0x0, symName: __ZNSt3__16vectorINS_10shared_ptrI6ActionEENS_9allocatorIS3_EEE24__emplace_back_slow_pathIJNS1_I18CharwiseMoveActionEEEEEvDpOT_, symObjAddr: 0x8EB0, symBinAddr: 0x100029CC4, symSize: 0xD8 }
  - { offsetInCU: 0x2CF9D, offset: 0x18B383, size: 0x8, addend: 0x0, symName: __ZNSt3__16vectorINS_10shared_ptrI6ActionEENS_9allocatorIS3_EEE4backB8ue170006Ev, symObjAddr: 0x8F88, symBinAddr: 0x100029D9C, symSize: 0x1C }
  - { offsetInCU: 0x2CFC3, offset: 0x18B3A9, size: 0x8, addend: 0x0, symName: __ZNSt3__116allocator_traitsINS_9allocatorINS_10shared_ptrI6ActionEEEEE9constructB8ue170006IS4_JNS2_I18CharwiseMoveActionEEEvvEEvRS5_PT_DpOT0_, symObjAddr: 0x8FA4, symBinAddr: 0x100029DB8, symSize: 0x30 }
  - { offsetInCU: 0x2D018, offset: 0x18B3FE, size: 0x8, addend: 0x0, symName: __ZNKSt3__16vectorINS_10shared_ptrI6ActionEENS_9allocatorIS3_EEE11__recommendB8ue170006Em, symObjAddr: 0x9010, symBinAddr: 0x100029E24, symSize: 0xB4 }
  - { offsetInCU: 0x2D06D, offset: 0x18B453, size: 0x8, addend: 0x0, symName: __ZNSt3__114__split_bufferINS_10shared_ptrI6ActionEERNS_9allocatorIS3_EEEC1EmmS6_, symObjAddr: 0x90C4, symBinAddr: 0x100029ED8, symSize: 0x44 }
  - { offsetInCU: 0x2D0C3, offset: 0x18B4A9, size: 0x8, addend: 0x0, symName: __ZNSt3__114__split_bufferINS_10shared_ptrI6ActionEERNS_9allocatorIS3_EEED1Ev, symObjAddr: 0x9218, symBinAddr: 0x10002A02C, symSize: 0x2C }
  - { offsetInCU: 0x2D0EF, offset: 0x18B4D5, size: 0x8, addend: 0x0, symName: __ZNSt3__114__split_bufferINS_10shared_ptrI6ActionEERNS_9allocatorIS3_EEEC2EmmS6_, symObjAddr: 0x92C4, symBinAddr: 0x10002A058, symSize: 0xD4 }
  - { offsetInCU: 0x2D162, offset: 0x18B548, size: 0x8, addend: 0x0, symName: __ZNSt3__117__compressed_pairIPNS_10shared_ptrI6ActionEERNS_9allocatorIS3_EEEC1B8ue170006IDnS7_EEOT_OT0_, symObjAddr: 0x9398, symBinAddr: 0x10002A12C, symSize: 0x3C }
  - { offsetInCU: 0x2D1BA, offset: 0x18B5A0, size: 0x8, addend: 0x0, symName: __ZNSt3__114__split_bufferINS_10shared_ptrI6ActionEERNS_9allocatorIS3_EEE7__allocB8ue170006Ev, symObjAddr: 0x93D4, symBinAddr: 0x10002A168, symSize: 0x28 }
  - { offsetInCU: 0x2D1E0, offset: 0x18B5C6, size: 0x8, addend: 0x0, symName: __ZNSt3__114__split_bufferINS_10shared_ptrI6ActionEERNS_9allocatorIS3_EEE9__end_capB8ue170006Ev, symObjAddr: 0x93FC, symBinAddr: 0x10002A190, symSize: 0x28 }
  - { offsetInCU: 0x2D206, offset: 0x18B5EC, size: 0x8, addend: 0x0, symName: __ZNSt3__117__compressed_pairIPNS_10shared_ptrI6ActionEERNS_9allocatorIS3_EEEC2B8ue170006IDnS7_EEOT_OT0_, symObjAddr: 0x9424, symBinAddr: 0x10002A1B8, symSize: 0x48 }
  - { offsetInCU: 0x2D25E, offset: 0x18B644, size: 0x8, addend: 0x0, symName: __ZNSt3__122__compressed_pair_elemIRNS_9allocatorINS_10shared_ptrI6ActionEEEELi1ELb0EEC2B8ue170006IS6_vEEOT_, symObjAddr: 0x946C, symBinAddr: 0x10002A200, symSize: 0x20 }
  - { offsetInCU: 0x2D2A0, offset: 0x18B686, size: 0x8, addend: 0x0, symName: __ZNSt3__117__compressed_pairIPNS_10shared_ptrI6ActionEERNS_9allocatorIS3_EEE6secondB8ue170006Ev, symObjAddr: 0x948C, symBinAddr: 0x10002A220, symSize: 0x28 }
  - { offsetInCU: 0x2D2C6, offset: 0x18B6AC, size: 0x8, addend: 0x0, symName: __ZNSt3__122__compressed_pair_elemIRNS_9allocatorINS_10shared_ptrI6ActionEEEELi1ELb0EE5__getB8ue170006Ev, symObjAddr: 0x94B4, symBinAddr: 0x10002A248, symSize: 0x18 }
  - { offsetInCU: 0x2D2EC, offset: 0x18B6D2, size: 0x8, addend: 0x0, symName: __ZNSt3__117__compressed_pairIPNS_10shared_ptrI6ActionEERNS_9allocatorIS3_EEE5firstB8ue170006Ev, symObjAddr: 0x94CC, symBinAddr: 0x10002A260, symSize: 0x24 }
  - { offsetInCU: 0x2D312, offset: 0x18B6F8, size: 0x8, addend: 0x0, symName: __ZNSt3__129_AllocatorDestroyRangeReverseINS_9allocatorINS_10shared_ptrI6ActionEEEENS_16reverse_iteratorIPS4_EEEC1B8ue170006ERS5_RS8_SB_, symObjAddr: 0x969C, symBinAddr: 0x10002A430, symSize: 0x44 }
  - { offsetInCU: 0x2D369, offset: 0x18B74F, size: 0x8, addend: 0x0, symName: __ZNSt3__116allocator_traitsINS_9allocatorINS_10shared_ptrI6ActionEEEEE9constructB8ue170006IS4_JS4_EvvEEvRS5_PT_DpOT0_, symObjAddr: 0x96E0, symBinAddr: 0x10002A474, symSize: 0x30 }
  - { offsetInCU: 0x2D3BE, offset: 0x18B7A4, size: 0x8, addend: 0x0, symName: __ZNKSt3__116reverse_iteratorIPNS_10shared_ptrI6ActionEEEdeB8ue170006Ev, symObjAddr: 0x9710, symBinAddr: 0x10002A4A4, symSize: 0x28 }
  - { offsetInCU: 0x2D3F3, offset: 0x18B7D9, size: 0x8, addend: 0x0, symName: __ZNSt3__128__exception_guard_exceptionsINS_29_AllocatorDestroyRangeReverseINS_9allocatorINS_10shared_ptrI6ActionEEEENS_16reverse_iteratorIPS5_EEEEE10__completeB8ue170006Ev, symObjAddr: 0x9738, symBinAddr: 0x10002A4CC, symSize: 0x1C }
  - { offsetInCU: 0x2D419, offset: 0x18B7FF, size: 0x8, addend: 0x0, symName: __ZNSt3__128__exception_guard_exceptionsINS_29_AllocatorDestroyRangeReverseINS_9allocatorINS_10shared_ptrI6ActionEEEENS_16reverse_iteratorIPS5_EEEEED1B8ue170006Ev, symObjAddr: 0x9754, symBinAddr: 0x10002A4E8, symSize: 0x2C }
  - { offsetInCU: 0x2D443, offset: 0x18B829, size: 0x8, addend: 0x0, symName: __ZNSt3__128__exception_guard_exceptionsINS_29_AllocatorDestroyRangeReverseINS_9allocatorINS_10shared_ptrI6ActionEEEENS_16reverse_iteratorIPS5_EEEEEC1B8ue170006ESA_, symObjAddr: 0x9780, symBinAddr: 0x10002A514, symSize: 0x34 }
  - { offsetInCU: 0x2D47C, offset: 0x18B862, size: 0x8, addend: 0x0, symName: __ZNSt3__128__exception_guard_exceptionsINS_29_AllocatorDestroyRangeReverseINS_9allocatorINS_10shared_ptrI6ActionEEEENS_16reverse_iteratorIPS5_EEEEEC2B8ue170006ESA_, symObjAddr: 0x97B4, symBinAddr: 0x10002A548, symSize: 0x30 }
  - { offsetInCU: 0x2D4B5, offset: 0x18B89B, size: 0x8, addend: 0x0, symName: __ZNSt3__129_AllocatorDestroyRangeReverseINS_9allocatorINS_10shared_ptrI6ActionEEEENS_16reverse_iteratorIPS4_EEEC2B8ue170006ERS5_RS8_SB_, symObjAddr: 0x97E4, symBinAddr: 0x10002A578, symSize: 0x38 }
  - { offsetInCU: 0x2D50C, offset: 0x18B8F2, size: 0x8, addend: 0x0, symName: __ZNSt3__110shared_ptrI6ActionEC1B8ue170006EOS2_, symObjAddr: 0x9858, symBinAddr: 0x10002A5EC, symSize: 0x34 }
  - { offsetInCU: 0x2D545, offset: 0x18B92B, size: 0x8, addend: 0x0, symName: __ZNSt3__110shared_ptrI6ActionEC2B8ue170006EOS2_, symObjAddr: 0x988C, symBinAddr: 0x10002A620, symSize: 0x40 }
  - { offsetInCU: 0x2D57E, offset: 0x18B964, size: 0x8, addend: 0x0, symName: __ZNSt3__128__exception_guard_exceptionsINS_29_AllocatorDestroyRangeReverseINS_9allocatorINS_10shared_ptrI6ActionEEEENS_16reverse_iteratorIPS5_EEEEED2B8ue170006Ev, symObjAddr: 0x98CC, symBinAddr: 0x10002A660, symSize: 0x50 }
  - { offsetInCU: 0x2D5A8, offset: 0x18B98E, size: 0x8, addend: 0x0, symName: __ZNKSt3__129_AllocatorDestroyRangeReverseINS_9allocatorINS_10shared_ptrI6ActionEEEENS_16reverse_iteratorIPS4_EEEclB8ue170006Ev, symObjAddr: 0x991C, symBinAddr: 0x10002A6B0, symSize: 0xB4 }
  - { offsetInCU: 0x2D5CF, offset: 0x18B9B5, size: 0x8, addend: 0x0, symName: __ZNSt3__116reverse_iteratorINS0_IPNS_10shared_ptrI6ActionEEEEEC1B8ue170006ES5_, symObjAddr: 0x9A40, symBinAddr: 0x10002A7D4, symSize: 0x3C }
  - { offsetInCU: 0x2D607, offset: 0x18B9ED, size: 0x8, addend: 0x0, symName: __ZNSt3__116reverse_iteratorINS0_IPNS_10shared_ptrI6ActionEEEEEppB8ue170006Ev, symObjAddr: 0x9B00, symBinAddr: 0x10002A894, symSize: 0x30 }
  - { offsetInCU: 0x2D62D, offset: 0x18BA13, size: 0x8, addend: 0x0, symName: __ZNKSt3__116reverse_iteratorINS0_IPNS_10shared_ptrI6ActionEEEEE4baseB8ue170006Ev, symObjAddr: 0x9B30, symBinAddr: 0x10002A8C4, symSize: 0x24 }
  - { offsetInCU: 0x2D658, offset: 0x18BA3E, size: 0x8, addend: 0x0, symName: __ZNSt3__119__to_address_helperINS_16reverse_iteratorINS1_IPNS_10shared_ptrI6ActionEEEEEEvE6__callB8ue170006ERKS7_, symObjAddr: 0x9B54, symBinAddr: 0x10002A8E8, symSize: 0x38 }
  - { offsetInCU: 0x2D67B, offset: 0x18BA61, size: 0x8, addend: 0x0, symName: __ZNKSt3__116reverse_iteratorINS0_IPNS_10shared_ptrI6ActionEEEEEptB8ue170006Ev, symObjAddr: 0x9B8C, symBinAddr: 0x10002A920, symSize: 0x4C }
  - { offsetInCU: 0x2D6A1, offset: 0x18BA87, size: 0x8, addend: 0x0, symName: __ZNSt3__116reverse_iteratorIPNS_10shared_ptrI6ActionEEEpLB8ue170006El, symObjAddr: 0x9C88, symBinAddr: 0x10002AA1C, symSize: 0x30 }
  - { offsetInCU: 0x2D6D5, offset: 0x18BABB, size: 0x8, addend: 0x0, symName: __ZNSt3__116reverse_iteratorIPNS_10shared_ptrI6ActionEEEmmB8ue170006Ev, symObjAddr: 0x9CB8, symBinAddr: 0x10002AA4C, symSize: 0x20 }
  - { offsetInCU: 0x2D6FB, offset: 0x18BAE1, size: 0x8, addend: 0x0, symName: __ZNSt3__116reverse_iteratorINS0_IPNS_10shared_ptrI6ActionEEEEEC2B8ue170006ES5_, symObjAddr: 0x9CD8, symBinAddr: 0x10002AA6C, symSize: 0x2C }
  - { offsetInCU: 0x2D733, offset: 0x18BB19, size: 0x8, addend: 0x0, symName: __ZNSt3__114__split_bufferINS_10shared_ptrI6ActionEERNS_9allocatorIS3_EEED2Ev, symObjAddr: 0x9D04, symBinAddr: 0x10002AA98, symSize: 0x8C }
  - { offsetInCU: 0x2D75F, offset: 0x18BB45, size: 0x8, addend: 0x0, symName: __ZNSt3__114__split_bufferINS_10shared_ptrI6ActionEERNS_9allocatorIS3_EEE5clearB8ue170006Ev, symObjAddr: 0x9D90, symBinAddr: 0x10002AB24, symSize: 0x28 }
  - { offsetInCU: 0x2D785, offset: 0x18BB6B, size: 0x8, addend: 0x0, symName: __ZNKSt3__114__split_bufferINS_10shared_ptrI6ActionEERNS_9allocatorIS3_EEE8capacityB8ue170006Ev, symObjAddr: 0x9DB8, symBinAddr: 0x10002AB4C, symSize: 0x40 }
  - { offsetInCU: 0x2D7AB, offset: 0x18BB91, size: 0x8, addend: 0x0, symName: __ZNSt3__114__split_bufferINS_10shared_ptrI6ActionEERNS_9allocatorIS3_EEE17__destruct_at_endB8ue170006EPS3_, symObjAddr: 0x9DF8, symBinAddr: 0x10002AB8C, symSize: 0x2C }
  - { offsetInCU: 0x2D7DF, offset: 0x18BBC5, size: 0x8, addend: 0x0, symName: __ZNSt3__114__split_bufferINS_10shared_ptrI6ActionEERNS_9allocatorIS3_EEE17__destruct_at_endB8ue170006EPS3_NS_17integral_constantIbLb0EEE, symObjAddr: 0x9E24, symBinAddr: 0x10002ABB8, symSize: 0x80 }
  - { offsetInCU: 0x2D820, offset: 0x18BC06, size: 0x8, addend: 0x0, symName: __ZNKSt3__114__split_bufferINS_10shared_ptrI6ActionEERNS_9allocatorIS3_EEE9__end_capB8ue170006Ev, symObjAddr: 0x9EA4, symBinAddr: 0x10002AC38, symSize: 0x28 }
  - { offsetInCU: 0x2D846, offset: 0x18BC2C, size: 0x8, addend: 0x0, symName: __ZNKSt3__117__compressed_pairIPNS_10shared_ptrI6ActionEERNS_9allocatorIS3_EEE5firstB8ue170006Ev, symObjAddr: 0x9ECC, symBinAddr: 0x10002AC60, symSize: 0x24 }
  - { offsetInCU: 0x2D86C, offset: 0x18BC52, size: 0x8, addend: 0x0, symName: __ZNSt3__14pairIKccEC2B8ue170006IccLPv0EEEOT_OT0_, symObjAddr: 0x9EF0, symBinAddr: 0x10002AC84, symSize: 0x34 }
  - { offsetInCU: 0x2D8CB, offset: 0x18BCB1, size: 0x8, addend: 0x0, symName: __ZNSt3__18optionalI5ScopeEC2B8ue170006IRS1_Li0EEEOT_, symObjAddr: 0x9F24, symBinAddr: 0x10002ACB8, symSize: 0x34 }
  - { offsetInCU: 0x2D918, offset: 0x18BCFE, size: 0x8, addend: 0x0, symName: __ZNSt3__127__optional_move_assign_baseI5ScopeLb1EECI2NS_24__optional_destruct_baseIS1_Lb1EEEIJRS1_EEENS_10in_place_tEDpOT_, symObjAddr: 0x9F58, symBinAddr: 0x10002ACEC, symSize: 0x34 }
  - { offsetInCU: 0x2D95C, offset: 0x18BD42, size: 0x8, addend: 0x0, symName: __ZNSt3__127__optional_copy_assign_baseI5ScopeLb1EECI2NS_24__optional_destruct_baseIS1_Lb1EEEIJRS1_EEENS_10in_place_tEDpOT_, symObjAddr: 0x9F8C, symBinAddr: 0x10002AD20, symSize: 0x34 }
  - { offsetInCU: 0x2D9A0, offset: 0x18BD86, size: 0x8, addend: 0x0, symName: __ZNSt3__120__optional_move_baseI5ScopeLb1EECI2NS_24__optional_destruct_baseIS1_Lb1EEEIJRS1_EEENS_10in_place_tEDpOT_, symObjAddr: 0x9FC0, symBinAddr: 0x10002AD54, symSize: 0x34 }
  - { offsetInCU: 0x2D9E4, offset: 0x18BDCA, size: 0x8, addend: 0x0, symName: __ZNSt3__120__optional_copy_baseI5ScopeLb1EECI2NS_24__optional_destruct_baseIS1_Lb1EEEIJRS1_EEENS_10in_place_tEDpOT_, symObjAddr: 0x9FF4, symBinAddr: 0x10002AD88, symSize: 0x34 }
  - { offsetInCU: 0x2DA23, offset: 0x18BE09, size: 0x8, addend: 0x0, symName: __ZNSt3__123__optional_storage_baseI5ScopeLb0EECI2NS_24__optional_destruct_baseIS1_Lb1EEEIJRS1_EEENS_10in_place_tEDpOT_, symObjAddr: 0xA028, symBinAddr: 0x10002ADBC, symSize: 0x34 }
  - { offsetInCU: 0x2DA62, offset: 0x18BE48, size: 0x8, addend: 0x0, symName: __ZNSt3__124__optional_destruct_baseI5ScopeLb1EEC2B8ue170006IJRS1_EEENS_10in_place_tEDpOT_, symObjAddr: 0xA05C, symBinAddr: 0x10002ADF0, symSize: 0x2C }
  - { offsetInCU: 0x2DAB2, offset: 0x18BE98, size: 0x8, addend: 0x0, symName: __ZNSt3__18optionalI5ScopeEC2B8ue170006ENS_9nullopt_tE, symObjAddr: 0xA088, symBinAddr: 0x10002AE1C, symSize: 0x2C }
  - { offsetInCU: 0x2DAE8, offset: 0x18BECE, size: 0x8, addend: 0x0, symName: __ZNSt3__127__optional_move_assign_baseI5ScopeLb1EEC2Ev, symObjAddr: 0xA0B4, symBinAddr: 0x10002AE48, symSize: 0x2C }
  - { offsetInCU: 0x2DB15, offset: 0x18BEFB, size: 0x8, addend: 0x0, symName: __ZNSt3__127__optional_copy_assign_baseI5ScopeLb1EEC2Ev, symObjAddr: 0xA0E0, symBinAddr: 0x10002AE74, symSize: 0x2C }
  - { offsetInCU: 0x2DB42, offset: 0x18BF28, size: 0x8, addend: 0x0, symName: __ZNSt3__120__optional_move_baseI5ScopeLb1EEC2Ev, symObjAddr: 0xA10C, symBinAddr: 0x10002AEA0, symSize: 0x2C }
  - { offsetInCU: 0x2DB6F, offset: 0x18BF55, size: 0x8, addend: 0x0, symName: __ZNSt3__120__optional_copy_baseI5ScopeLb1EEC2Ev, symObjAddr: 0xA138, symBinAddr: 0x10002AECC, symSize: 0x2C }
  - { offsetInCU: 0x2DB9C, offset: 0x18BF82, size: 0x8, addend: 0x0, symName: __ZNSt3__123__optional_storage_baseI5ScopeLb0EEC2Ev, symObjAddr: 0xA164, symBinAddr: 0x10002AEF8, symSize: 0x2C }
  - { offsetInCU: 0x2DBC9, offset: 0x18BFAF, size: 0x8, addend: 0x0, symName: __ZNSt3__124__optional_destruct_baseI5ScopeLb1EEC2B8ue170006Ev, symObjAddr: 0xA190, symBinAddr: 0x10002AF24, symSize: 0x1C }
  - { offsetInCU: 0x2DBF3, offset: 0x18BFD9, size: 0x8, addend: 0x0, symName: __ZNSt3__113unordered_mapIc14CommandDetailsNS_4hashIcEENS_8equal_toIcEENS_9allocatorINS_4pairIKcS1_EEEEEC2ESt16initializer_listIS9_E, symObjAddr: 0xA2E8, symBinAddr: 0x10002AF40, symSize: 0x8C }
  - { offsetInCU: 0x2DC2E, offset: 0x18C014, size: 0x8, addend: 0x0, symName: __ZNSt3__112__hash_tableINS_17__hash_value_typeIc14CommandDetailsEENS_22__unordered_map_hasherIcS3_NS_4hashIcEENS_8equal_toIcEELb1EEENS_21__unordered_map_equalIcS3_S8_S6_Lb1EEENS_9allocatorIS3_EEEC1Ev, symObjAddr: 0xA374, symBinAddr: 0x10002AFCC, symSize: 0x2C }
  - { offsetInCU: 0x2DC5A, offset: 0x18C040, size: 0x8, addend: 0x0, symName: __ZNSt3__113unordered_mapIc14CommandDetailsNS_4hashIcEENS_8equal_toIcEENS_9allocatorINS_4pairIKcS1_EEEEE6insertIPKS9_EEvT_SF_, symObjAddr: 0xA3A0, symBinAddr: 0x10002AFF8, symSize: 0x70 }
  - { offsetInCU: 0x2DCA9, offset: 0x18C08F, size: 0x8, addend: 0x0, symName: __ZNKSt16initializer_listINSt3__14pairIKc14CommandDetailsEEE5beginB8ue170006Ev, symObjAddr: 0xA410, symBinAddr: 0x10002B068, symSize: 0x18 }
  - { offsetInCU: 0x2DCCF, offset: 0x18C0B5, size: 0x8, addend: 0x0, symName: __ZNKSt16initializer_listINSt3__14pairIKc14CommandDetailsEEE3endB8ue170006Ev, symObjAddr: 0xA428, symBinAddr: 0x10002B080, symSize: 0x20 }
  - { offsetInCU: 0x2DCF5, offset: 0x18C0DB, size: 0x8, addend: 0x0, symName: __ZNSt3__112__hash_tableINS_17__hash_value_typeIc14CommandDetailsEENS_22__unordered_map_hasherIcS3_NS_4hashIcEENS_8equal_toIcEELb1EEENS_21__unordered_map_equalIcS3_S8_S6_Lb1EEENS_9allocatorIS3_EEED1Ev, symObjAddr: 0xA448, symBinAddr: 0x10002B0A0, symSize: 0x2C }
  - { offsetInCU: 0x2DD21, offset: 0x18C107, size: 0x8, addend: 0x0, symName: __ZNSt3__112__hash_tableINS_17__hash_value_typeIc14CommandDetailsEENS_22__unordered_map_hasherIcS3_NS_4hashIcEENS_8equal_toIcEELb1EEENS_21__unordered_map_equalIcS3_S8_S6_Lb1EEENS_9allocatorIS3_EEEC2Ev, symObjAddr: 0xA474, symBinAddr: 0x10002B0CC, symSize: 0x7C }
  - { offsetInCU: 0x2DD4D, offset: 0x18C133, size: 0x8, addend: 0x0, symName: __ZNSt3__110unique_ptrIA_PNS_16__hash_node_baseIPNS_11__hash_nodeINS_17__hash_value_typeIc14CommandDetailsEEPvEEEENS_25__bucket_list_deallocatorINS_9allocatorISA_EEEEEC1B8ue170006ILb1EvEEv, symObjAddr: 0xA4F0, symBinAddr: 0x10002B148, symSize: 0x2C }
  - { offsetInCU: 0x2DD82, offset: 0x18C168, size: 0x8, addend: 0x0, symName: __ZNSt3__117__compressed_pairINS_16__hash_node_baseIPNS_11__hash_nodeINS_17__hash_value_typeIc14CommandDetailsEEPvEEEENS_9allocatorIS7_EEEC1B8ue170006ILb1EvEEv, symObjAddr: 0xA51C, symBinAddr: 0x10002B174, symSize: 0x2C }
  - { offsetInCU: 0x2DDBC, offset: 0x18C1A2, size: 0x8, addend: 0x0, symName: __ZNSt3__117__compressed_pairImNS_22__unordered_map_hasherIcNS_17__hash_value_typeIc14CommandDetailsEENS_4hashIcEENS_8equal_toIcEELb1EEEEC1B8ue170006IiNS_18__default_init_tagEEEOT_OT0_, symObjAddr: 0xA548, symBinAddr: 0x10002B1A0, symSize: 0x3C }
  - { offsetInCU: 0x2DE19, offset: 0x18C1FF, size: 0x8, addend: 0x0, symName: __ZNSt3__117__compressed_pairIfNS_21__unordered_map_equalIcNS_17__hash_value_typeIc14CommandDetailsEENS_8equal_toIcEENS_4hashIcEELb1EEEEC1B8ue170006IfNS_18__default_init_tagEEEOT_OT0_, symObjAddr: 0xA584, symBinAddr: 0x10002B1DC, symSize: 0x3C }
  - { offsetInCU: 0x2DE71, offset: 0x18C257, size: 0x8, addend: 0x0, symName: __ZNSt3__110unique_ptrIA_PNS_16__hash_node_baseIPNS_11__hash_nodeINS_17__hash_value_typeIc14CommandDetailsEEPvEEEENS_25__bucket_list_deallocatorINS_9allocatorISA_EEEEEC2B8ue170006ILb1EvEEv, symObjAddr: 0xA5C0, symBinAddr: 0x10002B218, symSize: 0x3C }
  - { offsetInCU: 0x2DEAB, offset: 0x18C291, size: 0x8, addend: 0x0, symName: __ZNSt3__117__compressed_pairIPPNS_16__hash_node_baseIPNS_11__hash_nodeINS_17__hash_value_typeIc14CommandDetailsEEPvEEEENS_25__bucket_list_deallocatorINS_9allocatorISA_EEEEEC1B8ue170006INS_16__value_init_tagESI_EEOT_OT0_, symObjAddr: 0xA5FC, symBinAddr: 0x10002B254, symSize: 0x3C }
  - { offsetInCU: 0x2DF03, offset: 0x18C2E9, size: 0x8, addend: 0x0, symName: __ZNSt3__117__compressed_pairIPPNS_16__hash_node_baseIPNS_11__hash_nodeINS_17__hash_value_typeIc14CommandDetailsEEPvEEEENS_25__bucket_list_deallocatorINS_9allocatorISA_EEEEEC2B8ue170006INS_16__value_init_tagESI_EEOT_OT0_, symObjAddr: 0xA638, symBinAddr: 0x10002B290, symSize: 0x40 }
  - { offsetInCU: 0x2DF5B, offset: 0x18C341, size: 0x8, addend: 0x0, symName: __ZNSt3__122__compressed_pair_elemIPPNS_16__hash_node_baseIPNS_11__hash_nodeINS_17__hash_value_typeIc14CommandDetailsEEPvEEEELi0ELb0EEC2B8ue170006ENS_16__value_init_tagE, symObjAddr: 0xA678, symBinAddr: 0x10002B2D0, symSize: 0x18 }
  - { offsetInCU: 0x2DF90, offset: 0x18C376, size: 0x8, addend: 0x0, symName: __ZNSt3__122__compressed_pair_elemINS_25__bucket_list_deallocatorINS_9allocatorIPNS_16__hash_node_baseIPNS_11__hash_nodeINS_17__hash_value_typeIc14CommandDetailsEEPvEEEEEEEELi1ELb0EEC2B8ue170006ENS_16__value_init_tagE, symObjAddr: 0xA690, symBinAddr: 0x10002B2E8, symSize: 0x2C }
  - { offsetInCU: 0x2DFC5, offset: 0x18C3AB, size: 0x8, addend: 0x0, symName: __ZNSt3__125__bucket_list_deallocatorINS_9allocatorIPNS_16__hash_node_baseIPNS_11__hash_nodeINS_17__hash_value_typeIc14CommandDetailsEEPvEEEEEEEC1B8ue170006Ev, symObjAddr: 0xA6BC, symBinAddr: 0x10002B314, symSize: 0x2C }
  - { offsetInCU: 0x2DFEF, offset: 0x18C3D5, size: 0x8, addend: 0x0, symName: __ZNSt3__125__bucket_list_deallocatorINS_9allocatorIPNS_16__hash_node_baseIPNS_11__hash_nodeINS_17__hash_value_typeIc14CommandDetailsEEPvEEEEEEEC2B8ue170006Ev, symObjAddr: 0xA6E8, symBinAddr: 0x10002B340, symSize: 0x40 }
  - { offsetInCU: 0x2E019, offset: 0x18C3FF, size: 0x8, addend: 0x0, symName: __ZNSt3__117__compressed_pairImNS_9allocatorIPNS_16__hash_node_baseIPNS_11__hash_nodeINS_17__hash_value_typeIc14CommandDetailsEEPvEEEEEEEC1B8ue170006IiNS_18__default_init_tagEEEOT_OT0_, symObjAddr: 0xA728, symBinAddr: 0x10002B380, symSize: 0x3C }
  - { offsetInCU: 0x2E071, offset: 0x18C457, size: 0x8, addend: 0x0, symName: __ZNSt3__117__compressed_pairImNS_9allocatorIPNS_16__hash_node_baseIPNS_11__hash_nodeINS_17__hash_value_typeIc14CommandDetailsEEPvEEEEEEEC2B8ue170006IiNS_18__default_init_tagEEEOT_OT0_, symObjAddr: 0xA764, symBinAddr: 0x10002B3BC, symSize: 0x40 }
  - { offsetInCU: 0x2E0C9, offset: 0x18C4AF, size: 0x8, addend: 0x0, symName: __ZNSt3__122__compressed_pair_elemINS_9allocatorIPNS_16__hash_node_baseIPNS_11__hash_nodeINS_17__hash_value_typeIc14CommandDetailsEEPvEEEEEELi1ELb1EEC2B8ue170006ENS_18__default_init_tagE, symObjAddr: 0xA7C8, symBinAddr: 0x10002B3FC, symSize: 0x2C }
  - { offsetInCU: 0x2E0FE, offset: 0x18C4E4, size: 0x8, addend: 0x0, symName: __ZNSt3__19allocatorIPNS_16__hash_node_baseIPNS_11__hash_nodeINS_17__hash_value_typeIc14CommandDetailsEEPvEEEEEC2B8ue170006Ev, symObjAddr: 0xA7F4, symBinAddr: 0x10002B428, symSize: 0x2C }
  - { offsetInCU: 0x2E128, offset: 0x18C50E, size: 0x8, addend: 0x0, symName: __ZNSt3__116__non_trivial_ifILb1ENS_9allocatorIPNS_16__hash_node_baseIPNS_11__hash_nodeINS_17__hash_value_typeIc14CommandDetailsEEPvEEEEEEEC2B8ue170006Ev, symObjAddr: 0xA820, symBinAddr: 0x10002B454, symSize: 0x14 }
  - { offsetInCU: 0x2E152, offset: 0x18C538, size: 0x8, addend: 0x0, symName: __ZNSt3__117__compressed_pairINS_16__hash_node_baseIPNS_11__hash_nodeINS_17__hash_value_typeIc14CommandDetailsEEPvEEEENS_9allocatorIS7_EEEC2B8ue170006ILb1EvEEv, symObjAddr: 0xA834, symBinAddr: 0x10002B468, symSize: 0x34 }
  - { offsetInCU: 0x2E187, offset: 0x18C56D, size: 0x8, addend: 0x0, symName: __ZNSt3__122__compressed_pair_elemINS_16__hash_node_baseIPNS_11__hash_nodeINS_17__hash_value_typeIc14CommandDetailsEEPvEEEELi0ELb0EEC2B8ue170006ENS_16__value_init_tagE, symObjAddr: 0xA868, symBinAddr: 0x10002B49C, symSize: 0x2C }
  - { offsetInCU: 0x2E1BC, offset: 0x18C5A2, size: 0x8, addend: 0x0, symName: __ZNSt3__122__compressed_pair_elemINS_9allocatorINS_11__hash_nodeINS_17__hash_value_typeIc14CommandDetailsEEPvEEEELi1ELb1EEC2B8ue170006ENS_16__value_init_tagE, symObjAddr: 0xA894, symBinAddr: 0x10002B4C8, symSize: 0x2C }
  - { offsetInCU: 0x2E1F1, offset: 0x18C5D7, size: 0x8, addend: 0x0, symName: __ZNSt3__116__hash_node_baseIPNS_11__hash_nodeINS_17__hash_value_typeIc14CommandDetailsEEPvEEEC1B8ue170006Ev, symObjAddr: 0xA8C0, symBinAddr: 0x10002B4F4, symSize: 0x2C }
  - { offsetInCU: 0x2E21B, offset: 0x18C601, size: 0x8, addend: 0x0, symName: __ZNSt3__116__hash_node_baseIPNS_11__hash_nodeINS_17__hash_value_typeIc14CommandDetailsEEPvEEEC2B8ue170006Ev, symObjAddr: 0xA8EC, symBinAddr: 0x10002B520, symSize: 0x18 }
  - { offsetInCU: 0x2E245, offset: 0x18C62B, size: 0x8, addend: 0x0, symName: __ZNSt3__19allocatorINS_11__hash_nodeINS_17__hash_value_typeIc14CommandDetailsEEPvEEEC2B8ue170006Ev, symObjAddr: 0xA904, symBinAddr: 0x10002B538, symSize: 0x2C }
  - { offsetInCU: 0x2E26F, offset: 0x18C655, size: 0x8, addend: 0x0, symName: __ZNSt3__116__non_trivial_ifILb1ENS_9allocatorINS_11__hash_nodeINS_17__hash_value_typeIc14CommandDetailsEEPvEEEEEC2B8ue170006Ev, symObjAddr: 0xA930, symBinAddr: 0x10002B564, symSize: 0x14 }
  - { offsetInCU: 0x2E299, offset: 0x18C67F, size: 0x8, addend: 0x0, symName: __ZNSt3__117__compressed_pairImNS_22__unordered_map_hasherIcNS_17__hash_value_typeIc14CommandDetailsEENS_4hashIcEENS_8equal_toIcEELb1EEEEC2B8ue170006IiNS_18__default_init_tagEEEOT_OT0_, symObjAddr: 0xA944, symBinAddr: 0x10002B578, symSize: 0x40 }
  - { offsetInCU: 0x2E2F1, offset: 0x18C6D7, size: 0x8, addend: 0x0, symName: __ZNSt3__122__compressed_pair_elemINS_22__unordered_map_hasherIcNS_17__hash_value_typeIc14CommandDetailsEENS_4hashIcEENS_8equal_toIcEELb1EEELi1ELb1EEC2B8ue170006ENS_18__default_init_tagE, symObjAddr: 0xA984, symBinAddr: 0x10002B5B8, symSize: 0x2C }
  - { offsetInCU: 0x2E326, offset: 0x18C70C, size: 0x8, addend: 0x0, symName: __ZNSt3__122__unordered_map_hasherIcNS_17__hash_value_typeIc14CommandDetailsEENS_4hashIcEENS_8equal_toIcEELb1EEC2B8ue170006Ev, symObjAddr: 0xA9B0, symBinAddr: 0x10002B5E4, symSize: 0x14 }
  - { offsetInCU: 0x2E350, offset: 0x18C736, size: 0x8, addend: 0x0, symName: __ZNSt3__117__compressed_pairIfNS_21__unordered_map_equalIcNS_17__hash_value_typeIc14CommandDetailsEENS_8equal_toIcEENS_4hashIcEELb1EEEEC2B8ue170006IfNS_18__default_init_tagEEEOT_OT0_, symObjAddr: 0xA9C4, symBinAddr: 0x10002B5F8, symSize: 0x40 }
  - { offsetInCU: 0x2E3A8, offset: 0x18C78E, size: 0x8, addend: 0x0, symName: __ZNSt3__122__compressed_pair_elemINS_21__unordered_map_equalIcNS_17__hash_value_typeIc14CommandDetailsEENS_8equal_toIcEENS_4hashIcEELb1EEELi1ELb1EEC2B8ue170006ENS_18__default_init_tagE, symObjAddr: 0xAA28, symBinAddr: 0x10002B638, symSize: 0x2C }
  - { offsetInCU: 0x2E3DD, offset: 0x18C7C3, size: 0x8, addend: 0x0, symName: __ZNSt3__121__unordered_map_equalIcNS_17__hash_value_typeIc14CommandDetailsEENS_8equal_toIcEENS_4hashIcEELb1EEC2B8ue170006Ev, symObjAddr: 0xAA54, symBinAddr: 0x10002B664, symSize: 0x14 }
  - { offsetInCU: 0x2E407, offset: 0x18C7ED, size: 0x8, addend: 0x0, symName: __ZNSt3__112__hash_tableINS_17__hash_value_typeIc14CommandDetailsEENS_22__unordered_map_hasherIcS3_NS_4hashIcEENS_8equal_toIcEELb1EEENS_21__unordered_map_equalIcS3_S8_S6_Lb1EEENS_9allocatorIS3_EEE15__insert_uniqueB8ue170006ERKNS_4pairIKcS2_EE, symObjAddr: 0xAA68, symBinAddr: 0x10002B678, symSize: 0x50 }
  - { offsetInCU: 0x2E43C, offset: 0x18C822, size: 0x8, addend: 0x0, symName: __ZNSt3__112__hash_tableINS_17__hash_value_typeIc14CommandDetailsEENS_22__unordered_map_hasherIcS3_NS_4hashIcEENS_8equal_toIcEELb1EEENS_21__unordered_map_equalIcS3_S8_S6_Lb1EEENS_9allocatorIS3_EEE25__emplace_unique_key_argsIcJRKNS_4pairIKcS2_EEEEENSG_INS_15__hash_iteratorIPNS_11__hash_nodeIS3_PvEEEEbEERKT_DpOT0_, symObjAddr: 0xAAB8, symBinAddr: 0x10002B6C8, symSize: 0x4D8 }
  - { offsetInCU: 0x2E51C, offset: 0x18C902, size: 0x8, addend: 0x0, symName: __ZNSt3__122__hash_key_value_typesINS_17__hash_value_typeIc14CommandDetailsEEE9__get_keyB8ue170006ERKNS_4pairIKcS2_EE, symObjAddr: 0xAF90, symBinAddr: 0x10002BBA0, symSize: 0x14 }
  - { offsetInCU: 0x2E53F, offset: 0x18C925, size: 0x8, addend: 0x0, symName: __ZNSt3__112__hash_tableINS_17__hash_value_typeIc14CommandDetailsEENS_22__unordered_map_hasherIcS3_NS_4hashIcEENS_8equal_toIcEELb1EEENS_21__unordered_map_equalIcS3_S8_S6_Lb1EEENS_9allocatorIS3_EEE13hash_functionB8ue170006Ev, symObjAddr: 0xAFA4, symBinAddr: 0x10002BBB4, symSize: 0x28 }
  - { offsetInCU: 0x2E565, offset: 0x18C94B, size: 0x8, addend: 0x0, symName: __ZNKSt3__122__unordered_map_hasherIcNS_17__hash_value_typeIc14CommandDetailsEENS_4hashIcEENS_8equal_toIcEELb1EEclB8ue170006ERKc, symObjAddr: 0xAFCC, symBinAddr: 0x10002BBDC, symSize: 0x30 }
  - { offsetInCU: 0x2E59A, offset: 0x18C980, size: 0x8, addend: 0x0, symName: __ZNKSt3__112__hash_tableINS_17__hash_value_typeIc14CommandDetailsEENS_22__unordered_map_hasherIcS3_NS_4hashIcEENS_8equal_toIcEELb1EEENS_21__unordered_map_equalIcS3_S8_S6_Lb1EEENS_9allocatorIS3_EEE12bucket_countB8ue170006Ev, symObjAddr: 0xAFFC, symBinAddr: 0x10002BC0C, symSize: 0x28 }
  - { offsetInCU: 0x2E5C0, offset: 0x18C9A6, size: 0x8, addend: 0x0, symName: __ZNKSt3__110unique_ptrIA_PNS_16__hash_node_baseIPNS_11__hash_nodeINS_17__hash_value_typeIc14CommandDetailsEEPvEEEENS_25__bucket_list_deallocatorINS_9allocatorISA_EEEEEixB8ue170006Em, symObjAddr: 0xB0BC, symBinAddr: 0x10002BC34, symSize: 0x34 }
  - { offsetInCU: 0x2E5F5, offset: 0x18C9DB, size: 0x8, addend: 0x0, symName: __ZNKSt3__116__hash_node_baseIPNS_11__hash_nodeINS_17__hash_value_typeIc14CommandDetailsEEPvEEE6__hashB8ue170006Ev, symObjAddr: 0xB0F0, symBinAddr: 0x10002BC68, symSize: 0x18 }
  - { offsetInCU: 0x2E61B, offset: 0x18CA01, size: 0x8, addend: 0x0, symName: __ZNSt3__112__hash_tableINS_17__hash_value_typeIc14CommandDetailsEENS_22__unordered_map_hasherIcS3_NS_4hashIcEENS_8equal_toIcEELb1EEENS_21__unordered_map_equalIcS3_S8_S6_Lb1EEENS_9allocatorIS3_EEE6key_eqB8ue170006Ev, symObjAddr: 0xB108, symBinAddr: 0x10002BC80, symSize: 0x28 }
